(dp0
S'palm'
p1
(lp2
(lp3
(I-2
I14
I-2
I0
I-2
I-8
I-2
I0
tp4
a(I2
I-2
I-4
I-2
I-2
I4
I-3
I2
tp5
a(I0
I-10
I-2
I-1
I3
I8
I7
I1
tp6
a(I-5
I2
I-2
I0
I-2
I-13
I-7
I-2
tp7
a(I0
I0
I-2
I-1
I-1
I1
I0
I-4
tp8
a(I2
I-3
I-3
I1
I-2
I2
I1
I3
tp9
a(I0
I5
I2
I0
I-2
I2
I-1
I-1
tp10
a(I4
I5
I-1
I3
I6
I6
I0
I2
tp11
a(I-2
I-10
I-3
I-2
I-1
I-6
I-4
I-3
tp12
a(I-1
I0
I2
I-1
I1
I-3
I1
I4
tp13
a(I2
I4
I-2
I-2
I-3
I0
I2
I-5
tp14
a(I-1
I-6
I1
I0
I0
I1
I2
I2
tp15
a(I2
I-4
I1
I0
I-1
I1
I-3
I0
tp16
a(I-1
I14
I3
I0
I-1
I-3
I3
I0
tp17
a(I7
I-13
I-5
I-1
I2
I5
I-1
I3
tp18
a(I-7
I2
I1
I-2
I-2
I-11
I-3
I-15
tp19
a(I-8
I-4
I-1
I1
I-1
I3
I-4
I-3
tp20
a(I3
I-4
I-4
I-1
I2
I6
I14
I0
tp21
a(I-1
I5
I1
I-1
I-3
I0
I-5
I2
tp22
a(I10
I-9
I-5
I1
I3
I-2
I-4
I18
tp23
a(I-1
I-7
I-3
I-3
I-4
I-9
I-2
I-12
tp24
a(I-18
I-3
I-4
I-2
I-4
I2
I-2
I-5
tp25
a(I23
I6
I4
I4
I7
I3
I-2
I4
tp26
a(I-10
I-10
I-4
I-5
I-5
I-1
I-3
I-3
tp27
a(I0
I10
I3
I-1
I2
I13
I2
I0
tp28
a(I-1
I-2
I0
I1
I-2
I-7
I-5
I3
tp29
a(I-10
I-3
I-3
I-2
I-2
I-5
I5
I-2
tp30
a(I2
I0
I-2
I1
I-1
I9
I-1
I-3
tp31
a(I0
I-1
I-3
I0
I-3
I-19
I-3
I4
tp32
a(I1
I4
I-1
I-1
I-2
I3
I2
I-10
tp33
a(I-6
I-5
I0
I-2
I-2
I-4
I-3
I5
tp34
a(I-1
I6
I0
I-3
I-4
I-7
I-3
I-10
tp35
a(I1
I-11
I-4
I0
I-3
I-3
I0
I0
tp36
a(I0
I-4
I0
I-1
I0
I11
I5
I0
tp37
a(I-3
I-4
I-4
I-2
I-3
I-11
I-3
I-4
tp38
a(I-2
I2
I-2
I-2
I-2
I14
I2
I4
tp39
a(I0
I-4
I1
I-1
I-3
I-10
I-6
I-1
tp40
a(I5
I10
I0
I1
I-1
I-5
I-6
I3
tp41
a(I-9
I-9
I-3
I-1
I0
I8
I0
I-7
tp42
a(I-4
I-2
I-5
I-3
I-4
I-10
I0
I-1
tp43
a(I-11
I-5
I-2
I-1
I0
I1
I-3
I1
tp44
a(I23
I1
I3
I-1
I1
I4
I0
I-10
tp45
a(I-9
I2
I2
I0
I1
I-4
I9
I11
tp46
a(I-3
I-19
I0
I0
I-2
I-1
I-1
I-3
tp47
a(I8
I12
I-1
I3
I1
I7
I-1
I8
tp48
a(I-8
I-4
I-7
I-3
I-5
I3
I-3
I-6
tp49
a(I1
I4
I1
I3
I5
I7
I0
I0
tp50
a(I3
I3
I5
I0
I3
I3
I0
I1
tp51
a(I1
I3
I4
I-3
I0
I-14
I-2
I2
tp52
a(I-2
I-2
I0
I1
I2
I6
I8
I8
tp53
a(I4
I-1
I-1
I-3
I-4
I-2
I-3
I-7
tp54
a(I0
I3
I0
I0
I-2
I1
I2
I6
tp55
a(I1
I-2
I0
I-2
I-2
I-3
I-2
I-3
tp56
a(I0
I10
I0
I0
I-1
I-3
I-4
I6
tp57
a(I-2
I2
I2
I-2
I-2
I-2
I0
I-6
tp58
a(I0
I4
I-3
I-1
I-1
I5
I-1
I2
tp59
a(I-1
I-3
I-1
I-1
I-3
I-1
I0
I-3
tp60
a(I-3
I-10
I0
I0
I1
I-3
I1
I0
tp61
a(I2
I1
I1
I1
I-1
I5
I1
I4
tp62
a(I2
I3
I-1
I0
I-1
I-30
I-7
I0
tp63
a(I1
I0
I-3
I0
I0
I22
I5
I-1
tp64
a(I-1
I2
I0
I-2
I1
I-1
I1
I3
tp65
a(I-1
I5
I-3
I-2
I-3
I3
I-4
I-2
tp66
a(I1
I1
I2
I-1
I1
I3
I4
I1
tp67
a(I-9
I-10
I-3
I-3
I-3
I-17
I-7
I-6
tp68
a(I1
I-1
I2
I-1
I1
I1
I-1
I-1
tp69
a(I-13
I2
I-2
I-1
I-3
I-2
I2
I-3
tp70
a(I30
I3
I-4
I-2
I-2
I5
I3
I5
tp71
a(I-2
I3
I-3
I2
I2
I7
I0
I0
tp72
a(I-4
I-3
I0
I-2
I-4
I-3
I-3
I-3
tp73
a(I-1
I-7
I1
I0
I-2
I-6
I-3
I-3
tp74
a(I-11
I-5
I-1
I0
I-1
I6
I1
I-2
tp75
a(I2
I3
I2
I1
I0
I-4
I1
I-3
tp76
a(I-4
I-1
I-1
I0
I0
I-4
I-2
I5
tp77
a(I4
I-2
I3
I0
I0
I3
I-1
I-8
tp78
a(I-8
I3
I-3
I0
I0
I-16
I2
I-4
tp79
a(I2
I11
I-1
I-2
I1
I28
I3
I0
tp80
a(I-4
I-9
I0
I1
I2
I-6
I-4
I-3
tp81
a(I0
I-4
I0
I0
I-3
I-10
I0
I6
tp82
a(I4
I9
I3
I1
I4
I21
I3
I3
tp83
a(I-8
I-4
I-1
I-2
I-1
I-18
I-3
I0
tp84
a(I0
I-5
I-1
I-3
I-5
I-8
I-10
I-3
tp85
a(I3
I3
I-2
I0
I3
I15
I8
I5
tp86
a(I-7
I-5
I-3
I1
I-1
I-3
I0
I-6
tp87
a(I4
I-10
I-6
I-2
I0
I1
I0
I1
tp88
a(I-2
I4
I1
I0
I-1
I-1
I-2
I-2
tp89
a(I2
I-3
I-2
I1
I-2
I-9
I-6
I0
tp90
a(I-5
I-15
I-2
I-2
I-2
I5
I-2
I1
tp91
a(I0
I11
I6
I-1
I-1
I-1
I2
I1
tp92
a(I2
I-2
I-2
I1
I1
I-6
I-4
I-1
tp93
a(I-1
I4
I0
I-1
I2
I-3
I0
I0
tp94
a(I-3
I1
I-1
I-1
I-2
I17
I4
I2
tp95
a(I1
I-9
I-2
I0
I-2
I-13
I-4
I-1
tp96
a(I2
I0
I1
I-3
I-4
I-6
I-3
I4
tp97
a(I-5
I-2
I-3
I2
I4
I1
I-1
I-8
tp98
a(I1
I3
I0
I-1
I-4
I-11
I-4
I8
tp99
a(I-5
I-1
I0
I0
I2
I22
I5
I-9
tp100
a(I-3
I3
I1
I0
I-2
I-1
I1
I-2
tp101
a(I6
I-2
I-2
I0
I2
I2
I1
I8
tp102
a(I-9
I-7
I-1
I-3
I0
I-1
I-7
I-5
tp103
a(I2
I4
I0
I-2
I-1
I-5
I-7
I-5
tp104
a(I2
I5
I-1
I1
I-1
I-8
I11
I6
tp105
a(I-6
I-3
I0
I0
I1
I19
I-2
I-2
tp106
a(I-1
I3
I-1
I0
I0
I-15
I-3
I-2
tp107
a(I3
I-4
I2
I1
I2
I7
I7
I8
tp108
a(I-2
I-2
I1
I-3
I-1
I14
I-5
I-13
tp109
a(I2
I-14
I-1
I0
I-3
I-15
I-3
I0
tp110
a(I2
I11
I-1
I1
I0
I9
I9
I-1
tp111
a(I0
I16
I2
I0
I0
I-8
I-2
I-5
tp112
a(I1
I-7
I-7
I0
I-2
I-6
I-6
I13
tp113
a(I-1
I-12
I1
I1
I2
I10
I7
I-5
tp114
a(I-1
I9
I-2
I-2
I-1
I10
I-3
I-2
tp115
a(I-13
I-1
I0
I1
I0
I-13
I-1
I3
tp116
a(I26
I1
I1
I2
I4
I12
I4
I-3
tp117
a(I-1
I7
I-1
I-1
I-2
I-6
I-4
I5
tp118
a(I-2
I-4
I1
I0
I-2
I1
I-2
I-2
tp119
a(I2
I-1
I-1
I-3
I-4
I-10
I-5
I-2
tp120
a(I-7
I-2
I-3
I-2
I-1
I3
I1
I1
tp121
a(I-1
I-3
I-2
I0
I1
I0
I-1
I0
tp122
a(I4
I-2
I2
I0
I0
I-11
I-6
I6
tp123
a(I-4
I-7
I-2
I-3
I-1
I2
I4
I-7
tp124
a(I-6
I-2
I-1
I0
I1
I-10
I-3
I-3
tp125
a(I1
I3
I0
I-1
I-2
I-5
I-5
I-1
tp126
a(I1
I-2
I0
I1
I-1
I-7
I8
I0
tp127
a(I1
I9
I4
I1
I-2
I1
I0
I1
tp128
a(I-3
I-22
I-4
I0
I2
I-3
I-2
I-10
tp129
a(I-5
I7
I-2
I-5
I-2
I1
I-10
I1
tp130
a(I0
I-6
I0
I-1
I2
I1
I-5
I1
tp131
a(I4
I-4
I-2
I-4
I-4
I-8
I8
I8
tp132
a(I-5
I9
I2
I1
I-2
I-5
I6
I-3
tp133
a(I2
I-4
I-1
I-2
I-1
I1
I-2
I0
tp134
a(I-2
I-4
I1
I-1
I0
I6
I1
I-6
tp135
a(I-3
I-5
I-2
I-1
I0
I-2
I-2
I-1
tp136
a(I0
I6
I0
I-2
I-2
I-3
I0
I3
tp137
a(I-2
I-1
I0
I-1
I1
I-10
I-2
I-1
tp138
a(I2
I-9
I-1
I0
I-1
I0
I-4
I-3
tp139
a(I2
I7
I0
I0
I3
I0
I3
I5
tp140
a(I-3
I17
I2
I-3
I-4
I-14
I-6
I-3
tp141
a(I0
I-8
I-2
I0
I1
I19
I9
I-2
tp142
a(I-2
I-1
I0
I1
I1
I-11
I-6
I-2
tp143
a(I1
I-4
I-2
I-1
I-2
I11
I-1
I-3
tp144
a(I-14
I-10
I4
I0
I0
I5
I-2
I-7
tp145
a(I30
I12
I0
I0
I-1
I-5
I3
I7
tp146
a(I-4
I9
I-2
I0
I-1
I-5
I2
I-2
tp147
a(I-1
I-6
I-2
I-1
I0
I2
I-4
I1
tp148
a(I-2
I-3
I-1
I0
I-1
I3
I0
I-2
tp149
a(I-7
I1
I2
I-1
I-2
I-4
I-1
I-2
tp150
a(I0
I-3
I-2
I-2
I3
I12
I9
I3
tp151
a(I3
I2
I2
I1
I0
I-11
I-5
I-2
tp152
a(I3
I-5
I-1
I-1
I1
I10
I6
I7
tp153
a(I-5
I-14
I-2
I0
I-1
I-7
I-1
I-1
tp154
a(I-3
I3
I-5
I-3
I-1
I0
I-1
I-2
tp155
a(I-2
I4
I3
I-2
I-1
I8
I-5
I-1
tp156
a(I4
I-2
I1
I0
I-1
I-5
I-2
I0
tp157
a(I-6
I0
I-2
I-1
I-2
I-1
I3
I-1
tp158
a(I-1
I-5
I-1
I1
I1
I6
I-2
I-4
tp159
a(I-3
I-8
I0
I0
I-3
I-30
I-8
I-4
tp160
a(I1
I5
I0
I0
I0
I15
I2
I2
tp161
a(I0
I3
I1
I1
I2
I15
I7
I1
tp162
a(I-1
I-3
I-2
I0
I-2
I-2
I-3
I-3
tp163
a(I1
I-8
I-3
I-2
I-3
I2
I-1
I1
tp164
a(I0
I14
I-3
I1
I-1
I-16
I-5
I-3
tp165
a(I-4
I13
I1
I-2
I-3
I-6
I0
I2
tp166
a(I0
I-6
I3
I1
I1
I15
I5
I6
tp167
a(I-3
I-6
I-3
I0
I-3
I-5
I-3
I-7
tp168
a(I-4
I-8
I-2
I-1
I0
I-2
I-2
I-1
tp169
a(I-2
I-14
I-4
I-1
I0
I9
I0
I0
tp170
a(I-4
I8
I3
I0
I4
I-3
I0
I6
tp171
a(I-5
I-2
I-1
I1
I2
I5
I5
I-5
tp172
a(I11
I0
I-1
I-1
I-2
I9
I2
I3
tp173
a(I-4
I-2
I0
I1
I-3
I-25
I-7
I-5
tp174
a(I1
I-1
I1
I-3
I-3
I-2
I-7
I-3
tp175
a(I-7
I-2
I-2
I0
I-1
I6
I3
I-2
tp176
a(I-4
I-5
I0
I0
I0
I5
I0
I-2
tp177
a(I3
I8
I2
I1
I-2
I-10
I-9
I1
tp178
a(I0
I0
I-2
I-2
I-4
I0
I1
I-5
tp179
a(I4
I-12
I-1
I0
I1
I8
I5
I2
tp180
a(I2
I4
I-1
I0
I1
I3
I-1
I2
tp181
a(I1
I2
I0
I-1
I-3
I-10
I-4
I-1
tp182
a(I-1
I0
I-2
I0
I1
I-7
I-5
I-2
tp183
a(I3
I1
I5
I2
I1
I10
I2
I3
tp184
a(I0
I-8
I0
I-1
I-1
I-6
I0
I2
tp185
a(I-11
I-8
I-5
I0
I-2
I1
I-3
I-10
tp186
a(I4
I6
I-3
I-1
I-2
I-2
I3
I14
tp187
a(I10
I-1
I5
I-1
I0
I2
I-2
I-11
tp188
a(I-4
I-1
I-3
I-1
I-1
I-2
I0
I0
tp189
a(I1
I0
I2
I-1
I-1
I-6
I-2
I1
tp190
a(I-2
I6
I-3
I-2
I-5
I-5
I-1
I-2
tp191
a(I-2
I6
I-2
I-3
I-2
I2
I-2
I2
tp192
a(I-3
I1
I-1
I0
I1
I0
I-2
I-2
tp193
a(I1
I-1
I2
I0
I0
I-11
I-4
I-2
tp194
a(I1
I8
I2
I0
I3
I25
I14
I2
tp195
a(I-3
I-13
I-6
I-1
I-1
I2
I-3
I2
tp196
a(I1
I-10
I-2
I0
I-2
I1
I2
I-4
tp197
a(I1
I-3
I-2
I-2
I-4
I-9
I-4
I3
tp198
a(I-5
I-4
I2
I-1
I-2
I-10
I-6
I-9
tp199
a(I1
I11
I0
I2
I1
I2
I-1
I4
tp200
a(I0
I-1
I-1
I-1
I-3
I-1
I-2
I-4
tp201
a(I0
I-1
I1
I2
I3
I-1
I6
I7
tp202
a(I2
I-2
I-1
I0
I-2
I-3
I-4
I-3
tp203
a(I2
I3
I-3
I-2
I1
I1
I9
I4
tp204
a(I-8
I10
I1
I0
I-1
I-10
I-2
I-7
tp205
a(I0
I-6
I-2
I-3
I1
I21
I7
I6
tp206
a(I0
I1
I0
I0
I0
I-2
I-4
I-12
tp207
a(I1
I10
I0
I0
I-4
I-9
I-8
I4
tp208
a(I0
I-15
I-1
I-3
I-3
I-5
I1
I1
tp209
a(I0
I8
I2
I0
I0
I2
I4
I0
tp210
a(I1
I-5
I-2
I-3
I-2
I-2
I-3
I2
tp211
a(I-2
I-2
I-1
I-2
I-3
I-3
I-6
I-5
tp212
a(I2
I-3
I3
I2
I2
I-5
I1
I4
tp213
a(I-2
I4
I-1
I-1
I0
I7
I3
I-3
tp214
a(I1
I-12
I-5
I-2
I-1
I-4
I-2
I1
tp215
a(I-5
I3
I3
I1
I-1
I-1
I-1
I-5
tp216
a(I-1
I1
I-1
I-1
I0
I3
I0
I2
tp217
a(I-1
I0
I0
I-2
I-1
I0
I-4
I-4
tp218
a(I1
I0
I0
I-2
I-1
I-3
I-1
I2
tp219
a(I0
I-1
I-1
I0
I-2
I-7
I4
I1
tp220
a(I-2
I-6
I-6
I-1
I1
I15
I4
I2
tp221
a(I0
I-8
I-4
I0
I-1
I-18
I-5
I-2
tp222
a(I-1
I10
I1
I0
I1
I4
I-3
I-2
tp223
a(I-1
I-13
I-4
I-3
I0
I11
I0
I2
tp224
a(I1
I-1
I3
I0
I1
I-15
I-5
I1
tp225
a(I-1
I7
I3
I-1
I-3
I0
I-1
I-4
tp226
a(I0
I-5
I0
I-3
I-1
I-11
I-3
I7
tp227
a(I-3
I-4
I-2
I-1
I0
I1
I0
I-12
tp228
a(I2
I3
I1
I-2
I0
I-2
I6
I6
tp229
a(I0
I0
I-2
I1
I1
I11
I2
I6
tp230
a(I-6
I-9
I-1
I1
I-1
I-7
I-3
I-6
tp231
a(I3
I6
I1
I1
I2
I9
I5
I2
tp232
a(I-2
I0
I-6
I-3
I-2
I3
I-3
I2
tp233
a(I-3
I-2
I0
I-3
I-3
I-4
I-3
I-6
tp234
a(I-1
I-6
I-3
I1
I-1
I-4
I0
I-3
tp235
a(I2
I8
I1
I2
I2
I4
I-4
I3
tp236
a(I1
I3
I2
I0
I-1
I-5
I-2
I-5
tp237
a(I1
I-5
I-2
I0
I0
I0
I2
I-1
tp238
a(I-1
I1
I-1
I1
I-3
I2
I-2
I-2
tp239
a(I0
I-3
I-1
I-2
I-2
I2
I0
I2
tp240
a(I-3
I4
I0
I0
I0
I1
I0
I-11
tp241
a(I0
I-4
I0
I-1
I-1
I3
I-1
I0
tp242
a(I0
I4
I-1
I-1
I-1
I-3
I1
I-3
tp243
a(I0
I0
I-3
I-2
I-2
I-14
I-2
I4
tp244
a(I-2
I-11
I1
I-2
I-2
I7
I0
I1
tp245
a(I1
I-5
I-4
I2
I4
I-3
I-1
I-3
tp246
a(I-2
I-3
I-1
I-1
I-1
I-5
I-7
I-3
tp247
a(I-1
I1
I-3
I1
I1
I10
I14
I2
tp248
a(I3
I-1
I-1
I-2
I0
I7
I-1
I4
tp249
a(I-3
I3
I2
I1
I-2
I-13
I-3
I-12
tp250
a(I3
I4
I1
I1
I2
I7
I0
I3
tp251
a(I-2
I-16
I-1
I-1
I-2
I-7
I-8
I-1
tp252
a(I-2
I2
I-1
I-1
I-1
I-1
I-1
I-3
tp253
a(I1
I1
I-3
I-1
I1
I6
I3
I2
tp254
a(I-3
I-2
I0
I1
I2
I-9
I2
I-5
tp255
a(I1
I0
I1
I0
I-1
I3
I0
I-1
tp256
a(I0
I0
I-1
I0
I0
I-1
I1
I2
tp257
a(I-1
I11
I0
I0
I-1
I0
I1
I2
tp258
a(I0
I-14
I-1
I-2
I-1
I1
I-1
I-3
tp259
a(I-1
I-6
I-2
I1
I1
I-11
I-4
I-1
tp260
a(I0
I5
I0
I2
I-1
I15
I1
I0
tp261
a(I-1
I0
I1
I0
I0
I6
I1
I3
tp262
a(I-4
I2
I2
I-1
I1
I-4
I2
I-4
tp263
a(I3
I8
I2
I-1
I-1
I-5
I-6
I2
tp264
a(I-5
I-1
I-1
I-1
I1
I-2
I-2
I-4
tp265
a(I-3
I-2
I-5
I-2
I-1
I1
I-2
I3
tp266
a(I4
I3
I1
I0
I0
I12
I15
I3
tp267
a(I-2
I-3
I-4
I-2
I0
I2
I-2
I-3
tp268
a(I-1
I3
I1
I-1
I-1
I-8
I-3
I1
tp269
a(I0
I2
I1
I-1
I0
I0
I-4
I-6
tp270
a(I0
I-2
I-2
I0
I-1
I-6
I-3
I3
tp271
a(I-1
I9
I2
I0
I-1
I1
I2
I-1
tp272
a(I1
I-12
I-4
I-1
I-2
I-8
I-7
I0
tp273
a(I-7
I-6
I0
I1
I3
I5
I6
I-14
tp274
a(I0
I5
I0
I-3
I-2
I-3
I-6
I7
tp275
a(I-1
I-3
I1
I0
I0
I7
I-3
I-3
tp276
a(I3
I-3
I1
I-1
I0
I5
I11
I7
tp277
a(I-4
I-6
I-2
I-1
I-1
I-4
I-3
I-8
tp278
a(I0
I2
I3
I0
I-2
I-1
I-1
I-4
tp279
a(I-3
I-1
I0
I-3
I0
I-3
I0
I-1
tp280
a(I1
I0
I1
I0
I0
I2
I-5
I0
tp281
a(I3
I8
I-2
I-1
I-1
I-1
I1
I6
tp282
a(I0
I-8
I-4
I-1
I0
I0
I-2
I0
tp283
a(I-1
I-3
I-4
I-1
I-2
I-4
I-5
I-1
tp284
a(I-1
I3
I0
I1
I2
I0
I-1
I-2
tp285
a(I3
I0
I1
I-2
I-2
I1
I1
I2
tp286
a(I-3
I3
I-1
I-1
I-2
I2
I-2
I0
tp287
a(I2
I1
I3
I0
I-2
I-20
I-4
I-1
tp288
a(I-4
I-15
I-5
I-1
I3
I23
I6
I-2
tp289
a(I1
I4
I0
I-1
I0
I-5
I-2
I3
tp290
a(I2
I-8
I-3
I1
I0
I1
I0
I1
tp291
a(I1
I10
I3
I-1
I0
I-3
I-2
I-2
tp292
a(I-4
I4
I-1
I-3
I-3
I-6
I-3
I-1
tp293
a(I4
I-7
I3
I2
I2
I9
I0
I3
tp294
a(I-6
I-4
I-1
I-1
I-1
I6
I1
I-3
tp295
a(I1
I2
I0
I0
I-1
I-15
I-2
I1
tp296
a(I-3
I-3
I-1
I1
I-1
I-6
I-6
I-5
tp297
a(I0
I2
I0
I-1
I-2
I2
I-2
I10
tp298
a(I-2
I-12
I-1
I-1
I-2
I-7
I-2
I-10
tp299
a(I0
I11
I-1
I0
I0
I11
I4
I5
tp300
a(I0
I12
I1
I-2
I0
I0
I0
I3
tp301
a(I-1
I-4
I-2
I-1
I-1
I-15
I-3
I-2
tp302
a(I2
I5
I0
I1
I0
I6
I-2
I2
tp303
a(I-2
I-13
I-3
I0
I0
I13
I4
I-1
tp304
a(I3
I8
I3
I0
I-1
I-7
I0
I0
tp305
a(I1
I1
I-1
I-1
I-1
I1
I0
I-1
tp306
a(I-4
I2
I0
I-2
I-3
I-12
I-9
I0
tp307
a(I-1
I-10
I-2
I0
I2
I8
I4
I-1
tp308
a(I0
I2
I0
I0
I-1
I1
I-1
I-1
tp309
a(I-1
I2
I1
I-1
I-2
I-4
I-2
I-3
tp310
a(I2
I3
I0
I-1
I1
I1
I4
I1
tp311
a(I0
I-2
I-1
I0
I1
I4
I2
I0
tp312
a(I-3
I-3
I1
I1
I0
I-16
I-5
I-2
tp313
a(I-3
I-10
I-2
I-2
I0
I16
I3
I-1
tp314
a(I4
I11
I0
I0
I1
I0
I-2
I-1
tp315
a(I-1
I0
I-3
I1
I-1
I-8
I4
I-1
tp316
a(I-1
I-8
I-1
I0
I1
I16
I6
I0
tp317
a(I-1
I-7
I0
I1
I1
I-12
I-6
I4
tp318
a(I0
I5
I-1
I2
I-2
I17
I6
I3
tp319
a(I-4
I4
I1
I0
I-2
I-10
I-5
I-10
tp320
a(I1
I-1
I-6
I1
I2
I9
I1
I0
tp321
a(I-2
I0
I0
I0
I-1
I-5
I0
I-3
tp322
a(I-5
I-3
I2
I-3
I-2
I-2
I-1
I-2
tp323
a(I0
I-1
I0
I-2
I-1
I-6
I-7
I-1
tp324
a(I1
I0
I0
I0
I-2
I-5
I4
I-1
tp325
a(I0
I8
I-1
I1
I2
I6
I-2
I-2
tp326
a(I1
I6
I-1
I0
I-1
I-1
I0
I1
tp327
a(I5
I-22
I-5
I0
I-1
I-8
I-3
I5
tp328
a(I-5
I7
I-1
I-3
I-6
I-21
I-10
I-6
tp329
a(I1
I-9
I2
I1
I4
I26
I10
I2
tp330
a(I2
I7
I0
I1
I1
I-5
I-2
I9
tp331
a(I-1
I7
I1
I-2
I-1
I2
I-5
I-14
tp332
a(I3
I-2
I1
I-1
I-1
I-5
I2
I3
tp333
a(I-1
I-8
I-2
I-2
I-5
I-1
I5
I0
tp334
a(I0
I1
I1
I-1
I3
I12
I5
I0
tp335
a(I1
I7
I0
I0
I0
I-3
I-3
I5
tp336
a(I0
I-3
I0
I0
I-2
I-8
I-4
I-3
tp337
a(I-3
I2
I1
I2
I-3
I-12
I-5
I-5
tp338
a(I-1
I-5
I-2
I0
I0
I-2
I0
I-1
tp339
a(I-2
I-2
I-1
I-1
I0
I2
I1
I2
tp340
a(I1
I2
I1
I-2
I0
I8
I2
I-4
tp341
a(I-2
I8
I-2
I-4
I0
I-4
I-2
I6
tp342
a(I1
I-7
I-4
I0
I-1
I-13
I0
I-2
tp343
a(I-2
I7
I3
I-1
I1
I8
I-1
I1
tp344
a(I1
I-10
I-5
I2
I0
I2
I0
I0
tp345
a(I-1
I3
I0
I-2
I0
I11
I3
I-5
tp346
a(I-4
I-1
I-1
I0
I-4
I-14
I-7
I-2
tp347
a(I0
I-1
I-2
I-1
I-2
I-14
I-3
I1
tp348
a(I2
I3
I0
I-1
I-1
I12
I13
I3
tp349
a(I3
I0
I-1
I0
I0
I4
I-2
I4
tp350
a(I-3
I4
I1
I0
I-1
I-2
I0
I-5
tp351
a(I-2
I-2
I-2
I-2
I-1
I-1
I-1
I1
tp352
a(I-1
I-2
I1
I-1
I-1
I-10
I-8
I-7
tp353
a(I0
I-8
I-4
I-1
I-3
I-11
I-3
I0
tp354
a(I5
I2
I1
I0
I1
I5
I3
I4
tp355
a(I-4
I1
I2
I0
I0
I5
I-1
I-3
tp356
a(I-1
I-4
I-2
I1
I1
I1
I-3
I-4
tp357
a(I0
I7
I2
I-1
I0
I-25
I0
I3
tp358
a(I0
I-4
I-3
I-1
I-1
I13
I-2
I0
tp359
a(I-1
I-10
I-2
I-1
I0
I-11
I-4
I0
tp360
a(I1
I-2
I-1
I-1
I0
I14
I3
I5
tp361
a(I-6
I13
I0
I2
I0
I2
I-7
I-13
tp362
a(I-2
I-5
I-2
I-1
I0
I-11
I-1
I-2
tp363
a(I-1
I2
I0
I-2
I-3
I4
I4
I1
tp364
a(I0
I8
I3
I1
I-2
I-13
I-7
I-3
tp365
a(I4
I-11
I-3
I-1
I-1
I-2
I1
I7
tp366
a(I0
I-7
I0
I0
I1
I2
I-2
I-3
tp367
a(I-6
I0
I-1
I-2
I-3
I6
I-1
I-2
tp368
a(I16
I6
I1
I0
I3
I-2
I9
I8
tp369
a(I-4
I-1
I0
I-2
I-3
I3
I1
I-5
tp370
a(I-1
I-2
I0
I-1
I-2
I0
I-1
I1
tp371
a(I2
I-5
I-2
I-1
I1
I1
I-1
I2
tp372
a(I-3
I1
I1
I3
I0
I-6
I-5
I-2
tp373
a(I0
I-4
I0
I0
I1
I9
I1
I0
tp374
a(I1
I1
I-2
I-2
I-1
I-9
I0
I-1
tp375
a(I0
I-5
I0
I2
I3
I8
I1
I-1
tp376
a(I-7
I4
I1
I-2
I-4
I0
I-3
I-1
tp377
a(I0
I-7
I-4
I-1
I-1
I-6
I0
I-1
tp378
a(I0
I4
I2
I0
I-1
I3
I-2
I2
tp379
a(I-1
I-16
I4
I2
I-2
I-6
I0
I0
tp380
a(I-3
I10
I-2
I-3
I0
I16
I-3
I-9
tp381
a(I-1
I6
I-2
I-1
I-4
I-7
I-2
I-1
tp382
a(I-2
I0
I-4
I-2
I-1
I9
I2
I-4
tp383
a(I5
I4
I-2
I1
I3
I-12
I4
I6
tp384
a(I-1
I-13
I0
I1
I2
I-6
I0
I2
tp385
a(I-3
I1
I1
I-2
I-3
I-3
I-3
I-5
tp386
a(I0
I5
I3
I0
I0
I7
I1
I1
tp387
a(I-1
I2
I-1
I-1
I-2
I-1
I-5
I-4
tp388
a(I-4
I-2
I-2
I-1
I-4
I-6
I0
I6
tp389
a(I5
I10
I2
I0
I0
I-4
I1
I-4
tp390
a(I-3
I-17
I-4
I-1
I2
I15
I-1
I-4
tp391
a(I0
I-3
I-2
I-1
I0
I9
I9
I4
tp392
a(I-3
I-11
I2
I-1
I0
I-6
I2
I-2
tp393
a(I-2
I-7
I-3
I0
I-1
I-3
I-3
I-3
tp394
a(I0
I13
I0
I0
I-2
I-17
I2
I-1
tp395
a(I-2
I6
I1
I-2
I-3
I5
I-2
I-5
tp396
a(I-1
I-8
I-4
I-1
I2
I2
I-1
I-1
tp397
a(I1
I-4
I3
I-2
I2
I5
I0
I4
tp398
a(I1
I2
I2
I1
I0
I-2
I-1
I6
tp399
a(I1
I-5
I-2
I1
I0
I2
I3
I2
tp400
a(I-5
I8
I1
I-3
I-2
I-5
I-4
I-9
tp401
a(I-4
I-5
I-2
I-2
I0
I-1
I-2
I0
tp402
a(I0
I-2
I2
I3
I0
I5
I1
I2
tp403
a(I0
I6
I-1
I2
I-2
I-1
I4
I1
tp404
a(I3
I-7
I-2
I0
I-1
I-1
I0
I3
tp405
a(I-1
I3
I0
I0
I-5
I-7
I-2
I-1
tp406
a(I0
I-9
I-2
I-1
I1
I0
I-2
I-1
tp407
a(I1
I8
I-1
I-2
I-3
I11
I-4
I1
tp408
a(I-7
I-4
I-2
I0
I1
I5
I6
I-11
tp409
a(I4
I1
I-3
I0
I-2
I-11
I-1
I7
tp410
a(I-3
I6
I1
I-2
I-3
I-6
I-3
I-2
tp411
a(I0
I-2
I0
I0
I-1
I-4
I-3
I-1
tp412
a(I-1
I-1
I-1
I-3
I-1
I6
I-3
I3
tp413
a(I0
I-1
I2
I1
I3
I9
I2
I1
tp414
a(I0
I0
I-3
I-2
I-1
I0
I5
I-1
tp415
a(I0
I-2
I-4
I-2
I0
I-6
I-5
I1
tp416
a(I-6
I7
I-1
I1
I-1
I7
I0
I-10
tp417
a(I1
I1
I0
I0
I0
I3
I6
I2
tp418
a(I-2
I-3
I2
I-2
I0
I-7
I-2
I-2
tp419
a(I-1
I-2
I-1
I-1
I0
I-4
I0
I-3
tp420
a(I3
I-1
I-1
I0
I-2
I-12
I-8
I5
tp421
a(I-2
I0
I-4
I0
I-1
I0
I-2
I-2
tp422
a(I-2
I-3
I-4
I-1
I1
I20
I4
I-3
tp423
a(I0
I14
I1
I0
I-2
I-16
I-7
I1
tp424
a(I4
I6
I0
I0
I-1
I7
I1
I3
tp425
a(I-8
I-10
I0
I0
I-3
I-4
I-2
I-2
tp426
a(I7
I3
I0
I1
I3
I1
I4
I-5
tp427
a(I-1
I-4
I-2
I-2
I1
I-1
I-2
I-3
tp428
a(I-1
I-3
I-1
I1
I2
I-1
I-3
I4
tp429
a(I2
I7
I0
I1
I0
I-4
I-1
I-1
tp430
a(I-3
I-2
I-4
I-1
I-3
I-6
I-5
I1
tp431
a(I-3
I-4
I0
I1
I2
I7
I2
I-2
tp432
a(I-2
I-2
I-2
I0
I-1
I-5
I0
I0
tp433
a(I0
I4
I-1
I-2
I-2
I5
I-2
I-1
tp434
a(I-1
I-10
I2
I0
I-1
I-5
I-2
I-1
tp435
a(I-2
I-1
I-1
I-2
I0
I-3
I2
I-2
tp436
a(I1
I5
I-3
I-1
I0
I-13
I-4
I6
tp437
a(I-1
I-4
I0
I0
I3
I24
I10
I-3
tp438
a(I-5
I1
I-2
I-1
I-2
I-3
I-5
I-3
tp439
a(I2
I-4
I-1
I0
I-3
I7
I4
I0
tp440
a(I-1
I-12
I1
I-1
I-3
I-7
I-5
I0
tp441
a(I4
I3
I-2
I1
I1
I-3
I3
I4
tp442
a(I-1
I5
I-4
I-2
I-4
I-9
I-4
I-1
tp443
a(I1
I-7
I4
I1
I1
I2
I0
I1
tp444
a(I-5
I-3
I0
I0
I-1
I0
I3
I0
tp445
a(I3
I2
I3
I-1
I-2
I-2
I-3
I-8
tp446
a(I1
I0
I-4
I-1
I0
I6
I2
I3
tp447
a(I-2
I-5
I-1
I1
I2
I-19
I-6
I-3
tp448
a(I-3
I3
I0
I-1
I-2
I4
I1
I2
tp449
a(I-1
I-2
I-2
I0
I2
I-3
I1
I0
tp450
a(I0
I1
I-1
I0
I-2
I-1
I0
I-1
tp451
a(I1
I-2
I-3
I0
I-3
I4
I0
I2
tp452
a(I0
I2
I2
I-2
I-1
I7
I-2
I-2
tp453
a(I-1
I-3
I0
I-1
I1
I-5
I-2
I0
tp454
a(I1
I-12
I-1
I-2
I1
I-7
I-3
I1
tp455
a(I0
I14
I1
I1
I1
I5
I4
I-3
tp456
a(I0
I9
I-1
I-2
I-2
I9
I2
I2
tp457
a(I0
I-2
I-2
I-1
I-3
I-9
I-9
I1
tp458
a(I0
I-3
I3
I1
I1
I-7
I-1
I3
tp459
a(I-4
I-2
I1
I-3
I-1
I1
I-1
I-8
tp460
a(I2
I2
I-1
I0
I-2
I-1
I-1
I2
tp461
a(I-1
I1
I2
I0
I0
I-1
I4
I-6
tp462
a(I-6
I-6
I-3
I-1
I-1
I3
I-5
I-4
tp463
a(I-1
I4
I0
I1
I-2
I-4
I2
I5
tp464
a(I1
I-2
I-4
I-1
I1
I4
I0
I-7
tp465
a(I0
I1
I-2
I-4
I-4
I-16
I-9
I2
tp466
a(I-3
I-4
I-2
I-2
I-4
I-4
I-1
I-2
tp467
a(I-1
I-16
I1
I-1
I1
I2
I-3
I-2
tp468
a(I0
I-3
I-3
I-1
I-3
I-14
I-5
I-3
tp469
a(I-1
I-11
I1
I1
I3
I23
I9
I3
tp470
a(I2
I18
I0
I-1
I-1
I-8
I-2
I-1
tp471
a(I-2
I8
I-2
I-2
I-2
I-4
I-1
I0
tp472
a(I-1
I-9
I-1
I0
I-1
I-5
I-5
I-1
tp473
a(I-3
I-2
I0
I0
I0
I-14
I-1
I0
tp474
a(I-1
I-6
I-2
I-1
I-2
I9
I2
I1
tp475
a(I2
I1
I0
I-2
I0
I3
I1
I1
tp476
a(I-1
I2
I1
I-1
I0
I0
I2
I0
tp477
a(I-4
I0
I-2
I-1
I-1
I1
I-2
I-2
tp478
a(I-1
I-3
I-1
I1
I1
I-1
I2
I0
tp479
a(I1
I6
I-3
I2
I-1
I0
I-1
I-1
tp480
a(I4
I2
I1
I2
I2
I-4
I1
I8
tp481
a(I-4
I9
I-1
I-3
I-4
I-5
I-3
I-4
tp482
a(I2
I-18
I-3
I0
I3
I7
I1
I8
tp483
a(I-1
I10
I3
I-4
I-2
I5
I-5
I0
tp484
a(I-3
I-7
I-4
I-2
I0
I3
I8
I0
tp485
a(I4
I4
I2
I0
I2
I2
I-3
I0
tp486
a(I-2
I4
I2
I0
I-1
I-15
I-3
I-3
tp487
a(I-1
I10
I0
I2
I1
I9
I4
I2
tp488
a(I-2
I-2
I-2
I-3
I-4
I-12
I-5
I-4
tp489
a(I-1
I-3
I0
I0
I-1
I14
I-2
I-1
tp490
a(I-1
I5
I3
I0
I0
I10
I12
I2
tp491
a(I1
I-12
I-3
I0
I-1
I-5
I0
I0
tp492
a(I-2
I3
I-2
I0
I2
I-2
I-1
I-2
tp493
a(I1
I-2
I-1
I-1
I-2
I0
I0
I2
tp494
a(I-2
I-2
I2
I-1
I-2
I0
I-5
I-2
tp495
a(I0
I13
I0
I-1
I0
I1
I0
I1
tp496
a(I-2
I-13
I-2
I-1
I0
I4
I-2
I-11
tp497
a(I1
I-1
I0
I0
I1
I-11
I3
I2
tp498
a(I3
I9
I2
I-1
I-1
I0
I-1
I-1
tp499
a(I-5
I-5
I-1
I-2
I-1
I-4
I-3
I-3
tp500
a(I-3
I8
I0
I-2
I-1
I0
I-1
I-7
tp501
a(I1
I9
I0
I0
I1
I7
I-1
I3
tp502
a(I-1
I2
I-1
I0
I0
I8
I0
I-1
tp503
a(I-1
I-3
I0
I-1
I-2
I-1
I-3
I-7
tp504
a(I0
I-12
I-1
I0
I-2
I-17
I-6
I6
tp505
a(I-1
I-9
I-3
I0
I-1
I4
I-4
I-2
tp506
a(I1
I4
I0
I-1
I0
I1
I7
I-3
tp507
a(I-1
I-11
I-3
I-1
I1
I11
I0
I2
tp508
a(I2
I5
I2
I0
I-2
I-3
I-5
I-1
tp509
a(I0
I-1
I1
I1
I1
I0
I9
I2
tp510
a(I-2
I0
I-1
I-2
I-4
I-1
I-6
I1
tp511
a(I-3
I-10
I0
I1
I0
I-1
I1
I1
tp512
a(I-1
I0
I1
I-1
I-3
I-11
I-4
I-3
tp513
a(I-2
I8
I1
I0
I0
I12
I-2
I0
tp514
a(I3
I2
I-1
I0
I2
I-3
I1
I0
tp515
a(I-2
I-3
I1
I-3
I-1
I-21
I-2
I-12
tp516
a(I2
I4
I1
I0
I3
I20
I6
I3
tp517
a(I0
I9
I2
I0
I-2
I-6
I-2
I0
tp518
a(I-6
I-22
I-3
I-1
I-1
I-4
I0
I-4
tp519
a(I0
I-12
I0
I0
I-2
I-3
I-1
I3
tp520
a(I1
I15
I0
I1
I1
I5
I3
I0
tp521
a(I1
I-13
I-5
I-1
I-2
I-8
I-4
I3
tp522
a(I2
I14
I3
I1
I0
I-4
I-5
I11
tp523
a(I-2
I-6
I-5
I0
I0
I2
I1
I-8
tp524
a(I-6
I-5
I0
I-1
I-1
I5
I-1
I-3
tp525
a(I1
I-4
I1
I1
I0
I7
I9
I1
tp526
a(I-2
I9
I-1
I-2
I-3
I-10
I-8
I-1
tp527
a(I1
I2
I-3
I0
I0
I4
I5
I4
tp528
a(I0
I-4
I0
I-1
I1
I-5
I-4
I-1
tp529
a(I-2
I-5
I-2
I-2
I-1
I-5
I-3
I-5
tp530
a(I1
I-3
I0
I-1
I1
I2
I0
I-4
tp531
a(I-1
I1
I-1
I0
I-1
I4
I-7
I0
tp532
a(I2
I-2
I1
I0
I3
I1
I8
I1
tp533
a(I0
I-11
I-3
I-1
I-2
I-11
I-4
I-1
tp534
a(I0
I11
I0
I0
I2
I19
I7
I1
tp535
a(I2
I13
I-3
I-4
I-3
I-3
I-1
I2
tp536
a(I-5
I-12
I-4
I-2
I-3
I-8
I-4
I-1
tp537
a(I0
I7
I-1
I0
I0
I-6
I-1
I0
tp538
a(I-2
I0
I1
I-1
I-2
I-5
I-2
I-4
tp539
a(I3
I-1
I-1
I0
I-3
I-3
I-3
I2
tp540
a(I-1
I-2
I2
I0
I-1
I9
I7
I2
tp541
a(I-2
I-1
I-2
I-2
I-2
I0
I-1
I-4
tp542
a(I-1
I-5
I-4
I-1
I-1
I-2
I-5
I-2
tp543
a(I-2
I0
I0
I0
I2
I3
I1
I3
tp544
a(I2
I4
I0
I0
I0
I-10
I-7
I-6
tp545
a(I0
I-1
I0
I0
I-1
I3
I-1
I0
tp546
a(I2
I-2
I0
I-2
I-1
I-1
I2
I6
tp547
a(I-5
I-11
I-4
I-1
I-1
I0
I-1
I-16
tp548
a(I-1
I-8
I3
I-1
I-1
I6
I-1
I11
tp549
a(I-3
I5
I1
I-1
I1
I3
I3
I-4
tp550
a(I2
I13
I2
I0
I1
I8
I1
I-3
tp551
a(I0
I-1
I3
I2
I4
I3
I0
I5
tp552
a(I2
I-6
I-5
I1
I-2
I0
I2
I-2
tp553
a(I-3
I-3
I-2
I0
I-1
I-4
I-3
I1
tp554
a(I-4
I-17
I-2
I-2
I-2
I-4
I-2
I-2
tp555
a(I1
I3
I1
I2
I1
I-2
I5
I1
tp556
a(I1
I8
I0
I0
I0
I5
I1
I1
tp557
a(I2
I4
I-1
I0
I-1
I1
I-1
I3
tp558
a(I-2
I-1
I-2
I0
I-2
I-10
I-4
I-7
tp559
a(I1
I-1
I0
I1
I0
I0
I-2
I5
tp560
a(I0
I-1
I-2
I-2
I-1
I-1
I-2
I0
tp561
a(I-1
I-3
I0
I-2
I-1
I-2
I3
I-5
tp562
a(I-2
I1
I-1
I0
I-2
I-7
I-8
I-6
tp563
a(I2
I0
I3
I-1
I2
I22
I8
I5
tp564
a(I1
I6
I-1
I-2
I-2
I-2
I-2
I-2
tp565
a(I3
I6
I-1
I2
I0
I-1
I-4
I1
tp566
a(I-7
I-13
I-1
I0
I0
I-8
I-4
I-11
tp567
a(I-4
I15
I2
I-1
I-2
I-2
I-3
I-1
tp568
a(I-3
I2
I-3
I-1
I-1
I-4
I-3
I-4
tp569
a(I0
I-14
I-1
I-2
I-2
I5
I-1
I4
tp570
a(I3
I9
I-1
I-1
I-3
I-4
I0
I4
tp571
a(I-2
I0
I1
I-1
I-3
I6
I1
I-5
tp572
a(I-1
I-2
I2
I1
I0
I-17
I-6
I0
tp573
a(I0
I-2
I-4
I0
I-2
I3
I3
I-3
tp574
a(I1
I-1
I1
I2
I1
I0
I6
I4
tp575
a(I1
I-8
I0
I0
I-1
I-2
I1
I-1
tp576
a(I-2
I1
I-3
I-1
I0
I10
I2
I-1
tp577
a(I-1
I0
I-4
I0
I1
I-3
I-4
I0
tp578
a(I-2
I-6
I-2
I-2
I0
I0
I0
I-1
tp579
a(I1
I7
I2
I-1
I-1
I-16
I-6
I0
tp580
a(I-1
I8
I0
I-1
I1
I11
I7
I0
tp581
a(I-2
I0
I0
I-2
I-2
I-4
I-6
I-4
tp582
a(I0
I-9
I-4
I1
I1
I6
I5
I0
tp583
a(I-1
I0
I-3
I-2
I-3
I-19
I-8
I-2
tp584
a(I-1
I-5
I2
I0
I-2
I-4
I-3
I3
tp585
a(I-2
I-2
I0
I0
I0
I12
I3
I-7
tp586
a(I-2
I-3
I1
I-3
I-3
I2
I-3
I-4
tp587
a(I-2
I2
I-3
I0
I0
I-2
I1
I5
tp588
a(I1
I-3
I-2
I0
I0
I2
I-3
I-1
tp589
a(I-2
I2
I-1
I-2
I-2
I-21
I-11
I-9
tp590
a(I1
I2
I2
I0
I1
I-1
I5
I2
tp591
a(I-1
I-6
I-3
I2
I3
I19
I8
I-1
tp592
a(I-1
I-2
I-4
I0
I-1
I-5
I-4
I0
tp593
a(I1
I4
I2
I0
I0
I10
I1
I2
tp594
a(I1
I-1
I-1
I2
I3
I-3
I-7
I5
tp595
a(I-4
I-2
I1
I-2
I-2
I-13
I-4
I-7
tp596
a(I0
I-8
I1
I-1
I2
I2
I6
I1
tp597
a(I0
I5
I0
I-1
I-1
I-1
I-1
I1
tp598
a(I2
I5
I-5
I-2
I-3
I-9
I-4
I1
tp599
a(I0
I-10
I-2
I-1
I0
I22
I4
I1
tp600
a(I-1
I-3
I3
I1
I1
I-7
I-4
I-5
tp601
a(I0
I0
I4
I0
I0
I-13
I-1
I0
tp602
a(I-2
I-5
I-1
I0
I1
I17
I4
I3
tp603
a(I7
I1
I-1
I0
I-2
I-12
I-3
I-3
tp604
a(I-7
I-2
I-4
I-2
I-3
I2
I-3
I-8
tp605
a(I0
I2
I-3
I0
I0
I9
I5
I8
tp606
a(I-1
I7
I2
I1
I0
I-2
I0
I-3
tp607
a(I-3
I-1
I-1
I-2
I0
I-2
I-4
I-5
tp608
a(I3
I1
I3
I0
I1
I3
I5
I3
tp609
a(I-2
I-10
I-1
I-2
I-2
I-9
I-5
I1
tp610
a(I0
I-5
I2
I0
I-1
I1
I-1
I-1
tp611
a(I-1
I1
I-2
I0
I0
I-4
I-2
I1
tp612
a(I1
I8
I0
I-1
I0
I0
I-1
I6
tp613
a(I2
I-4
I0
I-1
I0
I10
I-2
I-7
tp614
a(I-4
I-1
I-3
I-1
I0
I-1
I6
I2
tp615
a(I-1
I-3
I1
I0
I-1
I-3
I-1
I-2
tp616
a(I0
I12
I-1
I0
I-2
I-7
I-4
I0
tp617
a(I0
I-10
I-5
I0
I2
I7
I-1
I0
tp618
a(I1
I1
I2
I-1
I-1
I1
I0
I-3
tp619
a(I3
I2
I2
I-1
I-2
I-3
I-3
I2
tp620
a(I-7
I-18
I-3
I-1
I-3
I-7
I-1
I-5
tp621
a(I3
I10
I2
I3
I4
I10
I2
I3
tp622
a(I1
I12
I0
I-1
I-2
I-3
I-2
I-3
tp623
a(I-2
I-2
I-1
I-1
I-1
I-9
I0
I6
tp624
a(I2
I-3
I-1
I0
I-1
I8
I-2
I-9
tp625
a(I-1
I-11
I-2
I0
I-2
I-5
I10
I3
tp626
a(I0
I-5
I3
I1
I1
I7
I2
I0
tp627
a(I-2
I4
I2
I-1
I-1
I-7
I-4
I-1
tp628
a(I1
I7
I0
I-1
I0
I9
I5
I2
tp629
a(I-2
I-3
I1
I0
I-2
I-6
I-5
I-1
tp630
a(I1
I3
I-3
I0
I0
I-3
I6
I2
tp631
aa(lp632
(I-1
I-2
I0
I0
I-3
I-9
I-5
I-4
tp633
a(I-1
I-2
I1
I0
I0
I-3
I1
I6
tp634
a(I3
I-4
I-4
I-3
I-3
I-5
I-4
I1
tp635
a(I-2
I2
I3
I-4
I0
I-4
I-2
I-1
tp636
a(I-5
I3
I2
I1
I2
I11
I8
I-5
tp637
a(I1
I13
I-1
I-1
I-3
I-11
I-5
I-5
tp638
a(I-1
I-13
I-6
I0
I0
I13
I3
I8
tp639
a(I3
I-5
I-2
I2
I1
I-9
I-2
I2
tp640
a(I3
I0
I-3
I-2
I-1
I-10
I-2
I4
tp641
a(I-3
I3
I2
I1
I1
I13
I0
I-5
tp642
a(I-1
I-1
I2
I-1
I-4
I-6
I-1
I2
tp643
a(I0
I7
I-1
I1
I-1
I4
I3
I1
tp644
a(I-3
I-6
I0
I-2
I-1
I-6
I-3
I3
tp645
a(I3
I-5
I1
I0
I-1
I-4
I0
I-6
tp646
a(I6
I5
I-1
I-1
I0
I-5
I-4
I0
tp647
a(I-3
I-3
I2
I-1
I-3
I-1
I-8
I-5
tp648
a(I4
I5
I2
I3
I5
I27
I17
I7
tp649
a(I-1
I-4
I-3
I-1
I-1
I-7
I-1
I1
tp650
a(I-7
I3
I2
I0
I0
I-2
I-1
I-4
tp651
a(I1
I0
I-1
I-1
I-2
I-7
I-2
I0
tp652
a(I-3
I-8
I0
I-1
I-2
I4
I-2
I-6
tp653
a(I1
I-4
I-2
I0
I3
I8
I3
I-1
tp654
a(I-2
I5
I2
I0
I0
I-18
I-1
I0
tp655
a(I-2
I3
I-2
I-1
I-1
I3
I-1
I-2
tp656
a(I-2
I-2
I0
I-3
I-1
I-4
I-3
I-1
tp657
a(I1
I-4
I-2
I0
I2
I8
I0
I1
tp658
a(I-5
I-9
I0
I0
I-2
I-4
I-2
I-7
tp659
a(I2
I5
I1
I1
I0
I10
I4
I2
tp660
a(I2
I10
I2
I0
I-2
I-13
I-3
I-2
tp661
a(I-1
I-5
I-1
I-1
I-1
I0
I-2
I6
tp662
a(I-2
I2
I1
I0
I1
I3
I7
I1
tp663
a(I-1
I-16
I0
I-2
I0
I8
I1
I0
tp664
a(I0
I4
I0
I0
I0
I-21
I-2
I-10
tp665
a(I2
I15
I0
I-3
I-1
I16
I2
I5
tp666
a(I-1
I-3
I-1
I-2
I1
I-3
I2
I-1
tp667
a(I-2
I-7
I-3
I-2
I-2
I-2
I-2
I-2
tp668
a(I-1
I4
I2
I-2
I-2
I4
I-5
I-1
tp669
a(I-1
I-7
I-4
I0
I-1
I-9
I0
I-3
tp670
a(I5
I3
I5
I2
I0
I1
I-4
I4
tp671
a(I1
I3
I-1
I-1
I0
I-2
I4
I-3
tp672
a(I-1
I-4
I-2
I-3
I-1
I4
I-3
I4
tp673
a(I1
I-5
I0
I1
I-1
I-4
I-2
I-1
tp674
a(I-5
I-7
I-3
I-3
I-2
I4
I0
I-4
tp675
a(I2
I8
I0
I1
I1
I0
I-3
I1
tp676
a(I3
I1
I-2
I0
I2
I3
I-2
I2
tp677
a(I-3
I-2
I-2
I-1
I0
I-2
I1
I-2
tp678
a(I2
I0
I1
I-1
I-1
I-3
I-3
I2
tp679
a(I2
I-3
I0
I-1
I0
I-4
I-2
I-1
tp680
a(I-1
I-5
I-4
I-1
I-1
I4
I1
I0
tp681
a(I2
I-5
I3
I0
I1
I2
I0
I1
tp682
a(I0
I-2
I1
I0
I-1
I-2
I3
I-1
tp683
a(I-1
I3
I-6
I1
I-4
I0
I-2
I-1
tp684
a(I-1
I3
I0
I0
I-1
I2
I1
I0
tp685
a(I-1
I-5
I-1
I1
I-2
I-21
I-6
I0
tp686
a(I-1
I-3
I2
I0
I0
I5
I-1
I-7
tp687
a(I-2
I-6
I-1
I-2
I0
I-1
I-2
I1
tp688
a(I-1
I1
I-2
I-1
I-1
I2
I-1
I1
tp689
a(I-2
I-3
I-1
I-3
I0
I4
I0
I-3
tp690
a(I4
I11
I0
I2
I1
I-7
I6
I6
tp691
a(I-1
I3
I2
I-1
I0
I2
I3
I-6
tp692
a(I-2
I-6
I0
I0
I1
I4
I-1
I8
tp693
a(I1
I-1
I-3
I-1
I-2
I0
I-3
I3
tp694
a(I-1
I-1
I-3
I-2
I-2
I-2
I-4
I-2
tp695
a(I0
I1
I-1
I0
I-1
I-2
I-2
I2
tp696
a(I-1
I-5
I2
I1
I0
I-6
I2
I-1
tp697
a(I-2
I-6
I-2
I1
I-1
I-6
I-2
I-4
tp698
a(I-1
I-3
I2
I0
I2
I32
I3
I-7
tp699
a(I1
I-3
I-2
I-1
I0
I-1
I9
I5
tp700
a(I0
I10
I-1
I-1
I-2
I0
I-5
I-3
tp701
a(I3
I-8
I-2
I0
I-1
I-12
I2
I1
tp702
a(I-2
I-2
I-2
I-1
I-2
I-11
I-5
I-1
tp703
a(I-4
I0
I3
I0
I1
I5
I-2
I-2
tp704
a(I0
I4
I-2
I0
I-1
I-8
I1
I-1
tp705
a(I-1
I2
I1
I-2
I-2
I13
I5
I0
tp706
a(I1
I1
I-3
I0
I-1
I-4
I-4
I1
tp707
a(I0
I-2
I0
I-1
I2
I6
I5
I1
tp708
a(I1
I-6
I-3
I-1
I-2
I-3
I-1
I0
tp709
a(I-6
I3
I1
I-2
I-2
I-5
I-6
I-2
tp710
a(I0
I4
I-2
I-1
I0
I0
I0
I3
tp711
a(I0
I-11
I-3
I0
I-2
I-4
I-1
I-6
tp712
a(I-1
I2
I-1
I-1
I-1
I-1
I-4
I-2
tp713
a(I0
I2
I0
I1
I1
I13
I13
I1
tp714
a(I0
I1
I-1
I-3
I-3
I2
I-4
I-1
tp715
a(I5
I3
I0
I2
I2
I-15
I-1
I5
tp716
a(I-5
I-3
I-1
I-1
I-1
I-4
I-4
I-4
tp717
a(I-4
I-8
I-1
I-1
I-2
I-3
I-4
I-12
tp718
a(I0
I0
I-1
I-1
I1
I-4
I-2
I3
tp719
a(I1
I2
I0
I-2
I-2
I7
I-4
I1
tp720
a(I-1
I1
I-1
I-1
I-1
I-1
I-1
I-3
tp721
a(I1
I3
I2
I-1
I-1
I-4
I0
I2
tp722
a(I-1
I-1
I1
I0
I-1
I2
I1
I0
tp723
a(I-2
I1
I-2
I0
I0
I-6
I-3
I-4
tp724
a(I-2
I-4
I-1
I0
I-2
I5
I0
I-1
tp725
a(I2
I18
I0
I0
I-1
I5
I2
I1
tp726
a(I-3
I1
I-2
I-1
I-3
I-11
I-6
I-7
tp727
a(I1
I-4
I0
I-1
I1
I3
I3
I8
tp728
a(I-3
I3
I0
I-1
I-1
I-8
I1
I-5
tp729
a(I0
I-1
I-2
I-1
I-1
I4
I-7
I1
tp730
a(I-1
I-1
I2
I1
I0
I3
I7
I-1
tp731
a(I-1
I5
I0
I1
I-1
I6
I-1
I-4
tp732
a(I5
I1
I2
I-1
I-3
I3
I2
I1
tp733
a(I-2
I-11
I-3
I-1
I0
I-8
I-4
I-2
tp734
a(I1
I-1
I-3
I-1
I1
I-11
I-5
I0
tp735
a(I0
I0
I-1
I-1
I-4
I-4
I-5
I0
tp736
a(I1
I-5
I1
I0
I1
I2
I1
I3
tp737
a(I0
I6
I4
I-1
I-1
I3
I-2
I0
tp738
a(I1
I-15
I-4
I2
I0
I1
I1
I2
tp739
a(I-4
I4
I0
I-1
I1
I-2
I0
I-3
tp740
a(I4
I12
I-3
I0
I-1
I4
I0
I1
tp741
a(I-2
I6
I1
I-2
I0
I-8
I0
I-11
tp742
a(I0
I1
I0
I-1
I0
I11
I3
I1
tp743
a(I-2
I-7
I-3
I0
I-2
I-8
I-1
I-2
tp744
a(I-1
I-2
I1
I0
I4
I18
I1
I0
tp745
a(I2
I-3
I-2
I0
I-2
I-7
I-3
I3
tp746
a(I-1
I4
I-2
I-1
I-2
I-5
I-4
I6
tp747
a(I-2
I1
I-1
I-1
I-1
I3
I-1
I-14
tp748
a(I0
I-7
I-2
I1
I-2
I-4
I-1
I2
tp749
a(I-1
I4
I0
I0
I1
I10
I-1
I5
tp750
a(I0
I5
I4
I-1
I1
I-10
I2
I2
tp751
a(I-1
I-9
I-6
I-1
I-1
I-8
I-5
I4
tp752
a(I-3
I4
I0
I-1
I-1
I-1
I2
I4
tp753
a(I-1
I-3
I-2
I-1
I-1
I0
I-2
I-5
tp754
a(I-2
I-7
I0
I-1
I-2
I1
I-5
I-4
tp755
a(I3
I12
I5
I1
I0
I1
I2
I3
tp756
a(I-2
I2
I-6
I-3
I-1
I-7
I-1
I-4
tp757
a(I1
I-5
I1
I0
I-2
I4
I2
I1
tp758
a(I0
I-3
I-1
I-1
I-2
I-1
I5
I-1
tp759
a(I-3
I-2
I0
I-1
I1
I-10
I-9
I-4
tp760
a(I-1
I-5
I0
I0
I1
I17
I9
I-1
tp761
a(I1
I5
I-1
I1
I-1
I-6
I-5
I2
tp762
a(I3
I-3
I-3
I-2
I0
I0
I-3
I7
tp763
a(I-4
I4
I2
I-2
I-1
I6
I-2
I-5
tp764
a(I0
I-4
I-2
I-1
I-2
I-31
I-10
I-4
tp765
a(I-2
I-2
I-1
I0
I1
I0
I2
I2
tp766
a(I2
I-1
I-3
I0
I0
I3
I2
I-6
tp767
a(I1
I0
I1
I-1
I-1
I5
I-3
I4
tp768
a(I0
I6
I0
I0
I2
I6
I1
I0
tp769
a(I1
I-12
I3
I0
I0
I-4
I2
I-3
tp770
a(I1
I-8
I-3
I-1
I-1
I-1
I-5
I0
tp771
a(I-5
I4
I0
I-2
I0
I3
I3
I-2
tp772
a(I1
I3
I2
I-2
I-2
I-1
I-1
I-5
tp773
a(I-1
I-7
I-2
I1
I0
I-4
I-3
I1
tp774
a(I-1
I0
I0
I-1
I0
I3
I-1
I0
tp775
a(I1
I-5
I-2
I-1
I-2
I-7
I-5
I-2
tp776
a(I0
I-3
I0
I2
I2
I19
I15
I5
tp777
a(I2
I5
I2
I1
I-1
I-3
I1
I-4
tp778
a(I-1
I5
I1
I0
I1
I-8
I-2
I4
tp779
a(I2
I-4
I-2
I-1
I-3
I-8
I-3
I4
tp780
a(I-2
I-11
I-3
I-2
I-1
I-3
I-6
I1
tp781
a(I-2
I0
I1
I-1
I-1
I5
I1
I-5
tp782
a(I-4
I-1
I1
I-2
I-1
I-1
I0
I0
tp783
a(I1
I3
I3
I1
I0
I4
I3
I2
tp784
a(I3
I3
I-1
I1
I0
I-2
I-2
I-4
tp785
a(I-1
I-1
I-2
I0
I0
I1
I1
I4
tp786
a(I0
I1
I2
I0
I1
I-3
I-1
I-4
tp787
a(I-4
I-1
I-1
I1
I-2
I-2
I-2
I-2
tp788
a(I-1
I-2
I-1
I-2
I2
I4
I2
I1
tp789
a(I-1
I2
I-1
I-1
I1
I-5
I-2
I-2
tp790
a(I0
I-1
I-3
I0
I-2
I3
I-1
I-1
tp791
a(I1
I2
I0
I-1
I0
I4
I4
I1
tp792
a(I0
I4
I2
I0
I-2
I-15
I-4
I-2
tp793
a(I-3
I-5
I-2
I-1
I-3
I-6
I0
I-1
tp794
a(I0
I3
I-1
I-1
I1
I6
I1
I-1
tp795
a(I1
I-8
I-2
I0
I1
I-10
I-3
I0
tp796
a(I-2
I1
I0
I-1
I0
I10
I2
I-1
tp797
a(I1
I5
I-2
I-1
I-1
I-7
I-3
I3
tp798
a(I3
I2
I0
I0
I-1
I0
I-5
I-3
tp799
a(I1
I2
I-1
I1
I-1
I-2
I0
I0
tp800
a(I-1
I3
I-1
I1
I-3
I-4
I-4
I0
tp801
a(I-1
I-7
I0
I-2
I0
I-2
I-2
I-1
tp802
a(I-2
I-3
I-2
I0
I1
I3
I3
I10
tp803
a(I4
I2
I0
I0
I3
I10
I2
I-3
tp804
a(I-3
I-2
I-1
I-2
I-2
I-9
I-5
I-3
tp805
a(I0
I0
I0
I0
I-2
I8
I-2
I3
tp806
a(I-2
I16
I0
I0
I-1
I4
I-3
I-3
tp807
a(I3
I-6
I-1
I0
I1
I-4
I7
I-1
tp808
a(I-2
I-12
I-3
I-3
I-3
I-1
I-2
I2
tp809
a(I3
I4
I0
I2
I-1
I-13
I-2
I-1
tp810
a(I-1
I4
I1
I1
I-2
I7
I2
I-5
tp811
a(I-1
I-1
I0
I0
I-1
I3
I-3
I0
tp812
a(I-1
I5
I1
I0
I-1
I-9
I1
I-5
tp813
a(I-2
I-4
I-3
I-1
I2
I12
I6
I1
tp814
a(I-2
I-6
I-2
I-1
I-1
I-6
I-3
I-1
tp815
a(I-3
I-3
I-3
I-1
I-1
I0
I-2
I-2
tp816
a(I-1
I-5
I1
I1
I2
I2
I3
I1
tp817
a(I1
I9
I1
I-1
I2
I-3
I-1
I1
tp818
a(I0
I-6
I0
I-1
I-1
I-3
I1
I-1
tp819
a(I-1
I3
I-2
I-2
I-2
I1
I2
I3
tp820
a(I-3
I1
I-1
I-1
I-1
I1
I-6
I-3
tp821
a(I0
I6
I2
I2
I0
I3
I1
I-1
tp822
a(I-2
I-17
I-4
I0
I-2
I-3
I-1
I-1
tp823
a(I5
I10
I4
I-1
I-3
I-10
I-3
I-2
tp824
a(I-1
I-2
I-1
I0
I0
I22
I-1
I0
tp825
a(I-3
I-2
I-1
I-1
I-2
I-2
I3
I-2
tp826
a(I-1
I-4
I0
I0
I0
I-12
I-1
I0
tp827
a(I-3
I-2
I0
I0
I0
I0
I0
I1
tp828
a(I2
I-4
I1
I0
I-1
I-14
I-3
I1
tp829
a(I0
I0
I-5
I-2
I0
I12
I-1
I1
tp830
a(I0
I14
I2
I-1
I0
I-12
I-1
I0
tp831
a(I-2
I-11
I-4
I-2
I0
I5
I8
I1
tp832
a(I0
I6
I-1
I-1
I-2
I-9
I-4
I-4
tp833
a(I3
I0
I0
I0
I0
I3
I-1
I4
tp834
a(I-2
I-5
I-4
I0
I-2
I8
I7
I-2
tp835
a(I-3
I1
I2
I0
I0
I-2
I-3
I-2
tp836
a(I2
I-4
I-2
I-1
I0
I-2
I-1
I4
tp837
a(I0
I9
I0
I0
I-2
I-11
I-7
I-4
tp838
a(I1
I-3
I-1
I1
I0
I13
I8
I1
tp839
a(I-6
I-6
I0
I0
I-1
I7
I-2
I-4
tp840
a(I1
I19
I2
I-1
I0
I-1
I2
I2
tp841
a(I-4
I-9
I-5
I-1
I-1
I-4
I-1
I-3
tp842
a(I-2
I-1
I2
I-1
I-2
I0
I-4
I-2
tp843
a(I1
I1
I-3
I0
I1
I1
I1
I-8
tp844
a(I1
I-6
I4
I1
I1
I-3
I-1
I3
tp845
a(I-1
I-3
I-2
I-1
I-3
I3
I0
I-8
tp846
a(I2
I2
I0
I0
I0
I1
I1
I11
tp847
a(I-2
I-3
I-2
I0
I-2
I-3
I1
I-3
tp848
a(I-1
I-2
I0
I0
I-1
I-1
I-3
I-4
tp849
a(I1
I-3
I-2
I-1
I0
I-5
I-2
I-1
tp850
a(I-3
I-3
I-2
I1
I-1
I-5
I-1
I-7
tp851
a(I-2
I3
I0
I0
I1
I9
I-2
I-1
tp852
a(I-2
I-2
I-2
I-2
I-2
I-2
I6
I0
tp853
a(I-1
I3
I3
I-1
I0
I4
I-4
I1
tp854
a(I-2
I4
I-1
I-1
I-2
I-5
I0
I-5
tp855
a(I0
I-8
I-3
I0
I-1
I-2
I-2
I6
tp856
a(I0
I8
I-3
I-1
I0
I2
I-2
I-2
tp857
a(I-1
I-4
I-2
I-1
I-1
I-3
I3
I0
tp858
a(I3
I-7
I-2
I0
I1
I2
I-7
I5
tp859
a(I-4
I9
I4
I-1
I-2
I-4
I-1
I-6
tp860
a(I-4
I-13
I-1
I-1
I0
I-4
I-4
I-2
tp861
a(I-1
I-6
I-1
I0
I0
I3
I2
I3
tp862
a(I2
I7
I3
I-1
I1
I4
I-1
I-3
tp863
a(I0
I-14
I-4
I0
I-1
I-3
I-2
I7
tp864
a(I2
I-2
I-1
I-2
I-3
I-3
I-1
I-7
tp865
a(I1
I6
I0
I0
I4
I13
I8
I3
tp866
a(I-2
I-2
I0
I-1
I0
I-1
I3
I0
tp867
a(I0
I10
I1
I1
I0
I1
I-2
I2
tp868
a(I-2
I-5
I-1
I-1
I-2
I-9
I-2
I1
tp869
a(I-3
I-2
I1
I-2
I-1
I-9
I-5
I-2
tp870
a(I0
I-1
I2
I0
I-1
I-1
I-2
I-2
tp871
a(I-1
I-15
I-2
I-2
I0
I8
I2
I-1
tp872
a(I-1
I0
I-3
I1
I-2
I2
I-1
I0
tp873
a(I0
I2
I2
I0
I0
I-1
I1
I0
tp874
a(I-3
I6
I-1
I-3
I-4
I-2
I-4
I-5
tp875
a(I2
I2
I4
I1
I4
I0
I4
I2
tp876
a(I2
I-7
I-4
I0
I-2
I0
I0
I1
tp877
a(I2
I-1
I-2
I-2
I-1
I7
I2
I-3
tp878
a(I-6
I-4
I1
I2
I2
I-1
I-1
I3
tp879
a(I-2
I1
I0
I-2
I-3
I-6
I-6
I-10
tp880
a(I1
I-3
I1
I-1
I3
I14
I2
I-2
tp881
a(I-1
I-5
I-3
I-1
I-2
I-8
I-3
I1
tp882
a(I-1
I-2
I-1
I-2
I0
I-7
I-3
I0
tp883
a(I2
I13
I0
I2
I1
I12
I17
I3
tp884
a(I-2
I2
I-2
I-2
I-1
I-4
I-4
I-2
tp885
a(I0
I-5
I2
I0
I0
I-6
I-2
I0
tp886
a(I-1
I2
I0
I-1
I0
I-6
I-5
I-4
tp887
a(I-4
I-6
I-2
I-1
I-4
I-10
I-8
I-4
tp888
a(I-1
I-4
I0
I0
I0
I0
I0
I2
tp889
a(I1
I-6
I-1
I2
I-3
I0
I0
I-3
tp890
a(I4
I-2
I1
I0
I0
I4
I1
I3
tp891
a(I5
I1
I-2
I-1
I0
I1
I0
I3
tp892
a(I-7
I3
I2
I0
I-1
I2
I-2
I-3
tp893
a(I-1
I-5
I-1
I-1
I1
I3
I1
I3
tp894
a(I1
I-3
I1
I1
I-1
I-5
I-1
I-3
tp895
a(I-2
I-3
I1
I1
I1
I-2
I-5
I-5
tp896
a(I1
I5
I-1
I0
I0
I1
I5
I1
tp897
a(I-1
I5
I1
I-2
I-2
I-12
I-5
I-2
tp898
a(I0
I-4
I0
I1
I2
I14
I10
I3
tp899
a(I-2
I-1
I-3
I-1
I-2
I-2
I-4
I1
tp900
a(I-1
I5
I2
I2
I-1
I3
I1
I-2
tp901
a(I-1
I-4
I0
I1
I-3
I-8
I-4
I0
tp902
a(I-2
I14
I-1
I-1
I-1
I4
I0
I-2
tp903
a(I-3
I-4
I-4
I-3
I1
I-9
I-5
I4
tp904
a(I2
I1
I0
I0
I0
I-4
I0
I-4
tp905
a(I0
I-4
I-1
I-1
I-1
I6
I3
I3
tp906
a(I-3
I0
I1
I-1
I-1
I-3
I-2
I-3
tp907
a(I1
I3
I-2
I0
I-2
I4
I0
I-1
tp908
a(I1
I4
I2
I-1
I1
I-1
I-4
I0
tp909
a(I0
I-6
I-3
I1
I-1
I6
I1
I-1
tp910
a(I-2
I-4
I-3
I0
I-1
I-11
I-4
I-2
tp911
a(I2
I-1
I0
I-1
I-1
I0
I-1
I3
tp912
a(I-1
I-2
I3
I0
I-1
I-5
I1
I-9
tp913
a(I-4
I1
I-2
I-1
I-1
I-5
I-9
I-8
tp914
a(I1
I-5
I1
I2
I-1
I-2
I-2
I4
tp915
a(I-1
I-7
I-2
I-2
I-2
I2
I5
I0
tp916
a(I1
I8
I-1
I0
I-2
I2
I-3
I4
tp917
a(I-1
I-12
I-4
I0
I0
I8
I3
I0
tp918
a(I-4
I9
I1
I0
I-3
I-11
I-5
I-14
tp919
a(I3
I4
I0
I-1
I-1
I-3
I-3
I2
tp920
a(I-3
I1
I-2
I2
I2
I2
I-2
I2
tp921
a(I0
I1
I1
I-1
I0
I-2
I3
I1
tp922
a(I-1
I-4
I-2
I-1
I2
I3
I3
I2
tp923
a(I-1
I2
I1
I-1
I1
I7
I0
I6
tp924
a(I2
I-8
I-2
I0
I0
I4
I5
I-1
tp925
a(I1
I10
I2
I0
I0
I-2
I3
I3
tp926
a(I0
I-4
I-1
I0
I-2
I-1
I0
I-1
tp927
a(I-1
I-1
I0
I0
I-2
I-2
I-1
I-4
tp928
a(I0
I6
I0
I-3
I-1
I-2
I-5
I2
tp929
a(I5
I-5
I-3
I0
I0
I-9
I-4
I8
tp930
a(I-6
I-4
I-2
I-2
I0
I3
I1
I-13
tp931
a(I0
I1
I3
I-1
I0
I2
I0
I-3
tp932
a(I-2
I-15
I-3
I-3
I-3
I-7
I-4
I0
tp933
a(I1
I8
I1
I-1
I-2
I8
I2
I-1
tp934
a(I1
I14
I-1
I-1
I-1
I-4
I-3
I2
tp935
a(I0
I-5
I-1
I0
I0
I4
I-1
I0
tp936
a(I-2
I-5
I-3
I-3
I-2
I-4
I0
I-6
tp937
a(I-3
I0
I2
I-1
I-1
I-1
I-3
I6
tp938
a(I-2
I-6
I-1
I-2
I-2
I9
I4
I-7
tp939
a(I-1
I2
I-1
I1
I0
I0
I5
I-1
tp940
a(I2
I-3
I2
I1
I0
I1
I1
I2
tp941
a(I-2
I-2
I-3
I1
I0
I0
I-1
I-6
tp942
a(I1
I2
I1
I1
I-1
I-1
I-3
I5
tp943
a(I-3
I-7
I-4
I-2
I-3
I-4
I1
I4
tp944
a(I1
I6
I-3
I-1
I-3
I-2
I-3
I-11
tp945
a(I0
I6
I3
I3
I2
I9
I4
I2
tp946
a(I1
I-14
I1
I-3
I0
I-5
I-3
I4
tp947
a(I1
I8
I-2
I0
I0
I1
I-3
I3
tp948
a(I-4
I3
I-2
I-1
I0
I-2
I-2
I-7
tp949
a(I-2
I-11
I-1
I-4
I-3
I-4
I0
I-3
tp950
a(I2
I9
I-1
I1
I-1
I-2
I-2
I0
tp951
a(I-1
I1
I1
I0
I-1
I3
I0
I-5
tp952
a(I0
I-6
I-1
I0
I0
I-12
I0
I4
tp953
a(I1
I6
I1
I1
I1
I2
I-4
I-6
tp954
a(I-1
I-4
I-3
I-1
I-2
I2
I-3
I3
tp955
a(I-2
I-5
I1
I-1
I0
I-3
I-2
I-2
tp956
a(I1
I-8
I-6
I0
I-1
I-5
I0
I4
tp957
a(I0
I5
I0
I-1
I-3
I-4
I1
I-1
tp958
a(I2
I-1
I0
I-3
I0
I-4
I-3
I0
tp959
a(I-2
I-1
I-1
I1
I1
I2
I0
I-5
tp960
a(I-1
I-3
I1
I1
I0
I3
I-1
I3
tp961
a(I-2
I-1
I1
I0
I-1
I-3
I-3
I-2
tp962
a(I-1
I-6
I-4
I0
I0
I-3
I6
I1
tp963
a(I1
I4
I0
I-2
I-1
I-6
I-3
I0
tp964
a(I-1
I-10
I1
I1
I0
I13
I4
I-1
tp965
a(I3
I11
I1
I0
I0
I-6
I-3
I4
tp966
a(I-1
I-1
I-1
I-2
I0
I5
I1
I4
tp967
a(I-4
I-2
I0
I-1
I-2
I-16
I-6
I-9
tp968
a(I3
I-2
I3
I0
I0
I-2
I3
I6
tp969
a(I-5
I-6
I-4
I-2
I-1
I2
I-2
I-10
tp970
a(I1
I-8
I-1
I0
I0
I-2
I-1
I6
tp971
a(I3
I-1
I0
I0
I3
I20
I5
I10
tp972
a(I0
I3
I2
I0
I1
I-9
I-3
I-1
tp973
a(I1
I13
I4
I0
I1
I-5
I2
I0
tp974
a(I-1
I-3
I-3
I-1
I-1
I-7
I-6
I-4
tp975
a(I0
I3
I-1
I-2
I-3
I-2
I-3
I-1
tp976
a(I0
I4
I0
I0
I1
I3
I2
I2
tp977
a(I-1
I-9
I-2
I0
I-1
I2
I2
I2
tp978
a(I-1
I-1
I0
I1
I0
I-3
I-2
I-2
tp979
a(I1
I-2
I-1
I0
I0
I-2
I-1
I0
tp980
a(I-1
I4
I0
I-1
I-1
I4
I-1
I-2
tp981
a(I-1
I-14
I-1
I-2
I0
I-4
I-1
I-3
tp982
a(I3
I6
I1
I-1
I-3
I4
I1
I-1
tp983
a(I-2
I-4
I0
I-3
I-4
I-4
I-4
I-3
tp984
a(I-2
I2
I-1
I-2
I-2
I0
I5
I-1
tp985
a(I-4
I-10
I-3
I-2
I-1
I0
I-4
I1
tp986
a(I4
I7
I2
I4
I1
I-5
I3
I1
tp987
a(I-6
I-2
I-2
I0
I0
I-3
I1
I-16
tp988
a(I2
I6
I1
I-2
I-2
I-6
I-2
I7
tp989
a(I-5
I-3
I-3
I0
I-2
I18
I3
I1
tp990
a(I-3
I0
I0
I-1
I0
I2
I-1
I-4
tp991
a(I2
I-1
I0
I0
I-2
I-4
I-4
I3
tp992
a(I0
I-7
I1
I0
I1
I-9
I-2
I-5
tp993
a(I3
I6
I0
I-1
I1
I3
I4
I0
tp994
a(I-1
I-3
I0
I0
I-1
I0
I0
I2
tp995
a(I1
I3
I0
I0
I-1
I2
I2
I1
tp996
a(I-3
I-9
I-2
I0
I-2
I4
I-1
I0
tp997
a(I1
I2
I-2
I-1
I0
I-6
I-4
I2
tp998
a(I-3
I-14
I-3
I0
I1
I0
I1
I-2
tp999
a(I2
I13
I0
I0
I0
I-5
I2
I1
tp1000
a(I-2
I11
I-1
I0
I-1
I9
I-2
I-2
tp1001
a(I1
I-1
I1
I-1
I0
I-4
I-2
I4
tp1002
a(I0
I-2
I-4
I-1
I0
I-16
I-5
I-4
tp1003
a(I1
I-6
I2
I0
I0
I12
I5
I10
tp1004
a(I-5
I1
I1
I0
I1
I-7
I-9
I-9
tp1005
a(I0
I3
I-1
I2
I0
I6
I11
I-3
tp1006
a(I-4
I0
I0
I-1
I0
I3
I-3
I-12
tp1007
a(I0
I-2
I1
I-1
I-1
I-13
I-4
I2
tp1008
a(I2
I-2
I-3
I-1
I1
I8
I-1
I2
tp1009
a(I-1
I-14
I2
I-1
I-2
I-11
I-3
I-2
tp1010
a(I4
I-4
I-4
I2
I0
I5
I2
I5
tp1011
a(I-1
I10
I-1
I-1
I-1
I-4
I-1
I-4
tp1012
a(I-3
I2
I2
I-1
I1
I2
I3
I2
tp1013
a(I-1
I-10
I-2
I-1
I1
I4
I-1
I-3
tp1014
a(I1
I-2
I1
I-1
I0
I-6
I-2
I3
tp1015
a(I-1
I-5
I0
I-2
I0
I10
I4
I-4
tp1016
a(I2
I6
I-1
I0
I0
I-12
I-2
I1
tp1017
a(I-1
I7
I-1
I0
I-1
I0
I-1
I0
tp1018
a(I-2
I5
I1
I0
I0
I4
I1
I0
tp1019
a(I0
I-9
I-4
I0
I-1
I0
I2
I-1
tp1020
a(I0
I-2
I-1
I0
I0
I-1
I0
I-1
tp1021
a(I2
I5
I-1
I1
I0
I-5
I1
I3
tp1022
a(I-1
I10
I1
I-1
I-2
I11
I-2
I-6
tp1023
a(I-5
I-13
I-2
I1
I0
I-6
I-2
I0
tp1024
a(I0
I-2
I-2
I1
I1
I16
I7
I2
tp1025
a(I-1
I6
I-2
I-2
I-1
I-18
I-7
I-2
tp1026
a(I0
I-7
I0
I0
I-1
I2
I1
I2
tp1027
a(I2
I4
I-1
I-1
I-2
I-3
I-1
I-3
tp1028
a(I-1
I-4
I-1
I-1
I1
I-3
I-3
I7
tp1029
a(I-2
I-6
I-1
I-1
I-2
I5
I0
I-2
tp1030
a(I-1
I8
I1
I-1
I-2
I6
I0
I-1
tp1031
a(I-1
I-3
I-1
I-1
I1
I-9
I0
I2
tp1032
a(I1
I-3
I2
I1
I2
I6
I1
I-2
tp1033
a(I0
I5
I0
I-1
I-2
I3
I5
I-2
tp1034
a(I-3
I-14
I-1
I-1
I-2
I-5
I-3
I-1
tp1035
a(I0
I1
I-1
I1
I-1
I0
I-2
I1
tp1036
a(I0
I4
I2
I-1
I-3
I-6
I-6
I-3
tp1037
a(I1
I3
I1
I-1
I2
I1
I-1
I0
tp1038
a(I-2
I5
I-2
I-2
I1
I4
I2
I0
tp1039
a(I-1
I-4
I0
I0
I0
I8
I-2
I0
tp1040
a(I0
I1
I0
I-1
I-3
I-11
I-2
I-2
tp1041
a(I1
I10
I-2
I2
I0
I-2
I-3
I-2
tp1042
a(I-2
I4
I-2
I-3
I-4
I-3
I0
I1
tp1043
a(I-1
I0
I0
I1
I2
I-1
I2
I0
tp1044
a(I0
I-3
I0
I-2
I-2
I1
I-1
I2
tp1045
a(I1
I0
I1
I0
I-2
I5
I0
I4
tp1046
a(I-4
I-2
I1
I1
I0
I-10
I-3
I-8
tp1047
a(I-2
I0
I2
I0
I1
I-1
I2
I-1
tp1048
a(I2
I4
I0
I-3
I0
I2
I5
I-4
tp1049
a(I-1
I-9
I-4
I-2
I-1
I-3
I-4
I2
tp1050
a(I2
I2
I-1
I0
I0
I1
I0
I1
tp1051
a(I-1
I-6
I-3
I1
I1
I-5
I2
I2
tp1052
a(I-3
I-4
I-3
I-1
I0
I1
I-4
I-4
tp1053
a(I1
I11
I-1
I2
I0
I-6
I-2
I-5
tp1054
a(I-3
I-2
I-3
I0
I-1
I-2
I-1
I-7
tp1055
a(I-1
I0
I1
I-1
I-3
I-7
I-7
I-1
tp1056
a(I1
I-4
I-1
I0
I0
I10
I2
I0
tp1057
a(I-2
I-15
I0
I-2
I-1
I0
I-2
I-3
tp1058
a(I3
I-5
I-4
I2
I2
I-1
I0
I5
tp1059
a(I0
I9
I1
I-3
I-3
I-3
I-3
I-1
tp1060
a(I-2
I4
I-3
I3
I0
I-2
I-1
I-1
tp1061
a(I-3
I-11
I-2
I-1
I1
I11
I3
I1
tp1062
a(I2
I-1
I5
I0
I1
I-15
I-3
I3
tp1063
a(I0
I-3
I-2
I0
I-2
I6
I0
I0
tp1064
a(I-2
I-7
I-1
I1
I0
I-4
I0
I3
tp1065
a(I0
I4
I-4
I-1
I-2
I-5
I-2
I-3
tp1066
a(I4
I4
I-1
I-3
I0
I12
I-1
I4
tp1067
a(I-6
I-1
I1
I0
I-1
I-1
I-4
I-1
tp1068
a(I4
I0
I2
I-1
I-2
I8
I7
I6
tp1069
a(I-2
I7
I-1
I2
I-1
I-9
I-3
I-2
tp1070
a(I-3
I-1
I-1
I-1
I-1
I-1
I1
I-3
tp1071
a(I2
I-7
I-1
I-1
I1
I1
I1
I0
tp1072
a(I-1
I3
I2
I1
I-2
I-6
I-3
I-2
tp1073
a(I0
I0
I-1
I0
I0
I7
I5
I1
tp1074
a(I-1
I-11
I2
I1
I-1
I0
I1
I1
tp1075
a(I2
I-5
I-2
I1
I-1
I0
I1
I-2
tp1076
a(I-2
I7
I-2
I-1
I0
I-8
I-5
I-3
tp1077
a(I0
I-7
I0
I-1
I-1
I3
I0
I-2
tp1078
a(I-2
I-5
I-1
I-2
I0
I-1
I0
I1
tp1079
a(I-1
I-1
I0
I0
I-3
I-8
I-1
I0
tp1080
a(I0
I-4
I-3
I-2
I0
I9
I-2
I-4
tp1081
a(I-5
I-2
I1
I0
I-1
I-11
I-2
I-7
tp1082
a(I1
I5
I1
I0
I-1
I10
I3
I2
tp1083
a(I-1
I-4
I-1
I1
I1
I5
I2
I-8
tp1084
a(I-1
I0
I-2
I-1
I-2
I-6
I-3
I-1
tp1085
a(I-1
I7
I2
I0
I0
I-5
I-1
I0
tp1086
a(I0
I-4
I-1
I-1
I1
I3
I2
I2
tp1087
a(I1
I8
I0
I-2
I-1
I2
I0
I0
tp1088
a(I1
I-3
I-3
I-2
I-2
I-1
I-1
I-1
tp1089
a(I-2
I-19
I0
I-1
I0
I-2
I-3
I2
tp1090
a(I1
I14
I3
I1
I-2
I-3
I0
I-4
tp1091
a(I2
I10
I-1
I-1
I0
I1
I1
I5
tp1092
a(I-3
I-11
I-3
I0
I0
I0
I3
I0
tp1093
a(I1
I1
I0
I-1
I1
I-3
I-2
I2
tp1094
a(I-1
I0
I-3
I-1
I-3
I-1
I-2
I1
tp1095
a(I-1
I1
I0
I0
I-3
I1
I-2
I-2
tp1096
a(I-2
I1
I-1
I-1
I-4
I-11
I-8
I-1
tp1097
a(I0
I6
I-1
I-1
I-1
I-3
I1
I-1
tp1098
a(I-1
I-4
I-2
I0
I1
I17
I1
I0
tp1099
a(I0
I2
I-2
I1
I-1
I-5
I5
I-2
tp1100
a(I4
I7
I4
I0
I1
I10
I8
I0
tp1101
a(I-3
I-17
I-3
I-1
I0
I-1
I-3
I-2
tp1102
a(I-2
I6
I-2
I-3
I-2
I-4
I-4
I1
tp1103
a(I-2
I-4
I2
I1
I1
I-4
I4
I0
tp1104
a(I1
I2
I-2
I0
I0
I7
I0
I4
tp1105
a(I3
I10
I1
I-1
I1
I4
I0
I-1
tp1106
a(I1
I-7
I0
I0
I1
I-3
I0
I0
tp1107
a(I-1
I3
I-1
I-2
I-1
I2
I-3
I0
tp1108
a(I-1
I-3
I-1
I1
I-1
I-16
I-2
I3
tp1109
a(I2
I5
I2
I0
I-1
I10
I-1
I-6
tp1110
a(I-1
I-3
I-1
I-1
I-2
I-16
I-1
I2
tp1111
a(I-1
I-4
I-2
I1
I1
I6
I-2
I1
tp1112
a(I-1
I-7
I-3
I0
I0
I-1
I0
I-1
tp1113
a(I-1
I5
I0
I-2
I-1
I1
I-2
I-1
tp1114
a(I0
I-1
I-2
I0
I0
I-2
I6
I0
tp1115
a(I0
I-2
I2
I-1
I0
I0
I0
I1
tp1116
a(I-1
I2
I1
I-1
I-4
I-2
I-5
I-2
tp1117
a(I-5
I1
I-4
I-1
I-1
I10
I2
I-10
tp1118
a(I4
I1
I2
I0
I-2
I-1
I-2
I3
tp1119
a(I-2
I-1
I0
I0
I0
I-1
I1
I0
tp1120
a(I1
I-8
I0
I0
I-1
I-11
I-6
I1
tp1121
a(I-1
I5
I0
I0
I-1
I4
I-2
I0
tp1122
a(I-5
I1
I0
I-1
I0
I7
I6
I-8
tp1123
a(I0
I-5
I-1
I-2
I-1
I3
I0
I-1
tp1124
a(I0
I-2
I-1
I0
I0
I-4
I2
I-1
tp1125
a(I-1
I-4
I2
I0
I-2
I-6
I0
I3
tp1126
a(I2
I8
I1
I2
I1
I-10
I-1
I2
tp1127
a(I1
I-5
I-2
I-1
I-3
I-1
I-2
I-1
tp1128
a(I0
I3
I2
I-2
I0
I7
I-2
I-14
tp1129
a(I0
I4
I-2
I1
I1
I4
I5
I15
tp1130
a(I0
I-5
I-3
I0
I-3
I-8
I-2
I0
tp1131
a(I-1
I-3
I1
I-1
I2
I2
I-2
I-2
tp1132
a(I0
I14
I-1
I0
I-1
I-7
I-1
I-2
tp1133
a(I-1
I-2
I-3
I-3
I-2
I2
I-1
I-4
tp1134
a(I1
I-5
I-2
I-1
I-1
I7
I1
I3
tp1135
a(I2
I6
I1
I-1
I0
I-5
I3
I3
tp1136
a(I-5
I-8
I-1
I-2
I1
I5
I-1
I-4
tp1137
a(I2
I0
I2
I0
I0
I-9
I-3
I-5
tp1138
a(I0
I-7
I1
I-1
I0
I8
I4
I7
tp1139
a(I2
I2
I-1
I-1
I0
I1
I-3
I-4
tp1140
a(I-5
I-2
I1
I-1
I0
I-2
I-4
I-1
tp1141
a(I0
I4
I0
I0
I-1
I-1
I7
I-1
tp1142
a(I1
I-4
I-1
I-1
I0
I5
I-3
I-1
tp1143
a(I0
I-13
I-4
I0
I0
I1
I0
I1
tp1144
a(I-2
I-2
I-2
I-2
I-1
I-5
I-3
I0
tp1145
a(I1
I8
I0
I1
I0
I0
I-2
I0
tp1146
a(I-2
I-12
I1
I-2
I-1
I-8
I-6
I-3
tp1147
a(I2
I16
I2
I0
I1
I2
I4
I0
tp1148
a(I-1
I0
I-3
I-1
I1
I11
I4
I-4
tp1149
a(I-1
I-5
I1
I-1
I-1
I2
I-3
I2
tp1150
a(I-2
I-10
I-2
I-1
I-2
I-1
I-3
I2
tp1151
a(I2
I0
I1
I1
I-1
I-1
I-1
I-9
tp1152
a(I1
I1
I-1
I0
I0
I2
I1
I3
tp1153
a(I0
I0
I3
I0
I-2
I-1
I0
I0
tp1154
a(I1
I14
I2
I0
I-1
I-22
I-4
I-1
tp1155
a(I0
I-8
I-2
I-1
I2
I17
I2
I6
tp1156
a(I-2
I-7
I-4
I-3
I-4
I-8
I-1
I-3
tp1157
a(I-3
I1
I-1
I-1
I1
I19
I10
I-2
tp1158
a(I-2
I0
I-2
I-2
I-1
I-15
I-5
I0
tp1159
a(I-1
I-4
I0
I-1
I-1
I-7
I-3
I0
tp1160
a(I4
I2
I1
I1
I0
I3
I1
I4
tp1161
a(I1
I3
I1
I1
I-1
I-10
I-6
I-2
tp1162
a(I1
I-10
I-3
I1
I1
I17
I13
I0
tp1163
a(I-2
I-3
I-2
I-1
I-1
I-6
I-1
I3
tp1164
a(I-1
I-3
I0
I-2
I-2
I6
I-1
I1
tp1165
a(I0
I0
I-2
I-1
I2
I1
I-2
I-2
tp1166
a(I0
I7
I-1
I-1
I0
I8
I-1
I0
tp1167
a(I0
I-1
I0
I-1
I0
I-6
I0
I-1
tp1168
a(I-3
I-8
I2
I-1
I-1
I-4
I-2
I-2
tp1169
a(I0
I1
I0
I-2
I1
I0
I0
I1
tp1170
a(I0
I5
I0
I0
I-1
I-3
I-1
I-1
tp1171
a(I-3
I-8
I-4
I-3
I-2
I8
I0
I-2
tp1172
a(I0
I8
I-1
I0
I1
I10
I2
I0
tp1173
a(I0
I6
I0
I0
I0
I-7
I-1
I0
tp1174
a(I-2
I0
I-2
I-1
I0
I5
I-1
I-1
tp1175
a(I-5
I3
I-1
I-1
I-2
I0
I-4
I-2
tp1176
a(I0
I-7
I-3
I0
I-1
I-16
I1
I1
tp1177
a(I-1
I-9
I-2
I1
I0
I-4
I-2
I2
tp1178
a(I1
I21
I0
I-1
I0
I4
I1
I-1
tp1179
a(I1
I-1
I-5
I-1
I0
I-5
I-4
I-6
tp1180
a(I0
I-11
I0
I0
I-1
I14
I2
I2
tp1181
a(I-2
I3
I3
I1
I0
I6
I8
I2
tp1182
a(I1
I0
I1
I-3
I0
I-7
I-9
I-1
tp1183
a(I0
I-2
I-2
I-1
I-2
I-1
I2
I-1
tp1184
a(I2
I9
I-2
I0
I-1
I-1
I-1
I1
tp1185
a(I-2
I-10
I1
I0
I-1
I-4
I-5
I-2
tp1186
a(I-3
I-11
I0
I1
I0
I2
I2
I-3
tp1187
a(I3
I12
I2
I1
I-1
I1
I-1
I1
tp1188
a(I-1
I-1
I-5
I0
I-2
I-3
I1
I-2
tp1189
a(I2
I-2
I-2
I-1
I-4
I-8
I-2
I0
tp1190
a(I-1
I-6
I-2
I-1
I0
I-8
I0
I-3
tp1191
a(I-2
I6
I4
I-2
I1
I13
I1
I0
tp1192
a(I0
I-14
I-3
I-1
I0
I-5
I2
I-1
tp1193
a(I1
I9
I-2
I1
I-1
I-11
I-3
I5
tp1194
a(I-3
I0
I-2
I1
I-1
I-3
I-3
I-3
tp1195
a(I-1
I-5
I0
I-1
I-1
I-2
I8
I0
tp1196
a(I-1
I6
I1
I1
I1
I2
I0
I-1
tp1197
a(I-1
I-10
I-3
I-3
I-2
I-2
I-5
I-1
tp1198
a(I-1
I-5
I-2
I1
I0
I13
I7
I-6
tp1199
a(I-1
I2
I1
I1
I0
I-1
I-1
I4
tp1200
a(I-3
I0
I0
I-2
I-2
I-11
I-5
I-3
tp1201
a(I0
I-3
I-1
I-2
I-2
I-1
I-2
I-1
tp1202
a(I0
I7
I-4
I0
I-2
I0
I-2
I3
tp1203
a(I-3
I-10
I-2
I-1
I-3
I5
I-1
I-4
tp1204
a(I-2
I5
I1
I-2
I-1
I-2
I0
I-2
tp1205
a(I1
I-2
I-2
I0
I0
I-2
I-3
I0
tp1206
a(I1
I2
I2
I-1
I-1
I1
I2
I0
tp1207
a(I0
I-3
I-1
I-1
I0
I5
I-2
I2
tp1208
a(I-1
I2
I-3
I0
I-1
I0
I-2
I0
tp1209
a(I1
I0
I2
I2
I1
I3
I9
I-2
tp1210
a(I1
I-4
I-1
I-2
I1
I4
I0
I-1
tp1211
a(I-1
I0
I-1
I0
I-2
I-12
I-5
I-3
tp1212
a(I1
I1
I2
I-3
I1
I3
I-2
I1
tp1213
a(I-2
I-2
I-4
I-1
I-2
I6
I0
I-5
tp1214
a(I-1
I2
I3
I1
I-1
I-8
I-1
I-1
tp1215
a(I-1
I-14
I0
I-1
I-1
I-6
I0
I-1
tp1216
a(I2
I-7
I-3
I-1
I-1
I4
I2
I2
tp1217
a(I-4
I9
I-1
I-2
I-1
I-5
I0
I-4
tp1218
a(I-3
I1
I0
I-1
I-1
I6
I-3
I-3
tp1219
a(I-1
I-6
I-1
I-2
I0
I-8
I-4
I0
tp1220
a(I1
I3
I4
I-1
I0
I11
I4
I3
tp1221
a(I-1
I1
I2
I-1
I-1
I-13
I-4
I-5
tp1222
a(I-1
I-8
I-2
I-2
I0
I-1
I-4
I-1
tp1223
a(I0
I6
I0
I-1
I2
I13
I6
I3
tp1224
a(I-3
I0
I-2
I0
I-1
I3
I2
I-1
tp1225
a(I2
I-6
I-1
I0
I-2
I-6
I-3
I0
tp1226
a(I-2
I2
I0
I1
I0
I8
I2
I6
tp1227
a(I1
I7
I-3
I2
I-2
I-5
I1
I1
tp1228
a(I0
I-2
I1
I0
I1
I-10
I-3
I0
tp1229
a(I-1
I4
I1
I-1
I0
I-7
I-2
I0
tp1230
a(I-1
I-7
I-5
I0
I-1
I9
I4
I-3
tp1231
a(I-3
I0
I0
I-1
I-2
I0
I-5
I-2
tp1232
a(I-1
I3
I-1
I1
I-1
I-8
I-4
I-1
tp1233
a(I-3
I-8
I1
I1
I3
I9
I9
I-1
tp1234
a(I1
I-4
I0
I0
I0
I-14
I-4
I1
tp1235
a(I3
I0
I-1
I-1
I2
I1
I-2
I0
tp1236
a(I-1
I-1
I-2
I0
I-3
I2
I3
I-4
tp1237
a(I-2
I-1
I-3
I-2
I-1
I-8
I-6
I-2
tp1238
aasS'fist'
p1239
(lp1240
(lp1241
(I3
I-8
I-7
I-22
I-21
I-11
I1
I-9
tp1242
a(I43
I18
I11
I16
I-27
I-21
I-32
I-24
tp1243
a(I-35
I-17
I-11
I-9
I15
I-63
I43
I18
tp1244
a(I8
I12
I5
I19
I21
I64
I62
I13
tp1245
a(I-3
I-1
I-1
I0
I-20
I-22
I1
I6
tp1246
a(I-3
I-2
I-10
I-28
I2
I1
I1
I-16
tp1247
a(I-7
I0
I4
I5
I-5
I40
I-75
I-26
tp1248
a(I-12
I-6
I-6
I-7
I-12
I-55
I-12
I-18
tp1249
a(I0
I-1
I0
I2
I-5
I-14
I4
I9
tp1250
a(I-4
I1
I3
I8
I-6
I-6
I-22
I-7
tp1251
a(I-5
I-4
I-8
I-9
I2
I22
I-9
I-10
tp1252
a(I0
I-2
I-2
I-10
I14
I40
I67
I15
tp1253
a(I3
I1
I4
I10
I5
I54
I43
I20
tp1254
a(I4
I1
I4
I4
I4
I-6
I-6
I11
tp1255
a(I-4
I-1
I2
I0
I-8
I-22
I-54
I-17
tp1256
a(I-2
I0
I0
I-1
I11
I12
I-16
I-2
tp1257
a(I3
I1
I3
I8
I-3
I-18
I-9
I12
tp1258
a(I-13
I-8
I-2
I2
I7
I14
I15
I-25
tp1259
a(I10
I6
I-2
I-13
I-9
I-10
I5
I-12
tp1260
a(I-4
I-3
I-11
I-12
I8
I-15
I15
I18
tp1261
a(I4
I0
I4
I6
I5
I22
I-1
I15
tp1262
a(I-1
I2
I2
I-1
I-11
I-5
I-13
I-8
tp1263
a(I-4
I-1
I4
I16
I14
I8
I10
I1
tp1264
a(I-11
I-8
I-1
I-9
I-12
I2
I-48
I-30
tp1265
a(I3
I6
I-2
I3
I25
I-5
I31
I36
tp1266
a(I6
I3
I-1
I2
I-5
I-15
I19
I2
tp1267
a(I10
I-6
I-4
I-8
I-8
I-15
I12
I4
tp1268
a(I9
I13
I6
I-2
I-11
I-25
I-29
I4
tp1269
a(I3
I-3
I0
I2
I-6
I25
I36
I6
tp1270
a(I5
I1
I-3
I-2
I8
I-2
I5
I-3
tp1271
a(I-18
I-8
I-6
I-2
I-6
I-32
I10
I-6
tp1272
a(I-8
I-7
I-5
I-6
I-17
I-26
I-17
I5
tp1273
a(I-1
I-3
I-2
I-3
I-3
I10
I2
I7
tp1274
a(I-5
I-3
I-1
I-1
I2
I4
I37
I5
tp1275
a(I11
I8
I2
I6
I8
I16
I-22
I0
tp1276
a(I-3
I0
I-1
I-4
I-17
I-13
I-12
I-23
tp1277
a(I-2
I-2
I-2
I-2
I-2
I-12
I-18
I-5
tp1278
a(I3
I-4
I-3
I-8
I6
I0
I-19
I4
tp1279
a(I2
I1
I2
I7
I0
I6
I5
I20
tp1280
a(I-6
I-2
I-1
I-6
I-8
I-12
I11
I-5
tp1281
a(I2
I-2
I1
I1
I-3
I4
I16
I20
tp1282
a(I8
I3
I2
I1
I10
I26
I35
I-1
tp1283
a(I-5
I-1
I0
I-4
I-5
I-2
I-11
I-31
tp1284
a(I-2
I-1
I-1
I-1
I-6
I-7
I-2
I6
tp1285
a(I-1
I2
I-2
I-4
I6
I-15
I-23
I-3
tp1286
a(I-1
I1
I1
I-2
I3
I27
I-4
I-8
tp1287
a(I-3
I-2
I-3
I-6
I-11
I-39
I22
I4
tp1288
a(I-6
I-3
I-1
I2
I3
I10
I13
I5
tp1289
a(I8
I0
I-2
I4
I13
I-2
I-6
I-6
tp1290
a(I2
I-1
I-1
I4
I4
I8
I-3
I0
tp1291
a(I-3
I3
I1
I3
I-3
I11
I-20
I-13
tp1292
a(I-2
I-3
I-4
I-12
I-7
I-16
I7
I4
tp1293
a(I-6
I-5
I-1
I3
I2
I5
I32
I0
tp1294
a(I1
I-6
I-3
I-5
I2
I9
I0
I9
tp1295
a(I1
I4
I3
I6
I-1
I1
I11
I5
tp1296
a(I3
I4
I3
I7
I3
I7
I2
I-7
tp1297
a(I-6
I-2
I-2
I-10
I-8
I-8
I-11
I-9
tp1298
a(I0
I0
I-1
I-1
I2
I-10
I-5
I0
tp1299
a(I-4
I-3
I-3
I-6
I-8
I-14
I-5
I-11
tp1300
a(I6
I2
I1
I5
I9
I32
I3
I19
tp1301
a(I-5
I0
I-1
I-2
I-6
I-14
I17
I-4
tp1302
a(I-2
I0
I0
I2
I-8
I-34
I-24
I-12
tp1303
a(I1
I-1
I-1
I-2
I7
I54
I-4
I3
tp1304
a(I-2
I-3
I-3
I-1
I-7
I-36
I7
I1
tp1305
a(I-1
I0
I2
I3
I1
I24
I23
I10
tp1306
a(I0
I-1
I1
I0
I1
I1
I-2
I-6
tp1307
a(I1
I3
I-1
I-1
I1
I-9
I-17
I5
tp1308
a(I-2
I-2
I1
I0
I-5
I-8
I-12
I-7
tp1309
a(I1
I-3
I0
I1
I0
I11
I-12
I-7
tp1310
a(I0
I0
I-1
I0
I1
I-6
I3
I-1
tp1311
a(I2
I1
I2
I0
I3
I22
I-1
I4
tp1312
a(I-1
I0
I2
I1
I-4
I-5
I-5
I-7
tp1313
a(I-7
I-5
I-1
I0
I-2
I-8
I-9
I-1
tp1314
a(I3
I0
I-4
I-4
I0
I10
I29
I11
tp1315
a(I1
I0
I-2
I0
I0
I-12
I-24
I-6
tp1316
a(I0
I0
I-1
I0
I-3
I2
I-1
I-3
tp1317
a(I1
I0
I1
I1
I0
I6
I5
I3
tp1318
a(I1
I1
I0
I-1
I-1
I-10
I-8
I-5
tp1319
a(I-7
I-6
I-3
I-8
I-9
I-33
I-2
I-5
tp1320
a(I-3
I-2
I-2
I0
I-1
I8
I-2
I3
tp1321
a(I5
I2
I-1
I2
I4
I18
I10
I7
tp1322
a(I-2
I0
I1
I0
I-2
I-4
I-2
I-10
tp1323
a(I0
I1
I1
I2
I3
I-13
I-4
I-6
tp1324
a(I-2
I-1
I0
I2
I1
I11
I-1
I-13
tp1325
a(I-2
I0
I-2
I-3
I-6
I-21
I-30
I-5
tp1326
a(I0
I1
I3
I7
I13
I19
I10
I2
tp1327
a(I2
I-3
I-3
I-4
I-3
I1
I21
I2
tp1328
a(I3
I1
I2
I1
I7
I11
I-16
I2
tp1329
a(I1
I-1
I-2
I0
I-1
I-7
I0
I0
tp1330
a(I-1
I-2
I-4
I-6
I-10
I-22
I-13
I1
tp1331
a(I-2
I-1
I4
I3
I7
I25
I-1
I-7
tp1332
a(I2
I1
I0
I0
I0
I17
I22
I12
tp1333
a(I-3
I0
I-1
I-1
I-2
I-4
I-12
I-7
tp1334
a(I0
I-1
I-1
I-1
I-1
I0
I-24
I-9
tp1335
a(I-1
I-5
I-4
I-4
I-5
I-14
I22
I19
tp1336
a(I-3
I-1
I-1
I3
I4
I0
I6
I-13
tp1337
a(I3
I1
I1
I-2
I1
I10
I-5
I14
tp1338
a(I1
I-1
I0
I0
I0
I0
I2
I-6
tp1339
a(I1
I3
I3
I2
I-1
I11
I-17
I-7
tp1340
a(I-4
I-6
I-5
I-9
I-11
I-46
I-20
I0
tp1341
a(I5
I3
I2
I8
I11
I33
I34
I7
tp1342
a(I-3
I-2
I-4
I-3
I4
I13
I-9
I-2
tp1343
a(I0
I0
I-1
I1
I-1
I4
I8
I-5
tp1344
a(I-3
I-2
I-1
I-3
I-6
I-25
I-7
I-14
tp1345
a(I3
I0
I2
I0
I-2
I8
I21
I9
tp1346
a(I-1
I0
I0
I1
I3
I11
I-28
I-6
tp1347
a(I0
I0
I1
I5
I4
I-4
I-23
I0
tp1348
a(I-1
I0
I-2
I-2
I-4
I17
I6
I0
tp1349
a(I-4
I0
I-3
I-3
I-4
I-17
I-18
I-16
tp1350
a(I-1
I-1
I-1
I-5
I-1
I-4
I13
I5
tp1351
a(I0
I-1
I-2
I-2
I0
I8
I14
I4
tp1352
a(I1
I0
I-1
I-2
I-2
I8
I10
I7
tp1353
a(I-1
I0
I0
I-1
I-1
I2
I-12
I-4
tp1354
a(I-2
I0
I1
I2
I-4
I-10
I-10
I-6
tp1355
a(I0
I0
I0
I-1
I0
I-3
I4
I0
tp1356
a(I-2
I-2
I-1
I0
I3
I5
I-3
I-4
tp1357
a(I-1
I-3
I-3
I-2
I1
I-5
I27
I4
tp1358
a(I0
I-2
I-1
I-2
I-6
I-24
I20
I3
tp1359
a(I-4
I-2
I-1
I-2
I-3
I-7
I-29
I-16
tp1360
a(I3
I3
I3
I7
I14
I25
I-22
I6
tp1361
a(I1
I2
I1
I2
I2
I16
I-3
I-5
tp1362
a(I-2
I-1
I-1
I-4
I-4
I1
I5
I-7
tp1363
a(I0
I-1
I-1
I-2
I-3
I-4
I7
I7
tp1364
a(I-2
I0
I-3
I1
I-4
I-10
I-8
I-4
tp1365
a(I0
I1
I0
I-3
I-5
I-3
I-19
I3
tp1366
a(I1
I1
I3
I3
I4
I6
I4
I1
tp1367
a(I0
I-1
I0
I-2
I-3
I-8
I0
I11
tp1368
a(I-5
I-3
I-2
I-1
I-1
I-5
I11
I-6
tp1369
a(I0
I-3
I-2
I0
I-4
I-13
I-6
I-9
tp1370
a(I-2
I0
I-1
I-2
I-3
I-1
I-21
I-6
tp1371
a(I-3
I-1
I-2
I-2
I-2
I-6
I19
I11
tp1372
a(I8
I5
I1
I0
I6
I16
I36
I11
tp1373
a(I-2
I1
I0
I1
I2
I5
I-2
I-1
tp1374
a(I-1
I-2
I-1
I-1
I-1
I-1
I-13
I-6
tp1375
a(I-1
I1
I-1
I3
I3
I-7
I-34
I-11
tp1376
a(I-3
I-4
I-1
I-1
I0
I15
I4
I7
tp1377
a(I2
I-2
I-1
I-1
I-2
I-12
I13
I10
tp1378
a(I1
I3
I3
I6
I6
I19
I-11
I-3
tp1379
a(I1
I-1
I-2
I-2
I-2
I6
I13
I4
tp1380
a(I-2
I0
I0
I0
I-4
I0
I-8
I-8
tp1381
a(I0
I0
I1
I1
I0
I-14
I-9
I5
tp1382
a(I-1
I-1
I-1
I-3
I-2
I3
I4
I-2
tp1383
a(I0
I0
I-2
I-4
I-3
I-12
I23
I20
tp1384
a(I-6
I-3
I-1
I-4
I-9
I-24
I-7
I-21
tp1385
a(I-1
I-2
I-1
I3
I7
I20
I-5
I-2
tp1386
a(I0
I0
I-1
I-1
I0
I-9
I11
I11
tp1387
a(I-1
I-1
I-2
I-3
I-4
I1
I-7
I-12
tp1388
a(I0
I0
I1
I1
I-2
I-4
I-9
I0
tp1389
a(I-3
I-2
I-1
I-4
I-5
I-15
I-12
I-6
tp1390
a(I3
I0
I0
I1
I2
I-7
I29
I13
tp1391
a(I-3
I-1
I1
I2
I5
I49
I-23
I-20
tp1392
a(I5
I2
I2
I4
I4
I-25
I20
I20
tp1393
a(I0
I-2
I-1
I-4
I-3
I6
I-2
I-10
tp1394
a(I-3
I-3
I-2
I-3
I-7
I-12
I-15
I2
tp1395
a(I-2
I0
I3
I-2
I1
I-4
I-13
I-8
tp1396
a(I-2
I0
I1
I0
I-4
I-7
I-13
I-11
tp1397
a(I0
I-2
I-6
I-4
I-2
I-6
I15
I5
tp1398
a(I-2
I-2
I-1
I2
I-2
I2
I-10
I-10
tp1399
a(I1
I0
I2
I2
I-4
I-8
I14
I9
tp1400
a(I-2
I-1
I-3
I-8
I8
I17
I-11
I-4
tp1401
a(I-1
I-1
I-1
I-1
I4
I3
I5
I1
tp1402
a(I-2
I0
I-1
I-1
I-7
I5
I4
I-7
tp1403
a(I-2
I-4
I-8
I-3
I2
I-26
I13
I8
tp1404
a(I3
I0
I0
I2
I-1
I25
I37
I13
tp1405
a(I2
I2
I3
I5
I4
I-1
I-9
I2
tp1406
a(I-1
I-1
I-2
I0
I0
I7
I-7
I-2
tp1407
a(I1
I1
I1
I0
I-5
I-5
I-17
I-12
tp1408
a(I-5
I-4
I-5
I-6
I-10
I-18
I4
I-2
tp1409
a(I1
I0
I-2
I0
I-1
I4
I12
I9
tp1410
a(I1
I0
I2
I1
I1
I12
I10
I1
tp1411
a(I0
I-2
I-1
I0
I-2
I-16
I8
I-4
tp1412
a(I0
I-2
I-3
I-3
I0
I-1
I-17
I-3
tp1413
a(I-2
I-1
I0
I0
I-3
I-13
I-13
I-2
tp1414
a(I0
I-1
I0
I-3
I1
I5
I10
I-7
tp1415
a(I-2
I-1
I-1
I0
I4
I7
I1
I-9
tp1416
a(I1
I-1
I-2
I0
I-3
I1
I-17
I3
tp1417
a(I-1
I1
I0
I-1
I-1
I7
I-2
I-5
tp1418
a(I-1
I0
I-3
I0
I4
I-9
I15
I8
tp1419
a(I0
I1
I2
I4
I3
I16
I-19
I-16
tp1420
a(I-1
I-1
I-2
I-1
I1
I-9
I7
I3
tp1421
a(I1
I0
I1
I-1
I2
I-2
I-1
I-1
tp1422
a(I1
I1
I3
I0
I-1
I-3
I-10
I-1
tp1423
a(I-1
I-4
I-4
I-5
I-7
I-3
I1
I5
tp1424
a(I-2
I-3
I0
I-1
I-1
I-11
I32
I12
tp1425
a(I0
I0
I-1
I0
I0
I-13
I-10
I2
tp1426
a(I2
I1
I-1
I0
I-2
I-3
I-18
I-5
tp1427
a(I-3
I-2
I0
I-1
I-4
I-8
I-8
I-10
tp1428
a(I-2
I-1
I-3
I-3
I-3
I-8
I-5
I-8
tp1429
a(I-2
I0
I-1
I1
I0
I-5
I-2
I1
tp1430
a(I0
I-1
I-2
I-4
I-4
I-3
I2
I-2
tp1431
a(I0
I0
I0
I-1
I1
I18
I-3
I-4
tp1432
a(I1
I1
I3
I4
I7
I12
I7
I2
tp1433
a(I-4
I-3
I-1
I-4
I-8
I-24
I-18
I-1
tp1434
a(I1
I1
I0
I-2
I-2
I1
I10
I12
tp1435
a(I-1
I1
I2
I4
I2
I12
I4
I-8
tp1436
a(I-2
I-3
I-4
I-6
I-8
I-7
I-1
I5
tp1437
a(I1
I1
I1
I1
I4
I4
I5
I-2
tp1438
a(I-2
I0
I1
I2
I1
I-13
I4
I-3
tp1439
a(I-1
I-2
I-4
I-2
I3
I-9
I-15
I-6
tp1440
a(I2
I1
I0
I-3
I-2
I2
I-14
I-3
tp1441
a(I3
I0
I1
I0
I2
I8
I-8
I-6
tp1442
a(I-2
I0
I1
I2
I0
I8
I-16
I-10
tp1443
a(I1
I2
I3
I6
I5
I12
I-19
I-8
tp1444
a(I0
I0
I0
I-2
I-3
I-21
I-3
I10
tp1445
a(I2
I0
I0
I-3
I-2
I7
I5
I-7
tp1446
a(I-1
I-1
I-1
I-1
I2
I3
I-2
I1
tp1447
a(I-1
I-2
I-1
I-1
I1
I-4
I1
I-8
tp1448
a(I0
I0
I0
I-2
I0
I-1
I6
I0
tp1449
a(I-1
I-2
I-1
I1
I-2
I4
I4
I3
tp1450
a(I-1
I1
I-2
I-5
I-2
I-2
I-13
I-9
tp1451
a(I-1
I0
I0
I3
I-1
I-25
I4
I6
tp1452
a(I-3
I-3
I-3
I0
I1
I10
I-6
I-2
tp1453
a(I-3
I-3
I-5
I-2
I0
I-16
I8
I1
tp1454
a(I-3
I-2
I1
I-1
I-2
I6
I-11
I-3
tp1455
a(I-2
I-1
I-2
I-1
I3
I4
I-7
I1
tp1456
a(I-3
I-2
I-1
I0
I-4
I-17
I12
I-1
tp1457
a(I-3
I-2
I-1
I-2
I-7
I-29
I-3
I-4
tp1458
a(I0
I-1
I-3
I-1
I-1
I13
I6
I0
tp1459
a(I0
I-2
I-3
I-3
I-4
I-7
I3
I-2
tp1460
a(I-4
I-2
I2
I2
I3
I8
I-2
I-5
tp1461
a(I0
I0
I0
I0
I-1
I-1
I-13
I-5
tp1462
a(I-2
I-3
I-1
I-3
I-5
I-20
I-3
I-1
tp1463
a(I0
I-2
I-2
I-2
I-4
I-9
I6
I-3
tp1464
a(I1
I-2
I-3
I-1
I-2
I22
I-3
I4
tp1465
a(I0
I0
I1
I-3
I2
I12
I-2
I7
tp1466
a(I-5
I-2
I-4
I-4
I-4
I-18
I0
I-11
tp1467
a(I0
I0
I0
I-3
I-3
I14
I-13
I3
tp1468
a(I-1
I-2
I-2
I0
I-3
I-13
I11
I-2
tp1469
a(I0
I1
I1
I3
I4
I1
I-8
I-11
tp1470
a(I-1
I1
I-1
I-2
I-1
I2
I-1
I3
tp1471
a(I-1
I-1
I2
I1
I-2
I-16
I-11
I2
tp1472
a(I-1
I0
I-5
I-6
I-3
I9
I-14
I-9
tp1473
a(I-2
I-2
I-2
I0
I-2
I-22
I18
I8
tp1474
a(I-1
I-2
I-1
I-4
I1
I13
I-4
I-1
tp1475
a(I-1
I1
I-1
I4
I0
I-10
I7
I0
tp1476
a(I1
I1
I1
I-1
I-1
I2
I-2
I4
tp1477
a(I0
I-1
I-2
I1
I2
I10
I-2
I-6
tp1478
a(I0
I0
I-1
I1
I-4
I-12
I16
I5
tp1479
a(I1
I0
I-1
I2
I2
I6
I3
I8
tp1480
a(I-1
I-4
I2
I0
I-2
I-8
I0
I-10
tp1481
a(I1
I2
I0
I3
I1
I18
I-2
I-2
tp1482
a(I0
I-1
I-1
I0
I-3
I-14
I-3
I8
tp1483
a(I0
I0
I-2
I-3
I2
I24
I3
I-6
tp1484
a(I1
I-1
I-1
I-2
I0
I-15
I-2
I0
tp1485
a(I2
I0
I1
I-2
I-2
I3
I-4
I-1
tp1486
a(I-3
I-2
I-1
I0
I1
I21
I9
I-7
tp1487
a(I-3
I-3
I-4
I-3
I-2
I-16
I2
I-5
tp1488
a(I-1
I0
I-1
I0
I-3
I4
I-16
I1
tp1489
a(I0
I0
I0
I0
I1
I-5
I0
I3
tp1490
a(I1
I0
I1
I2
I0
I0
I-9
I-4
tp1491
a(I-1
I0
I0
I1
I-3
I-9
I0
I-4
tp1492
a(I-3
I1
I1
I4
I1
I8
I2
I-2
tp1493
a(I-1
I-2
I-4
I-8
I-1
I3
I-11
I3
tp1494
a(I-1
I0
I1
I3
I1
I-10
I7
I0
tp1495
a(I-1
I-3
I-1
I-2
I1
I19
I6
I7
tp1496
a(I2
I2
I4
I5
I5
I1
I-8
I-9
tp1497
a(I-1
I2
I2
I0
I-3
I6
I-7
I3
tp1498
a(I0
I-3
I-3
I-2
I0
I-6
I15
I0
tp1499
a(I0
I-3
I-3
I-4
I-7
I-11
I-4
I9
tp1500
a(I-1
I-1
I0
I-3
I1
I1
I7
I6
tp1501
a(I0
I0
I0
I2
I1
I-5
I26
I-4
tp1502
a(I1
I0
I-2
I-2
I1
I-5
I-15
I5
tp1503
a(I0
I4
I2
I4
I2
I14
I5
I-5
tp1504
a(I1
I-1
I0
I-3
I-6
I-8
I3
I2
tp1505
a(I-1
I-3
I-1
I-1
I1
I8
I-4
I-5
tp1506
a(I1
I1
I-1
I1
I2
I14
I12
I0
tp1507
a(I2
I-1
I-2
I-2
I-1
I-13
I-22
I4
tp1508
a(I2
I3
I2
I3
I9
I28
I30
I11
tp1509
a(I-3
I-3
I-4
I-1
I2
I-5
I-13
I-6
tp1510
a(I-2
I-2
I-1
I-3
I-4
I-2
I-15
I-12
tp1511
a(I-2
I-1
I1
I4
I2
I0
I1
I-2
tp1512
a(I-3
I-1
I-3
I-1
I-3
I-11
I-13
I-7
tp1513
a(I2
I-1
I-1
I3
I5
I7
I4
I1
tp1514
a(I2
I1
I0
I0
I0
I13
I-10
I3
tp1515
a(I-2
I-2
I0
I-1
I3
I1
I-3
I-5
tp1516
a(I-2
I-2
I-2
I-1
I-2
I-2
I-7
I4
tp1517
a(I-3
I0
I0
I-3
I-4
I-9
I-5
I1
tp1518
a(I2
I0
I-2
I-5
I-1
I-5
I-1
I1
tp1519
a(I-3
I-2
I1
I1
I0
I1
I10
I-4
tp1520
a(I2
I0
I1
I1
I4
I20
I-15
I9
tp1521
a(I0
I-1
I1
I-2
I-3
I-3
I-6
I-2
tp1522
a(I-2
I-1
I-2
I-1
I-1
I8
I-10
I-12
tp1523
a(I2
I0
I-1
I-1
I-2
I-37
I10
I23
tp1524
a(I-1
I0
I-1
I-2
I-4
I2
I7
I-7
tp1525
a(I-2
I0
I0
I0
I-4
I-6
I-2
I-3
tp1526
a(I0
I0
I2
I1
I1
I-3
I-6
I2
tp1527
a(I-1
I0
I1
I-1
I-2
I2
I-8
I-11
tp1528
a(I-1
I-3
I0
I-1
I-2
I-12
I-3
I4
tp1529
a(I1
I3
I0
I0
I1
I12
I2
I-2
tp1530
a(I-3
I-3
I-2
I-1
I-1
I-21
I15
I3
tp1531
a(I1
I1
I0
I0
I1
I13
I-15
I-5
tp1532
a(I2
I1
I0
I-2
I-2
I-11
I-2
I-8
tp1533
a(I1
I-4
I-4
I-3
I-5
I-10
I0
I2
tp1534
a(I1
I-1
I1
I3
I3
I19
I5
I11
tp1535
a(I-2
I0
I1
I-1
I-2
I1
I-5
I-4
tp1536
a(I-3
I-2
I0
I-2
I-2
I-7
I-3
I-9
tp1537
a(I0
I0
I3
I5
I0
I-6
I-10
I-1
tp1538
a(I-1
I0
I-4
I-4
I-1
I2
I8
I-6
tp1539
a(I2
I0
I0
I0
I1
I19
I21
I12
tp1540
a(I-1
I-2
I-2
I-3
I-4
I-4
I-19
I-5
tp1541
a(I-1
I-1
I1
I1
I3
I3
I14
I2
tp1542
a(I1
I-1
I0
I-2
I-6
I-14
I3
I-1
tp1543
a(I-2
I0
I-2
I-2
I-1
I4
I-4
I-5
tp1544
a(I1
I0
I0
I-1
I0
I-2
I6
I3
tp1545
a(I-3
I-2
I-3
I-4
I-2
I10
I-10
I0
tp1546
a(I0
I0
I1
I2
I0
I-4
I1
I-3
tp1547
a(I-3
I0
I-3
I0
I4
I19
I-4
I-10
tp1548
a(I2
I1
I-1
I1
I-1
I-3
I-6
I-4
tp1549
a(I1
I-2
I-2
I-1
I-2
I-9
I1
I11
tp1550
a(I-3
I0
I1
I-1
I2
I25
I7
I-10
tp1551
a(I-2
I-2
I0
I-2
I-4
I-20
I-7
I7
tp1552
a(I-3
I0
I1
I2
I5
I20
I1
I-11
tp1553
a(I1
I-1
I-3
I-2
I-1
I10
I13
I5
tp1554
a(I-2
I0
I0
I1
I3
I-1
I-16
I-5
tp1555
a(I1
I-1
I-1
I-3
I-9
I-12
I7
I4
tp1556
a(I-1
I-2
I-1
I-1
I-2
I-5
I0
I7
tp1557
a(I1
I0
I0
I0
I-2
I-11
I-4
I-4
tp1558
a(I0
I-1
I-2
I-3
I-3
I-9
I18
I4
tp1559
a(I1
I-2
I-2
I-1
I4
I17
I-4
I-1
tp1560
a(I-2
I0
I1
I1
I-1
I-19
I-2
I2
tp1561
a(I-2
I-1
I-2
I0
I-2
I5
I-2
I-12
tp1562
a(I-1
I-2
I-3
I-3
I-5
I-13
I-10
I9
tp1563
a(I-1
I2
I3
I1
I1
I-10
I-17
I-5
tp1564
a(I0
I1
I-1
I-1
I0
I10
I28
I7
tp1565
a(I-1
I1
I1
I-2
I-2
I-2
I3
I-2
tp1566
a(I0
I0
I-1
I2
I0
I0
I-7
I-3
tp1567
a(I1
I-1
I0
I2
I5
I12
I2
I-4
tp1568
a(I0
I-3
I0
I0
I0
I-4
I4
I-1
tp1569
a(I1
I0
I-1
I-2
I0
I6
I2
I5
tp1570
a(I-2
I-2
I-2
I0
I-3
I-18
I-9
I-1
tp1571
a(I-1
I-2
I1
I1
I-2
I-2
I-5
I-1
tp1572
a(I-2
I0
I0
I-2
I-2
I-7
I-10
I-8
tp1573
a(I2
I-1
I-1
I1
I2
I5
I15
I11
tp1574
a(I0
I-2
I0
I-1
I-3
I-8
I4
I6
tp1575
a(I0
I0
I-1
I-1
I1
I1
I-10
I-5
tp1576
a(I-3
I1
I0
I1
I2
I1
I-1
I1
tp1577
a(I1
I-2
I-1
I0
I-3
I0
I2
I-4
tp1578
a(I0
I-1
I-2
I-1
I0
I-2
I-5
I-1
tp1579
a(I-2
I-1
I1
I2
I2
I-7
I-14
I-6
tp1580
a(I1
I0
I-1
I-1
I-1
I2
I-9
I4
tp1581
a(I-4
I-3
I-3
I-3
I-3
I-10
I8
I2
tp1582
a(I1
I3
I1
I0
I0
I19
I6
I6
tp1583
a(I-2
I-1
I-6
I-5
I-5
I-21
I1
I-1
tp1584
a(I0
I-1
I1
I0
I-1
I-12
I-5
I-9
tp1585
a(I-2
I1
I0
I-2
I-2
I1
I-16
I-13
tp1586
a(I-2
I-3
I-1
I-3
I-5
I-8
I-2
I2
tp1587
a(I-1
I0
I-1
I1
I4
I8
I8
I2
tp1588
a(I2
I1
I1
I2
I2
I14
I18
I9
tp1589
a(I0
I2
I0
I-1
I0
I-4
I6
I1
tp1590
a(I0
I-2
I-4
I-1
I-5
I-12
I-8
I-7
tp1591
a(I0
I-1
I0
I-3
I-7
I-7
I10
I4
tp1592
a(I-1
I-2
I-1
I0
I-1
I1
I1
I-3
tp1593
a(I1
I1
I0
I0
I-1
I5
I-5
I2
tp1594
a(I-1
I-1
I0
I0
I0
I-11
I0
I-2
tp1595
a(I-1
I-2
I-3
I-2
I1
I5
I-4
I0
tp1596
a(I0
I0
I0
I-1
I3
I7
I-4
I3
tp1597
a(I-2
I-1
I-2
I-1
I-6
I-24
I14
I-8
tp1598
a(I3
I2
I0
I0
I2
I27
I11
I6
tp1599
a(I-2
I-3
I-3
I-1
I-4
I-6
I9
I-2
tp1600
a(I3
I0
I-1
I-1
I1
I8
I7
I7
tp1601
a(I-1
I1
I1
I2
I2
I-4
I-15
I-12
tp1602
a(I-2
I-1
I0
I-2
I-2
I1
I1
I-2
tp1603
a(I2
I2
I3
I0
I-1
I-19
I-4
I-1
tp1604
a(I-1
I-2
I-2
I-1
I-1
I18
I-2
I-7
tp1605
a(I-1
I0
I2
I3
I5
I13
I-1
I5
tp1606
a(I0
I0
I-1
I0
I0
I-6
I-1
I-2
tp1607
a(I0
I1
I2
I2
I2
I-4
I-6
I-5
tp1608
a(I-1
I-2
I-1
I-1
I-1
I-5
I1
I2
tp1609
a(I-1
I-1
I2
I-2
I-3
I-1
I-1
I2
tp1610
a(I1
I0
I-3
I-2
I0
I-3
I-1
I1
tp1611
a(I-2
I-2
I-1
I-1
I2
I13
I5
I5
tp1612
a(I2
I0
I1
I2
I0
I0
I-1
I-4
tp1613
a(I0
I-3
I-3
I-2
I-2
I-17
I2
I11
tp1614
a(I-2
I-2
I0
I0
I-1
I-4
I8
I0
tp1615
a(I2
I0
I2
I1
I4
I12
I9
I2
tp1616
a(I-1
I-1
I-2
I-2
I-3
I-8
I-9
I-5
tp1617
a(I-2
I-1
I-2
I-4
I-4
I-16
I-11
I-3
tp1618
a(I-1
I0
I0
I0
I0
I-14
I-13
I0
tp1619
a(I2
I2
I1
I4
I8
I30
I20
I2
tp1620
a(I-1
I-1
I2
I0
I-2
I0
I-18
I-7
tp1621
a(I0
I0
I-3
I-2
I-2
I1
I-6
I-4
tp1622
a(I2
I0
I3
I4
I4
I8
I10
I1
tp1623
a(I-1
I-1
I-3
I-5
I-3
I-14
I-13
I-5
tp1624
a(I-4
I0
I0
I0
I3
I15
I8
I-2
tp1625
a(I1
I1
I3
I1
I-3
I0
I-3
I3
tp1626
a(I-3
I-1
I-1
I-2
I-6
I7
I-22
I-10
tp1627
a(I0
I0
I0
I0
I-1
I4
I-1
I3
tp1628
a(I-1
I-1
I-1
I0
I2
I-4
I-1
I0
tp1629
a(I0
I-1
I0
I0
I1
I-1
I3
I-4
tp1630
a(I1
I-1
I-1
I-1
I-1
I1
I-3
I2
tp1631
a(I-1
I0
I-1
I0
I0
I3
I-3
I-2
tp1632
a(I0
I-1
I0
I-1
I-1
I-3
I0
I-3
tp1633
a(I-1
I0
I-2
I-2
I-3
I4
I14
I5
tp1634
a(I-3
I-2
I-1
I2
I1
I4
I-17
I-6
tp1635
a(I-2
I-2
I-2
I-3
I-1
I-13
I-5
I-7
tp1636
a(I3
I-1
I-1
I-1
I-3
I-3
I13
I18
tp1637
a(I-1
I-2
I-3
I0
I2
I0
I3
I0
tp1638
a(I-1
I-1
I0
I-3
I-1
I-5
I3
I7
tp1639
a(I-1
I-1
I0
I0
I0
I-21
I-7
I0
tp1640
a(I0
I1
I-2
I-2
I0
I22
I-9
I-10
tp1641
a(I1
I-2
I-3
I-2
I0
I1
I5
I-4
tp1642
a(I-1
I1
I-2
I0
I5
I17
I11
I-2
tp1643
a(I-2
I-3
I-1
I-2
I-7
I-18
I17
I6
tp1644
a(I-1
I1
I2
I-1
I-1
I-19
I-16
I-1
tp1645
a(I0
I0
I-1
I-2
I2
I7
I-1
I-1
tp1646
a(I2
I0
I-1
I0
I-1
I-14
I5
I-1
tp1647
a(I0
I0
I2
I-1
I1
I18
I-20
I-9
tp1648
a(I0
I-3
I-3
I-2
I-5
I-37
I5
I8
tp1649
a(I-1
I-1
I1
I3
I6
I41
I27
I2
tp1650
a(I-1
I0
I-1
I0
I-3
I-9
I-6
I-11
tp1651
a(I-1
I0
I1
I0
I0
I10
I-8
I2
tp1652
a(I0
I1
I-1
I0
I1
I-10
I1
I6
tp1653
a(I-2
I0
I-1
I-2
I-2
I-13
I-25
I-14
tp1654
a(I-1
I-3
I-1
I-1
I-1
I13
I0
I8
tp1655
a(I1
I-2
I-2
I-3
I-3
I-14
I-10
I-1
tp1656
a(I-1
I0
I-2
I-3
I0
I19
I10
I-5
tp1657
a(I1
I-1
I-1
I1
I2
I1
I2
I0
tp1658
a(I-2
I-1
I1
I1
I1
I-4
I-1
I-7
tp1659
a(I1
I-3
I-2
I0
I2
I-5
I9
I11
tp1660
a(I-2
I0
I2
I0
I0
I-1
I-2
I-4
tp1661
a(I2
I0
I0
I0
I4
I18
I-16
I-1
tp1662
a(I0
I-2
I0
I1
I-3
I-11
I-1
I-2
tp1663
a(I0
I0
I0
I-1
I-1
I6
I4
I-1
tp1664
a(I-1
I0
I-1
I0
I0
I3
I3
I-1
tp1665
a(I0
I-2
I-1
I-2
I-3
I-11
I-12
I-3
tp1666
a(I-1
I1
I1
I-1
I1
I-1
I-26
I-9
tp1667
a(I-2
I-3
I-3
I-1
I2
I-14
I10
I6
tp1668
a(I0
I-1
I-1
I0
I2
I19
I18
I4
tp1669
a(I2
I1
I2
I3
I2
I4
I19
I12
tp1670
a(I2
I0
I0
I-2
I0
I-7
I-3
I-5
tp1671
a(I0
I-1
I-2
I0
I-6
I-11
I-17
I-7
tp1672
a(I-2
I-2
I-2
I-2
I-8
I-14
I-17
I-9
tp1673
a(I-3
I-1
I-3
I-1
I4
I3
I12
I-2
tp1674
a(I2
I-2
I0
I-1
I-2
I-3
I12
I7
tp1675
a(I0
I3
I1
I5
I5
I11
I-8
I-2
tp1676
a(I-1
I-2
I0
I1
I3
I0
I-9
I-7
tp1677
a(I-1
I-2
I-1
I-5
I-8
I-15
I6
I-1
tp1678
a(I-2
I-1
I-2
I-2
I1
I2
I0
I-2
tp1679
a(I1
I1
I1
I-3
I-3
I4
I-4
I-1
tp1680
a(I1
I1
I0
I2
I6
I27
I8
I9
tp1681
a(I0
I0
I-1
I0
I2
I-3
I9
I-1
tp1682
a(I-1
I0
I-2
I-3
I-3
I-3
I-1
I4
tp1683
a(I-4
I-1
I-2
I0
I-2
I-6
I5
I-7
tp1684
a(I0
I-1
I0
I0
I0
I-4
I-16
I-3
tp1685
a(I-1
I0
I-1
I-2
I-3
I-4
I-10
I-2
tp1686
a(I0
I-1
I-2
I-1
I-1
I1
I5
I6
tp1687
a(I-2
I-1
I-3
I-1
I-4
I0
I2
I2
tp1688
a(I3
I2
I0
I0
I2
I-2
I18
I10
tp1689
a(I-4
I-2
I-3
I-5
I-5
I-6
I-7
I-4
tp1690
a(I0
I-1
I1
I2
I-1
I-21
I-6
I5
tp1691
a(I0
I1
I4
I2
I5
I26
I-6
I-11
tp1692
a(I-1
I1
I-1
I-3
I0
I-7
I3
I-3
tp1693
a(I1
I2
I5
I3
I-1
I-5
I-9
I-2
tp1694
a(I-1
I-2
I-2
I-1
I0
I1
I3
I-1
tp1695
a(I2
I2
I1
I1
I-1
I3
I-3
I5
tp1696
a(I-5
I-1
I-1
I-3
I-3
I-9
I-24
I-21
tp1697
a(I-4
I-4
I-4
I-3
I-5
I-22
I10
I14
tp1698
a(I2
I0
I-2
I-1
I1
I9
I1
I2
tp1699
a(I0
I-1
I-2
I-1
I1
I13
I18
I7
tp1700
a(I0
I-2
I-1
I-2
I-5
I-11
I1
I2
tp1701
a(I-2
I1
I1
I2
I0
I1
I-11
I-9
tp1702
a(I-4
I-3
I-1
I-1
I-4
I-2
I0
I-2
tp1703
a(I-2
I-2
I-5
I-3
I-3
I-11
I-6
I4
tp1704
a(I2
I1
I3
I1
I1
I-12
I14
I4
tp1705
a(I0
I-1
I0
I-1
I-2
I8
I-2
I-6
tp1706
a(I1
I1
I-1
I0
I0
I13
I16
I3
tp1707
a(I0
I2
I1
I0
I3
I3
I-2
I-2
tp1708
a(I0
I0
I-2
I0
I-1
I-7
I-19
I-2
tp1709
a(I2
I1
I0
I-2
I0
I6
I-3
I0
tp1710
a(I-2
I-1
I2
I0
I-2
I4
I-8
I-6
tp1711
a(I-1
I0
I1
I0
I-3
I-3
I-2
I4
tp1712
a(I0
I-1
I-1
I0
I3
I11
I11
I2
tp1713
a(I-2
I-2
I-2
I-1
I0
I-4
I-11
I-11
tp1714
a(I-1
I0
I-1
I-1
I2
I-5
I-2
I5
tp1715
a(I1
I-2
I-2
I-1
I-5
I-18
I-3
I0
tp1716
a(I1
I0
I1
I3
I7
I30
I16
I0
tp1717
a(I-1
I0
I0
I0
I-2
I0
I-4
I2
tp1718
a(I-1
I-1
I-2
I-3
I-5
I-7
I3
I2
tp1719
a(I2
I-1
I0
I0
I2
I-6
I9
I0
tp1720
a(I-1
I-3
I-1
I-1
I-6
I-11
I15
I-3
tp1721
a(I2
I0
I-1
I1
I3
I-1
I6
I10
tp1722
a(I-4
I-2
I1
I-3
I-1
I-7
I-9
I-5
tp1723
a(I-1
I-1
I-1
I-4
I-6
I4
I-4
I1
tp1724
a(I0
I-1
I-1
I-2
I0
I6
I4
I7
tp1725
a(I1
I1
I0
I2
I1
I-24
I-10
I-9
tp1726
a(I0
I1
I0
I3
I7
I44
I6
I0
tp1727
a(I-2
I-1
I-2
I-4
I-6
I-15
I4
I-6
tp1728
a(I-1
I-2
I-2
I-2
I-2
I-8
I-1
I8
tp1729
a(I0
I0
I-1
I-2
I-3
I5
I0
I4
tp1730
a(I0
I0
I-1
I1
I0
I-3
I11
I-3
tp1731
a(I-2
I-2
I-1
I1
I-1
I11
I-9
I-2
tp1732
a(I0
I0
I-2
I-2
I1
I-12
I-6
I-2
tp1733
a(I-2
I-2
I-1
I-2
I-2
I-1
I-4
I-8
tp1734
a(I0
I-2
I-1
I-1
I-6
I-28
I-9
I-7
tp1735
a(I0
I-3
I-3
I-3
I-7
I0
I17
I15
tp1736
a(I1
I-2
I-1
I0
I0
I4
I18
I0
tp1737
a(I-1
I-1
I-1
I0
I4
I11
I-6
I-2
tp1738
a(I1
I1
I-1
I-2
I0
I5
I-16
I0
tp1739
a(I0
I3
I1
I2
I1
I-11
I-5
I2
tp1740
a(I0
I2
I1
I1
I2
I7
I0
I-1
tp1741
a(I1
I0
I0
I-3
I-1
I8
I8
I0
tp1742
a(I0
I0
I0
I3
I1
I-4
I-8
I-3
tp1743
a(I-2
I-3
I-4
I-2
I1
I3
I-9
I-6
tp1744
a(I0
I1
I-1
I0
I-2
I-12
I-20
I-7
tp1745
a(I-1
I-1
I-2
I-4
I-3
I14
I8
I6
tp1746
a(I-3
I1
I1
I-2
I-5
I-8
I-3
I-4
tp1747
a(I2
I-1
I-1
I-1
I1
I5
I12
I5
tp1748
a(I-4
I-2
I1
I0
I1
I5
I-10
I-8
tp1749
a(I1
I-1
I0
I0
I1
I-4
I1
I-7
tp1750
a(I3
I-2
I-3
I1
I2
I0
I3
I11
tp1751
a(I-1
I0
I2
I3
I2
I-2
I0
I-7
tp1752
a(I2
I-1
I-1
I1
I0
I7
I-4
I2
tp1753
a(I-4
I-2
I-3
I-4
I-2
I-2
I-11
I-11
tp1754
a(I-3
I0
I0
I1
I2
I-14
I-5
I-5
tp1755
a(I-1
I0
I-2
I0
I0
I12
I8
I3
tp1756
a(I0
I0
I-1
I-2
I-4
I-8
I-10
I-2
tp1757
a(I1
I0
I-2
I2
I0
I-10
I4
I-2
tp1758
a(I-2
I-1
I-3
I0
I1
I6
I1
I8
tp1759
a(I-2
I-1
I-1
I-1
I-3
I-11
I-7
I-7
tp1760
a(I0
I-1
I2
I-1
I-2
I3
I8
I12
tp1761
a(I0
I-1
I2
I3
I9
I8
I-6
I-9
tp1762
a(I1
I1
I-1
I-1
I-4
I-23
I13
I2
tp1763
a(I-4
I-3
I-2
I-1
I-4
I-10
I8
I-3
tp1764
a(I2
I0
I-1
I0
I3
I28
I9
I3
tp1765
a(I-1
I0
I-3
I-2
I-5
I-18
I-9
I5
tp1766
a(I-1
I0
I0
I0
I2
I7
I-6
I-7
tp1767
a(I-2
I0
I0
I0
I1
I13
I-16
I3
tp1768
a(I-2
I-1
I-1
I-2
I-1
I-25
I-2
I-6
tp1769
a(I1
I1
I2
I1
I2
I20
I6
I2
tp1770
a(I-1
I-1
I-2
I-1
I1
I8
I6
I3
tp1771
a(I0
I0
I0
I0
I-1
I-6
I-20
I-9
tp1772
a(I0
I0
I-2
I0
I-2
I5
I27
I9
tp1773
a(I-1
I-2
I1
I3
I-2
I-9
I-12
I-5
tp1774
a(I1
I-2
I-1
I1
I5
I8
I-2
I-2
tp1775
a(I1
I0
I1
I0
I0
I-10
I5
I7
tp1776
a(I-3
I-3
I-3
I0
I-1
I-1
I13
I4
tp1777
a(I0
I-1
I-1
I-3
I-7
I-15
I-3
I-1
tp1778
a(I-3
I-2
I-1
I-3
I-3
I6
I-7
I-13
tp1779
a(I3
I1
I-1
I-2
I2
I-1
I16
I8
tp1780
a(I-3
I0
I-1
I-3
I-2
I-3
I-16
I-7
tp1781
a(I1
I1
I-2
I0
I-3
I-5
I8
I8
tp1782
a(I-2
I-1
I-1
I0
I-5
I-21
I4
I0
tp1783
a(I-3
I-2
I0
I-1
I0
I7
I-19
I-8
tp1784
a(I0
I-2
I-1
I-2
I-3
I-5
I13
I-3
tp1785
a(I-1
I-1
I0
I-2
I-3
I-15
I-7
I-1
tp1786
a(I0
I-1
I1
I2
I4
I13
I-4
I-2
tp1787
a(I-1
I0
I1
I0
I4
I8
I2
I1
tp1788
a(I-1
I-2
I1
I-2
I-5
I-15
I-13
I-1
tp1789
a(I0
I-2
I-2
I-1
I-2
I6
I2
I1
tp1790
a(I0
I1
I-2
I-3
I-4
I-17
I7
I6
tp1791
a(I2
I1
I3
I2
I2
I7
I0
I-9
tp1792
a(I-1
I0
I0
I2
I1
I6
I-15
I2
tp1793
a(I0
I-2
I-3
I-3
I-4
I-8
I15
I-1
tp1794
a(I0
I-1
I0
I-1
I-2
I-25
I-1
I7
tp1795
a(I-1
I-1
I-1
I0
I0
I20
I12
I-1
tp1796
a(I1
I0
I0
I-2
I0
I-10
I-2
I-1
tp1797
a(I-3
I-3
I0
I-1
I0
I9
I-14
I-7
tp1798
a(I2
I-1
I1
I-1
I0
I0
I11
I0
tp1799
a(I1
I2
I3
I1
I1
I-2
I-9
I5
tp1800
a(I-5
I-6
I-5
I-4
I-2
I-1
I-5
I-12
tp1801
a(I2
I1
I1
I2
I8
I7
I5
I16
tp1802
a(I-1
I1
I0
I0
I-1
I3
I3
I-5
tp1803
a(I1
I-1
I-1
I0
I-3
I-4
I3
I1
tp1804
a(I0
I2
I0
I0
I0
I1
I-1
I-3
tp1805
a(I-3
I-2
I-2
I-4
I-2
I1
I-9
I-8
tp1806
a(I1
I0
I1
I-1
I-2
I-7
I-5
I4
tp1807
a(I1
I-1
I-2
I2
I2
I-3
I8
I1
tp1808
a(I0
I1
I0
I2
I1
I2
I-5
I1
tp1809
a(I-2
I-1
I-2
I0
I-2
I-6
I7
I-1
tp1810
a(I-1
I-2
I-2
I-3
I-6
I-3
I5
I-1
tp1811
a(I-2
I0
I-1
I-1
I-3
I-9
I-3
I-1
tp1812
a(I1
I1
I0
I-2
I0
I13
I2
I7
tp1813
a(I2
I3
I4
I5
I2
I-1
I2
I-4
tp1814
a(I-1
I-1
I-1
I1
I3
I24
I-8
I-10
tp1815
a(I-4
I-1
I0
I-1
I-3
I-10
I-7
I-13
tp1816
a(I0
I2
I1
I0
I1
I7
I-3
I-3
tp1817
a(I1
I-3
I-3
I-1
I-3
I-8
I-2
I4
tp1818
a(I-2
I-1
I-1
I-4
I-7
I-9
I-7
I0
tp1819
a(I1
I1
I2
I0
I8
I14
I-1
I-1
tp1820
a(I0
I1
I-1
I0
I-1
I0
I0
I-1
tp1821
a(I-2
I1
I1
I1
I-1
I9
I-7
I-2
tp1822
a(I1
I-2
I-2
I-2
I-3
I1
I-2
I8
tp1823
a(I0
I0
I-2
I-1
I-3
I-9
I-4
I2
tp1824
a(I2
I-2
I-1
I0
I1
I2
I-8
I-5
tp1825
a(I0
I-2
I-4
I-2
I0
I8
I2
I-3
tp1826
a(I2
I1
I3
I2
I-1
I-3
I-2
I9
tp1827
a(I-3
I0
I1
I1
I4
I20
I-3
I-4
tp1828
a(I-1
I-4
I-2
I-5
I-8
I-25
I-1
I2
tp1829
a(I0
I1
I-3
I-3
I-4
I-6
I3
I-5
tp1830
a(I-2
I0
I3
I6
I7
I7
I0
I-6
tp1831
a(I-1
I-1
I-2
I-4
I-4
I-5
I7
I4
tp1832
a(I-1
I-2
I2
I-1
I-1
I-1
I-10
I-4
tp1833
a(I0
I0
I-1
I-1
I-1
I4
I2
I2
tp1834
a(I0
I0
I-1
I0
I-1
I-8
I2
I1
tp1835
a(I1
I-1
I-1
I2
I1
I15
I12
I-1
tp1836
a(I-1
I1
I-1
I1
I3
I8
I-1
I-5
tp1837
a(I0
I0
I-1
I-4
I-2
I-13
I2
I4
tp1838
a(I-1
I-2
I-1
I0
I3
I15
I-8
I-4
tp1839
a(I1
I2
I1
I2
I-2
I-3
I-9
I6
tp1840
a(I0
I-1
I-4
I-2
I-1
I-3
I-1
I0
tp1841
a(I1
I0
I1
I0
I3
I7
I10
I2
tp1842
a(I0
I1
I1
I-1
I0
I-3
I-9
I-5
tp1843
a(I-2
I-3
I-3
I-2
I-5
I-19
I-6
I-5
tp1844
a(I-3
I-2
I3
I2
I1
I9
I5
I6
tp1845
a(I-2
I-3
I1
I2
I6
I3
I-18
I-10
tp1846
a(I-1
I0
I-1
I-1
I-6
I1
I3
I-4
tp1847
a(I0
I-2
I-1
I-2
I1
I0
I-3
I-5
tp1848
a(I0
I1
I2
I3
I2
I2
I1
I-3
tp1849
a(I-1
I0
I-1
I0
I1
I7
I12
I5
tp1850
a(I-2
I-3
I-3
I-4
I-4
I-12
I4
I0
tp1851
a(I1
I0
I-1
I-1
I2
I5
I2
I-8
tp1852
a(I1
I1
I0
I-1
I0
I12
I3
I6
tp1853
a(I-2
I0
I0
I-3
I-6
I-10
I-25
I-9
tp1854
a(I2
I0
I1
I1
I-1
I3
I9
I15
tp1855
a(I-5
I0
I-1
I-2
I3
I23
I-17
I-15
tp1856
a(I-1
I-1
I-2
I-2
I-10
I-32
I16
I5
tp1857
a(I-1
I-3
I-1
I-2
I-1
I0
I0
I0
tp1858
a(I0
I-1
I-2
I-2
I1
I11
I2
I-5
tp1859
a(I-1
I0
I-1
I2
I0
I-7
I-16
I-4
tp1860
a(I2
I-3
I-2
I-1
I0
I4
I7
I8
tp1861
a(I-1
I-1
I-2
I3
I0
I-2
I0
I-6
tp1862
a(I-1
I-1
I-2
I-2
I-3
I-12
I-5
I-2
tp1863
a(I2
I0
I-2
I-1
I-3
I-8
I12
I5
tp1864
a(I-2
I-1
I-2
I-1
I2
I2
I-13
I-9
tp1865
a(I2
I0
I1
I0
I0
I14
I14
I8
tp1866
a(I-3
I-4
I-5
I-5
I-4
I-14
I1
I1
tp1867
a(I-1
I0
I-1
I2
I-1
I-3
I2
I2
tp1868
a(I0
I0
I0
I0
I1
I-15
I0
I-1
tp1869
a(I-1
I-2
I-2
I-2
I4
I20
I-3
I3
tp1870
a(I0
I1
I1
I2
I0
I-12
I-6
I-8
tp1871
a(I-1
I0
I1
I1
I5
I17
I-7
I0
tp1872
a(I-2
I0
I2
I1
I1
I-6
I-4
I-5
tp1873
a(I1
I0
I-1
I0
I-2
I4
I7
I5
tp1874
a(I1
I1
I0
I0
I-4
I-7
I23
I5
tp1875
a(I-3
I-2
I0
I-3
I-2
I-11
I-7
I-7
tp1876
a(I1
I-2
I-1
I-3
I-4
I-3
I8
I7
tp1877
a(I-1
I-1
I-2
I-1
I-2
I-10
I-7
I-4
tp1878
a(I0
I1
I1
I2
I3
I10
I-5
I4
tp1879
a(I-1
I-2
I-1
I-2
I-3
I-12
I3
I-1
tp1880
a(I0
I0
I-1
I1
I1
I9
I5
I11
tp1881
a(I1
I-1
I0
I-3
I-2
I1
I-8
I1
tp1882
a(I-3
I-2
I1
I2
I5
I12
I-4
I-11
tp1883
a(I0
I-2
I-2
I-1
I-4
I-5
I4
I3
tp1884
a(I-2
I-1
I-2
I-3
I2
I-4
I-11
I-7
tp1885
a(I-1
I0
I0
I0
I0
I-13
I-1
I-4
tp1886
a(I1
I1
I0
I2
I7
I23
I-6
I0
tp1887
a(I1
I0
I1
I-2
I-1
I-10
I5
I6
tp1888
a(I-2
I-1
I-1
I-1
I-2
I-4
I13
I2
tp1889
a(I-1
I-3
I1
I2
I1
I1
I-4
I-1
tp1890
a(I0
I-3
I-2
I-5
I-6
I-14
I-8
I-6
tp1891
a(I-3
I-2
I-2
I-1
I1
I-5
I4
I3
tp1892
a(I0
I0
I-2
I0
I-1
I-2
I-12
I-4
tp1893
a(I-2
I1
I0
I2
I2
I-1
I-1
I-14
tp1894
a(I0
I-1
I-1
I0
I0
I0
I5
I10
tp1895
a(I-1
I-1
I-1
I-1
I-1
I6
I12
I9
tp1896
a(I0
I0
I-2
I-1
I0
I8
I-15
I-9
tp1897
a(I1
I1
I1
I1
I-1
I-4
I0
I5
tp1898
a(I-1
I0
I0
I0
I1
I10
I0
I-3
tp1899
a(I0
I-1
I-1
I-4
I-1
I9
I3
I-10
tp1900
a(I1
I-3
I-1
I2
I-3
I-7
I7
I15
tp1901
a(I-1
I-1
I-2
I-2
I-10
I-16
I-3
I-4
tp1902
a(I-1
I-1
I1
I0
I-1
I-13
I-3
I6
tp1903
a(I1
I1
I1
I1
I3
I29
I-4
I-12
tp1904
a(I-2
I-1
I-2
I-2
I-3
I3
I-4
I-6
tp1905
a(I1
I0
I-2
I-3
I-1
I-6
I2
I5
tp1906
a(I-4
I0
I0
I1
I0
I-5
I-12
I-5
tp1907
a(I0
I-2
I-2
I-2
I-2
I-11
I4
I2
tp1908
a(I-2
I0
I2
I2
I-2
I-6
I-8
I-3
tp1909
a(I2
I1
I1
I-2
I2
I10
I4
I2
tp1910
a(I1
I0
I1
I2
I4
I20
I5
I-3
tp1911
a(I-1
I-1
I-2
I1
I-3
I-13
I-15
I-6
tp1912
a(I2
I-1
I0
I-4
I-2
I1
I18
I6
tp1913
a(I-3
I-1
I-1
I0
I-2
I-9
I-2
I-3
tp1914
a(I2
I1
I0
I0
I3
I5
I-11
I0
tp1915
a(I0
I-1
I-1
I-1
I-4
I-1
I-3
I2
tp1916
a(I3
I1
I1
I1
I7
I31
I4
I-3
tp1917
a(I1
I-1
I-3
I0
I1
I10
I-4
I4
tp1918
a(I-2
I0
I-1
I-1
I-3
I-10
I-3
I-6
tp1919
a(I-2
I0
I0
I0
I-1
I-11
I-4
I-6
tp1920
a(I-1
I0
I0
I1
I3
I-5
I-4
I-2
tp1921
a(I0
I0
I0
I-1
I0
I8
I-1
I-1
tp1922
a(I0
I-2
I-1
I-3
I-3
I1
I8
I5
tp1923
a(I-3
I-1
I-1
I1
I-1
I-7
I9
I-3
tp1924
a(I-3
I1
I3
I2
I5
I16
I-24
I-12
tp1925
a(I-2
I-3
I-3
I-3
I-6
I-12
I-1
I0
tp1926
a(I2
I1
I1
I-1
I3
I0
I13
I4
tp1927
a(I2
I1
I4
I5
I4
I13
I-4
I4
tp1928
a(I-1
I1
I0
I-1
I-4
I-14
I-14
I-10
tp1929
a(I1
I2
I-2
I-4
I-4
I1
I11
I13
tp1930
a(I-2
I0
I0
I1
I-1
I0
I1
I1
tp1931
a(I0
I-1
I-2
I1
I4
I7
I-1
I-3
tp1932
a(I-2
I1
I-1
I0
I0
I-3
I-9
I-11
tp1933
a(I2
I2
I2
I3
I0
I-5
I3
I12
tp1934
a(I0
I-3
I-2
I-2
I-3
I-1
I10
I5
tp1935
a(I-2
I-2
I0
I-3
I-2
I-3
I6
I3
tp1936
a(I-1
I-3
I-3
I-4
I-6
I-10
I3
I7
tp1937
a(I0
I0
I-1
I-1
I-1
I8
I0
I-2
tp1938
a(I-1
I-1
I-2
I-3
I-1
I-17
I-13
I-4
tp1939
a(I-1
I1
I1
I0
I0
I7
I4
I-9
tp1940
a(I-1
I-2
I-4
I-3
I-5
I-6
I1
I7
tp1941
a(I0
I-1
I-2
I-1
I-2
I-2
I4
I4
tp1942
a(I-1
I1
I1
I5
I6
I15
I22
I-1
tp1943
a(I0
I-1
I-1
I-3
I-2
I-21
I-6
I2
tp1944
a(I0
I-2
I-1
I-4
I-4
I-4
I2
I-6
tp1945
a(I-2
I2
I-1
I0
I3
I14
I-18
I-13
tp1946
a(I-3
I-3
I-1
I-3
I-7
I-17
I-14
I4
tp1947
a(I-2
I0
I-1
I0
I0
I-2
I-10
I-6
tp1948
a(I2
I-1
I1
I3
I4
I12
I34
I10
tp1949
a(I-1
I0
I0
I-1
I-5
I-1
I-11
I-2
tp1950
a(I0
I-2
I-2
I-3
I-2
I2
I-17
I-11
tp1951
a(I-3
I-1
I1
I2
I0
I0
I8
I0
tp1952
a(I0
I-3
I-5
I-4
I-7
I-7
I-1
I0
tp1953
a(I1
I1
I0
I0
I1
I-1
I-4
I-1
tp1954
a(I0
I0
I-1
I2
I-1
I-6
I14
I0
tp1955
a(I0
I-2
I-1
I-1
I-3
I-3
I4
I8
tp1956
a(I-2
I1
I1
I0
I0
I4
I-11
I-10
tp1957
a(I-2
I-2
I-1
I-2
I-1
I-18
I-1
I-4
tp1958
a(I-1
I-2
I-2
I1
I2
I6
I-1
I-6
tp1959
a(I0
I0
I-2
I-1
I0
I11
I4
I0
tp1960
a(I-1
I-1
I0
I1
I0
I-9
I-3
I1
tp1961
a(I-1
I-3
I0
I-3
I-4
I-7
I-4
I-3
tp1962
a(I-4
I-1
I-1
I-1
I-4
I-18
I-5
I0
tp1963
a(I-1
I0
I-2
I-1
I2
I-7
I18
I0
tp1964
a(I0
I1
I1
I1
I2
I9
I8
I9
tp1965
a(I-2
I-3
I-2
I-2
I2
I6
I-9
I-4
tp1966
a(I-1
I1
I1
I-2
I-6
I-1
I-11
I-2
tp1967
a(I0
I-2
I-1
I1
I2
I11
I-23
I-6
tp1968
a(I0
I1
I-1
I-2
I-1
I-12
I-4
I-1
tp1969
a(I-3
I0
I0
I3
I4
I6
I1
I-6
tp1970
a(I0
I-2
I-1
I-1
I-4
I10
I5
I1
tp1971
a(I-1
I-1
I-1
I-1
I-6
I-26
I2
I3
tp1972
a(I0
I-1
I-1
I1
I3
I5
I2
I-1
tp1973
a(I-1
I-2
I-1
I-2
I-2
I-8
I-14
I-8
tp1974
a(I0
I1
I-1
I0
I1
I-6
I15
I6
tp1975
a(I0
I-2
I-1
I-1
I0
I7
I-2
I2
tp1976
a(I-3
I-1
I0
I2
I-2
I-21
I-7
I-16
tp1977
a(I2
I0
I-3
I-3
I2
I17
I19
I7
tp1978
a(I-1
I-1
I0
I0
I5
I1
I-13
I-1
tp1979
a(I2
I1
I1
I0
I-1
I5
I7
I4
tp1980
a(I0
I1
I1
I0
I-3
I-9
I-8
I0
tp1981
a(I-3
I-1
I1
I3
I3
I14
I-18
I-12
tp1982
a(I2
I0
I-2
I-2
I-1
I-1
I0
I6
tp1983
a(I2
I-1
I-2
I2
I3
I15
I12
I6
tp1984
a(I0
I1
I1
I-1
I0
I-2
I3
I2
tp1985
a(I0
I0
I2
I4
I4
I11
I-1
I5
tp1986
a(I0
I-2
I-3
I-4
I-7
I-7
I-5
I-9
tp1987
a(I-3
I1
I0
I1
I0
I-11
I-9
I-7
tp1988
a(I0
I0
I0
I2
I7
I2
I4
I1
tp1989
a(I2
I-1
I-2
I-2
I-1
I0
I2
I6
tp1990
a(I-1
I-1
I2
I-1
I-2
I-11
I-2
I4
tp1991
a(I-3
I-1
I0
I-3
I-5
I0
I5
I-9
tp1992
a(I0
I-1
I1
I1
I1
I10
I5
I-1
tp1993
a(I0
I-2
I1
I-2
I-2
I-4
I8
I8
tp1994
a(I1
I2
I2
I0
I2
I9
I-5
I2
tp1995
a(I-2
I-2
I-4
I-5
I-3
I-7
I-4
I-5
tp1996
a(I0
I-1
I-2
I-2
I-5
I-3
I-10
I1
tp1997
a(I-1
I0
I0
I-1
I-3
I-7
I14
I0
tp1998
a(I2
I0
I0
I-2
I0
I-1
I8
I0
tp1999
a(I0
I1
I2
I3
I2
I14
I-1
I3
tp2000
a(I-1
I-1
I-2
I-2
I0
I-6
I-4
I-7
tp2001
a(I0
I-3
I-3
I-3
I-5
I-18
I4
I9
tp2002
a(I-3
I-1
I-2
I-2
I-4
I0
I-13
I-9
tp2003
a(I0
I1
I1
I0
I0
I-10
I3
I5
tp2004
a(I-1
I-1
I-1
I0
I1
I8
I8
I0
tp2005
a(I0
I1
I1
I2
I-1
I-9
I-8
I-5
tp2006
a(I-1
I-1
I-1
I-2
I0
I-1
I11
I5
tp2007
a(I0
I-2
I-1
I-2
I-8
I-1
I-8
I1
tp2008
a(I1
I-1
I-2
I-1
I-6
I-1
I4
I3
tp2009
aa(lp2010
(I0
I-1
I2
I4
I5
I7
I-5
I-8
tp2011
a(I0
I0
I2
I2
I2
I1
I-9
I2
tp2012
a(I-1
I-2
I-3
I-4
I-7
I-31
I13
I1
tp2013
a(I-1
I-1
I-2
I-1
I5
I23
I9
I1
tp2014
a(I3
I2
I-1
I-2
I-3
I-3
I0
I4
tp2015
a(I-2
I-1
I-3
I-2
I-5
I-11
I-3
I-6
tp2016
a(I1
I-3
I-3
I-5
I-4
I-7
I12
I7
tp2017
a(I0
I-1
I-1
I3
I0
I2
I8
I0
tp2018
a(I-3
I-2
I-2
I-2
I2
I3
I-4
I-7
tp2019
a(I-1
I-1
I-1
I-2
I-1
I-13
I-7
I1
tp2020
a(I0
I0
I1
I4
I4
I12
I-18
I-6
tp2021
a(I0
I-1
I0
I-4
I-6
I-14
I-3
I-2
tp2022
a(I-1
I1
I0
I1
I4
I6
I7
I3
tp2023
a(I0
I-2
I-1
I0
I2
I6
I-3
I0
tp2024
a(I-3
I0
I-1
I-1
I-2
I4
I-18
I-8
tp2025
a(I1
I0
I-1
I3
I3
I-10
I5
I5
tp2026
a(I1
I1
I0
I1
I0
I-2
I6
I-3
tp2027
a(I0
I0
I-2
I-1
I1
I10
I12
I11
tp2028
a(I-1
I0
I0
I-1
I-3
I4
I-17
I-11
tp2029
a(I-3
I0
I-1
I-1
I-3
I-8
I-16
I-7
tp2030
a(I-1
I-1
I0
I2
I-5
I-1
I-12
I11
tp2031
a(I-5
I-4
I-5
I-6
I0
I-5
I6
I-9
tp2032
a(I2
I1
I0
I2
I3
I33
I13
I6
tp2033
a(I-2
I-1
I3
I0
I-3
I-7
I-3
I-2
tp2034
a(I-2
I-2
I0
I0
I-2
I-9
I-4
I5
tp2035
a(I0
I1
I2
I1
I-7
I-3
I-14
I-10
tp2036
a(I-1
I-1
I-3
I1
I4
I-1
I4
I5
tp2037
a(I-2
I-4
I-1
I-4
I-1
I-4
I-6
I-2
tp2038
a(I-2
I-3
I-1
I-1
I1
I6
I10
I-2
tp2039
a(I2
I3
I1
I1
I0
I3
I4
I6
tp2040
a(I-1
I0
I1
I-1
I-6
I-15
I-2
I-7
tp2041
a(I0
I1
I-2
I3
I2
I8
I1
I0
tp2042
a(I1
I2
I1
I-2
I1
I-12
I-5
I-1
tp2043
a(I3
I2
I3
I2
I7
I32
I4
I8
tp2044
a(I-1
I0
I-2
I-2
I0
I6
I3
I8
tp2045
a(I0
I-2
I1
I0
I1
I-3
I0
I-1
tp2046
a(I0
I1
I2
I1
I3
I40
I8
I6
tp2047
a(I-3
I0
I-2
I-2
I-3
I-8
I-9
I0
tp2048
a(I-1
I0
I0
I0
I3
I18
I-9
I-8
tp2049
a(I0
I-1
I-3
I-4
I-7
I-14
I5
I8
tp2050
a(I0
I0
I-1
I1
I3
I-23
I-10
I-8
tp2051
a(I2
I1
I2
I0
I0
I9
I0
I3
tp2052
a(I-2
I-1
I-3
I-3
I-6
I-18
I4
I5
tp2053
a(I-4
I-3
I-2
I-3
I-2
I15
I-2
I-9
tp2054
a(I1
I-2
I0
I-1
I-1
I-3
I-5
I2
tp2055
a(I0
I-3
I-2
I-3
I-4
I-9
I14
I1
tp2056
a(I-2
I0
I-1
I2
I-3
I-12
I8
I4
tp2057
a(I0
I1
I-1
I-1
I-1
I-13
I-3
I0
tp2058
a(I-2
I2
I-1
I-2
I-3
I5
I-2
I-4
tp2059
a(I1
I-2
I-3
I-3
I-3
I-9
I-10
I-4
tp2060
a(I1
I-1
I-2
I-3
I-1
I3
I-4
I0
tp2061
a(I-2
I-3
I0
I2
I1
I10
I-1
I1
tp2062
a(I-1
I0
I0
I0
I0
I-8
I13
I-8
tp2063
a(I-1
I0
I-1
I2
I3
I10
I-6
I-3
tp2064
a(I-2
I-2
I-1
I-1
I-4
I-15
I0
I1
tp2065
a(I0
I0
I-3
I-2
I-2
I-4
I-12
I3
tp2066
a(I1
I-1
I-1
I-2
I1
I3
I9
I8
tp2067
a(I-1
I-1
I1
I-1
I-1
I-2
I-9
I-10
tp2068
a(I-2
I-1
I-6
I0
I0
I4
I2
I-3
tp2069
a(I4
I0
I1
I1
I3
I10
I-5
I7
tp2070
a(I-2
I-1
I0
I-2
I-1
I-1
I-4
I-4
tp2071
a(I1
I-1
I-2
I-1
I1
I8
I5
I9
tp2072
a(I-2
I-2
I0
I-2
I0
I-13
I-10
I-2
tp2073
a(I-1
I0
I0
I0
I1
I15
I7
I-3
tp2074
a(I1
I-1
I-4
I-1
I0
I0
I1
I7
tp2075
a(I0
I1
I1
I3
I-2
I-16
I17
I6
tp2076
a(I-1
I-1
I-1
I0
I-1
I-2
I-6
I-11
tp2077
a(I0
I-1
I-1
I-1
I-2
I-7
I8
I10
tp2078
a(I-2
I-2
I0
I-1
I-3
I-12
I3
I-6
tp2079
a(I1
I1
I0
I0
I-1
I13
I8
I0
tp2080
a(I0
I-1
I-1
I-3
I2
I2
I14
I9
tp2081
a(I0
I2
I1
I-2
I-5
I-13
I4
I-1
tp2082
a(I1
I0
I0
I1
I7
I13
I-12
I-4
tp2083
a(I-2
I0
I0
I0
I0
I9
I-11
I-7
tp2084
a(I1
I0
I0
I-1
I1
I-1
I0
I-1
tp2085
a(I0
I-1
I0
I-1
I0
I0
I-12
I-6
tp2086
a(I1
I0
I1
I-1
I-2
I11
I7
I5
tp2087
a(I0
I0
I0
I0
I-1
I-9
I3
I0
tp2088
a(I-2
I0
I0
I1
I0
I1
I6
I2
tp2089
a(I-1
I-2
I-2
I-4
I-4
I-8
I-8
I-9
tp2090
a(I-3
I-3
I-1
I0
I-5
I-7
I-12
I-5
tp2091
a(I-2
I-2
I-1
I-1
I2
I8
I9
I0
tp2092
a(I1
I0
I1
I1
I-3
I-4
I-8
I-1
tp2093
a(I0
I-2
I-3
I-1
I3
I-8
I2
I0
tp2094
a(I1
I0
I-1
I0
I0
I4
I17
I15
tp2095
a(I0
I0
I-1
I-3
I-3
I-6
I-17
I-9
tp2096
a(I-2
I-2
I2
I2
I2
I-1
I1
I5
tp2097
a(I0
I-1
I0
I-1
I-3
I1
I6
I-3
tp2098
a(I-3
I-1
I1
I1
I2
I-7
I-12
I-12
tp2099
a(I1
I-2
I-2
I-1
I1
I-8
I0
I16
tp2100
a(I3
I0
I-1
I0
I-2
I12
I5
I5
tp2101
a(I-1
I-1
I0
I1
I7
I9
I-3
I-2
tp2102
a(I-1
I-1
I-1
I0
I-3
I-1
I13
I0
tp2103
a(I0
I1
I2
I3
I5
I17
I-4
I-8
tp2104
a(I-3
I-3
I-2
I-2
I-8
I-5
I-8
I-5
tp2105
a(I0
I1
I-2
I0
I0
I-6
I2
I2
tp2106
a(I-1
I0
I-2
I-1
I-1
I14
I-24
I-10
tp2107
a(I-1
I-2
I-1
I-1
I-6
I-31
I20
I6
tp2108
a(I0
I-1
I-3
I-5
I0
I9
I-2
I-3
tp2109
a(I0
I-1
I-1
I2
I-3
I-1
I-7
I-1
tp2110
a(I-1
I0
I0
I0
I2
I2
I7
I-3
tp2111
a(I-2
I-2
I0
I-2
I-4
I-13
I-11
I-3
tp2112
a(I-2
I0
I2
I0
I3
I23
I0
I-8
tp2113
a(I-1
I0
I0
I-1
I-5
I-12
I8
I5
tp2114
a(I0
I-1
I0
I-3
I-4
I-12
I-13
I-4
tp2115
a(I-4
I-2
I-3
I-1
I1
I5
I-7
I-9
tp2116
a(I3
I1
I-1
I2
I4
I0
I12
I10
tp2117
a(I0
I2
I-2
I-3
I1
I10
I0
I7
tp2118
a(I-3
I-2
I-2
I2
I1
I3
I18
I2
tp2119
a(I-1
I0
I-2
I0
I1
I-10
I-8
I-7
tp2120
a(I-2
I-2
I0
I1
I0
I-3
I-9
I-12
tp2121
a(I0
I1
I1
I2
I0
I-8
I-4
I-2
tp2122
a(I-2
I-1
I-2
I-2
I-1
I3
I-13
I-5
tp2123
a(I-1
I-1
I-3
I-1
I-2
I-3
I13
I5
tp2124
a(I2
I0
I0
I-1
I-3
I-13
I8
I4
tp2125
a(I-1
I-2
I0
I-1
I0
I13
I-3
I-7
tp2126
a(I-1
I0
I1
I-2
I-6
I-14
I-10
I0
tp2127
a(I-1
I-1
I-1
I0
I5
I21
I-2
I5
tp2128
a(I0
I3
I1
I3
I4
I1
I-14
I-11
tp2129
a(I-1
I-1
I-1
I-1
I-2
I-3
I-2
I-1
tp2130
a(I-1
I-1
I-2
I-1
I1
I5
I-4
I-3
tp2131
a(I0
I1
I1
I1
I3
I18
I-5
I-7
tp2132
a(I-2
I-1
I-2
I-2
I2
I-3
I-7
I2
tp2133
a(I-1
I-2
I1
I0
I-1
I-7
I22
I8
tp2134
a(I2
I2
I-1
I2
I2
I-8
I-3
I5
tp2135
a(I-1
I-1
I-1
I-2
I4
I20
I-5
I-3
tp2136
a(I-1
I0
I1
I1
I-3
I-9
I5
I-2
tp2137
a(I2
I1
I2
I3
I5
I18
I-10
I-8
tp2138
a(I-2
I-2
I-4
I-4
I-6
I-31
I3
I-4
tp2139
a(I1
I0
I-2
I-3
I-9
I-18
I20
I5
tp2140
a(I0
I0
I-2
I0
I-4
I5
I3
I4
tp2141
a(I-2
I-3
I-4
I-4
I-5
I-6
I0
I3
tp2142
a(I1
I0
I2
I1
I2
I7
I-11
I-10
tp2143
a(I-1
I-1
I-1
I2
I4
I12
I-6
I-2
tp2144
a(I0
I-1
I1
I1
I-2
I1
I5
I6
tp2145
a(I0
I0
I-1
I-2
I0
I-11
I3
I-2
tp2146
a(I0
I-1
I1
I1
I0
I21
I1
I-1
tp2147
a(I-3
I-1
I-2
I-4
I-2
I-4
I-13
I-10
tp2148
a(I-1
I-2
I-2
I0
I-1
I-2
I6
I2
tp2149
a(I2
I1
I1
I3
I2
I-2
I0
I4
tp2150
a(I-1
I-1
I-2
I-2
I-3
I-7
I3
I7
tp2151
a(I1
I-1
I-1
I0
I-4
I-9
I11
I3
tp2152
a(I-1
I0
I-2
I-3
I-3
I16
I2
I-4
tp2153
a(I-4
I-2
I-2
I-3
I-6
I-3
I-10
I-7
tp2154
a(I-1
I-1
I-1
I1
I4
I-7
I9
I6
tp2155
a(I0
I-1
I1
I1
I0
I1
I-11
I8
tp2156
a(I-2
I-3
I-3
I-5
I-7
I-37
I-4
I-1
tp2157
a(I-1
I-2
I-2
I-1
I-5
I-4
I9
I0
tp2158
a(I-1
I0
I2
I1
I0
I6
I6
I-2
tp2159
a(I0
I-1
I-1
I-2
I0
I9
I0
I5
tp2160
a(I-2
I-1
I-2
I-2
I-1
I-14
I-5
I0
tp2161
a(I1
I2
I-1
I1
I5
I25
I-5
I-3
tp2162
a(I0
I0
I-2
I-1
I-4
I-29
I0
I2
tp2163
a(I-1
I1
I1
I0
I-3
I-3
I7
I1
tp2164
a(I-2
I0
I0
I1
I2
I3
I-10
I-8
tp2165
a(I2
I1
I-1
I1
I-2
I-2
I9
I13
tp2166
a(I0
I0
I-1
I-1
I-2
I3
I-2
I-4
tp2167
a(I-1
I-2
I2
I1
I1
I0
I-12
I-11
tp2168
a(I-2
I-1
I0
I0
I1
I4
I-6
I0
tp2169
a(I-2
I-1
I-1
I-3
I0
I-16
I6
I11
tp2170
a(I0
I0
I0
I1
I-1
I4
I5
I-5
tp2171
a(I1
I0
I0
I0
I-2
I5
I-3
I1
tp2172
a(I0
I-1
I1
I3
I7
I8
I5
I1
tp2173
a(I-1
I-3
I0
I1
I6
I13
I-11
I-8
tp2174
a(I0
I-1
I-2
I-1
I-4
I-26
I6
I9
tp2175
a(I-3
I-3
I-2
I-1
I0
I5
I-6
I-11
tp2176
a(I2
I0
I-2
I-1
I-3
I3
I2
I4
tp2177
a(I-1
I-1
I-1
I-1
I-1
I-11
I5
I-1
tp2178
a(I-3
I-2
I-1
I-2
I2
I16
I2
I2
tp2179
a(I3
I0
I1
I4
I0
I-9
I1
I4
tp2180
a(I0
I-2
I-2
I1
I-5
I-11
I7
I3
tp2181
a(I0
I0
I0
I0
I0
I16
I6
I-1
tp2182
a(I0
I1
I1
I0
I1
I-7
I-14
I-6
tp2183
a(I-1
I1
I-1
I-1
I3
I12
I-3
I-7
tp2184
a(I1
I-1
I-1
I-1
I1
I5
I0
I-2
tp2185
a(I1
I2
I0
I1
I2
I-9
I2
I5
tp2186
a(I3
I2
I1
I1
I2
I3
I4
I7
tp2187
a(I-4
I-1
I-1
I-1
I-8
I-10
I-16
I-7
tp2188
a(I2
I3
I2
I0
I4
I9
I5
I2
tp2189
a(I-1
I-1
I-1
I0
I0
I-1
I6
I3
tp2190
a(I-2
I-2
I0
I-2
I-1
I-1
I7
I0
tp2191
a(I-1
I-1
I1
I0
I-1
I5
I-2
I-7
tp2192
a(I0
I-2
I0
I-1
I-1
I-5
I-10
I-2
tp2193
a(I-2
I-4
I-1
I-2
I-2
I-6
I-6
I-2
tp2194
a(I1
I-2
I-1
I-2
I0
I7
I-5
I1
tp2195
a(I1
I-2
I-2
I-1
I-2
I-16
I7
I5
tp2196
a(I-3
I-1
I0
I0
I-1
I11
I-7
I-10
tp2197
a(I-2
I-2
I-2
I0
I1
I-2
I6
I5
tp2198
a(I-1
I0
I-1
I-1
I-5
I-2
I1
I-4
tp2199
a(I0
I2
I1
I0
I2
I6
I-11
I-7
tp2200
a(I-3
I-4
I0
I-1
I-6
I-26
I0
I3
tp2201
a(I-1
I0
I-1
I-4
I1
I12
I-8
I-6
tp2202
a(I-2
I1
I2
I3
I5
I12
I-14
I-4
tp2203
a(I2
I0
I2
I1
I-1
I4
I25
I7
tp2204
a(I-1
I0
I-3
I-2
I3
I13
I-17
I-8
tp2205
a(I0
I0
I1
I2
I-2
I-10
I2
I-1
tp2206
a(I-2
I0
I-3
I-2
I2
I5
I-5
I-2
tp2207
a(I-1
I0
I1
I-2
I1
I5
I-22
I-8
tp2208
a(I1
I1
I0
I1
I-1
I-16
I2
I3
tp2209
a(I0
I-3
I0
I0
I1
I17
I7
I0
tp2210
a(I0
I-2
I-1
I0
I-4
I-16
I-8
I-8
tp2211
a(I0
I-1
I-1
I-2
I-1
I12
I9
I6
tp2212
a(I0
I1
I0
I-1
I-1
I3
I-1
I2
tp2213
a(I-1
I0
I-2
I-4
I-2
I-13
I-14
I-4
tp2214
a(I0
I0
I1
I1
I0
I-1
I0
I-5
tp2215
a(I1
I-1
I-1
I1
I4
I-3
I9
I13
tp2216
a(I1
I0
I3
I1
I4
I18
I7
I4
tp2217
a(I1
I0
I1
I0
I-4
I-9
I-1
I0
tp2218
a(I-2
I-2
I-4
I-3
I-1
I8
I4
I-8
tp2219
a(I-1
I0
I0
I0
I-1
I0
I-28
I-11
tp2220
a(I2
I-2
I-2
I1
I-1
I-8
I4
I10
tp2221
a(I2
I1
I2
I2
I1
I7
I1
I-6
tp2222
a(I-2
I-3
I-4
I-5
I-2
I-10
I0
I6
tp2223
a(I1
I0
I1
I0
I3
I3
I4
I-1
tp2224
a(I-1
I0
I1
I2
I1
I8
I-4
I-7
tp2225
a(I-2
I0
I-1
I1
I-1
I-14
I1
I-7
tp2226
a(I-1
I-1
I-1
I0
I-2
I-3
I3
I11
tp2227
a(I-2
I-2
I-2
I-3
I-7
I-21
I13
I1
tp2228
a(I-3
I-3
I-4
I-7
I-4
I5
I-3
I-5
tp2229
a(I-1
I0
I0
I-1
I-1
I-6
I0
I-1
tp2230
a(I-1
I-3
I-1
I-2
I-4
I-10
I3
I-1
tp2231
a(I0
I0
I0
I-2
I0
I4
I-2
I4
tp2232
a(I0
I-1
I0
I1
I1
I-1
I3
I-4
tp2233
a(I1
I0
I-1
I2
I4
I18
I17
I12
tp2234
a(I-2
I0
I-2
I-2
I-1
I-7
I-10
I-7
tp2235
a(I1
I-2
I-1
I-1
I-2
I3
I-5
I-5
tp2236
a(I2
I0
I1
I2
I1
I-5
I0
I-3
tp2237
a(I-3
I0
I-2
I-3
I-5
I-3
I-11
I-10
tp2238
a(I1
I1
I-1
I0
I1
I-6
I-6
I4
tp2239
a(I-3
I-4
I-6
I-4
I-5
I6
I14
I3
tp2240
a(I3
I0
I1
I1
I-1
I0
I10
I11
tp2241
a(I-2
I-1
I-1
I0
I2
I14
I3
I-2
tp2242
a(I0
I0
I1
I-3
I0
I-12
I-11
I-9
tp2243
a(I-1
I0
I-1
I-3
I-3
I-3
I-5
I-2
tp2244
a(I1
I0
I0
I1
I1
I0
I4
I0
tp2245
a(I-2
I-1
I-2
I-1
I-2
I-9
I-15
I-6
tp2246
a(I0
I1
I-1
I-1
I2
I7
I9
I7
tp2247
a(I1
I0
I0
I1
I-1
I8
I8
I6
tp2248
a(I0
I-1
I1
I-2
I1
I4
I0
I-3
tp2249
a(I0
I0
I0
I-1
I-4
I-22
I-7
I-2
tp2250
a(I1
I-2
I0
I-3
I0
I26
I1
I-1
tp2251
a(I0
I1
I1
I2
I6
I12
I5
I-3
tp2252
a(I-1
I0
I0
I1
I-1
I-1
I4
I0
tp2253
a(I1
I-2
I-4
I0
I-4
I-3
I-3
I-5
tp2254
a(I1
I-1
I-3
I0
I-3
I-14
I12
I5
tp2255
a(I-2
I0
I0
I2
I0
I4
I-9
I-2
tp2256
a(I1
I1
I1
I-1
I1
I-5
I-8
I4
tp2257
a(I-2
I-2
I-1
I0
I4
I9
I4
I-3
tp2258
a(I-1
I0
I1
I1
I0
I0
I4
I0
tp2259
a(I-2
I-1
I0
I-2
I-2
I-11
I-13
I-7
tp2260
a(I1
I0
I0
I-2
I0
I-6
I0
I6
tp2261
a(I-1
I-1
I-2
I-2
I2
I-3
I11
I3
tp2262
a(I-3
I1
I-1
I-1
I-3
I-16
I0
I0
tp2263
a(I-1
I0
I0
I-2
I-4
I6
I6
I3
tp2264
a(I-1
I-1
I-1
I-2
I-7
I-15
I-11
I-5
tp2265
a(I-1
I-1
I-1
I-3
I-3
I15
I2
I-7
tp2266
a(I0
I-1
I0
I1
I3
I6
I9
I0
tp2267
a(I2
I2
I-1
I2
I1
I-11
I-9
I-6
tp2268
a(I0
I-1
I-1
I-1
I1
I6
I2
I0
tp2269
a(I-1
I0
I0
I1
I-4
I-14
I-1
I17
tp2270
a(I-1
I0
I-1
I1
I-1
I-5
I-6
I-1
tp2271
a(I0
I-1
I1
I1
I3
I8
I2
I3
tp2272
a(I-2
I-2
I0
I3
I2
I-6
I-9
I-10
tp2273
a(I0
I-1
I-1
I0
I-2
I2
I2
I8
tp2274
a(I-3
I-2
I-2
I-3
I-3
I8
I-4
I-2
tp2275
a(I-1
I0
I-2
I-4
I1
I-6
I-17
I-6
tp2276
a(I-1
I0
I2
I2
I3
I15
I1
I-8
tp2277
a(I-1
I-1
I-2
I0
I1
I6
I12
I2
tp2278
a(I-2
I0
I-1
I0
I-5
I-6
I-7
I-2
tp2279
a(I1
I-1
I0
I1
I1
I9
I5
I2
tp2280
a(I-1
I-1
I-2
I-1
I-2
I-13
I-4
I-3
tp2281
a(I0
I-1
I1
I4
I1
I7
I3
I9
tp2282
a(I-2
I-1
I-1
I1
I-1
I-1
I0
I0
tp2283
a(I0
I-1
I1
I0
I-1
I-9
I8
I1
tp2284
a(I0
I0
I0
I-2
I-1
I10
I-14
I-9
tp2285
a(I-1
I-3
I-5
I-4
I-3
I-27
I20
I11
tp2286
a(I0
I0
I1
I-1
I-2
I-3
I1
I-2
tp2287
a(I0
I0
I2
I0
I-2
I4
I7
I3
tp2288
a(I0
I0
I-1
I-1
I-2
I-2
I-6
I2
tp2289
a(I-2
I1
I1
I0
I0
I5
I-14
I-12
tp2290
a(I2
I-2
I-3
I-4
I-8
I-12
I2
I4
tp2291
a(I0
I0
I-2
I0
I2
I9
I0
I-5
tp2292
a(I1
I1
I-1
I-1
I3
I19
I-3
I4
tp2293
a(I0
I-1
I-1
I1
I2
I-15
I-8
I-8
tp2294
a(I1
I-1
I0
I0
I2
I-8
I9
I5
tp2295
a(I-1
I-3
I-2
I-1
I-6
I-19
I6
I-2
tp2296
a(I1
I-1
I0
I-2
I-2
I-4
I4
I11
tp2297
a(I-1
I-1
I0
I1
I1
I7
I-8
I-8
tp2298
a(I0
I0
I2
I-1
I0
I9
I2
I-1
tp2299
a(I-3
I-1
I-5
I-4
I0
I9
I-4
I-7
tp2300
a(I0
I3
I1
I2
I0
I-8
I-3
I-4
tp2301
a(I0
I0
I1
I0
I2
I13
I7
I3
tp2302
a(I1
I1
I2
I4
I4
I13
I-1
I-2
tp2303
a(I0
I0
I-2
I-2
I-5
I-9
I-2
I-1
tp2304
a(I0
I0
I-3
I-1
I-3
I-7
I-2
I-3
tp2305
a(I-2
I0
I0
I-3
I-5
I2
I-6
I-11
tp2306
a(I-1
I-2
I0
I0
I4
I-1
I-3
I6
tp2307
a(I0
I0
I1
I1
I0
I6
I6
I5
tp2308
a(I0
I-1
I1
I1
I3
I18
I7
I2
tp2309
a(I0
I0
I-2
I-2
I-5
I-17
I-5
I-4
tp2310
a(I0
I-1
I-3
I-2
I-2
I-16
I10
I-2
tp2311
a(I1
I2
I1
I1
I4
I26
I-3
I-1
tp2312
a(I-3
I-2
I1
I-3
I-3
I-12
I3
I8
tp2313
a(I0
I1
I0
I-2
I2
I5
I-20
I-7
tp2314
a(I-1
I1
I1
I-2
I-3
I-3
I-2
I-2
tp2315
a(I-1
I-1
I-2
I-2
I-5
I-18
I-8
I-3
tp2316
a(I-3
I-3
I-2
I-3
I-7
I9
I6
I-10
tp2317
a(I5
I2
I2
I4
I9
I13
I12
I13
tp2318
a(I-1
I-2
I-1
I-1
I2
I4
I2
I0
tp2319
a(I2
I0
I2
I0
I1
I3
I1
I7
tp2320
a(I-4
I0
I-2
I0
I-1
I-29
I-17
I-13
tp2321
a(I0
I-1
I0
I0
I2
I26
I1
I0
tp2322
a(I1
I0
I-1
I-1
I-2
I9
I-1
I1
tp2323
a(I-2
I-2
I0
I1
I-2
I-11
I-6
I-7
tp2324
a(I1
I0
I0
I2
I3
I-3
I-7
I1
tp2325
a(I1
I-1
I-2
I1
I-1
I-5
I11
I14
tp2326
a(I0
I-1
I1
I-2
I1
I1
I0
I1
tp2327
a(I-3
I-1
I1
I1
I1
I1
I-5
I-8
tp2328
a(I-1
I1
I-4
I-2
I-5
I1
I14
I10
tp2329
a(I-1
I0
I-1
I3
I-3
I-19
I-4
I-7
tp2330
a(I-1
I-1
I-2
I-4
I-5
I-7
I-9
I-6
tp2331
a(I-1
I-1
I-2
I0
I3
I15
I6
I7
tp2332
a(I1
I1
I1
I3
I5
I8
I2
I-3
tp2333
a(I-2
I0
I-2
I-2
I-4
I-5
I-7
I-4
tp2334
a(I0
I-2
I-1
I1
I-4
I-20
I-1
I-2
tp2335
a(I-1
I2
I-1
I1
I4
I11
I10
I-3
tp2336
a(I3
I-3
I1
I-1
I-3
I4
I4
I12
tp2337
a(I-4
I-3
I-2
I-3
I-3
I-6
I2
I-8
tp2338
a(I-1
I1
I1
I-1
I-2
I4
I-14
I-3
tp2339
a(I1
I1
I0
I1
I-2
I-9
I-3
I0
tp2340
a(I0
I0
I-1
I-2
I-1
I4
I4
I-3
tp2341
a(I-2
I-1
I0
I1
I0
I-9
I-8
I3
tp2342
a(I0
I0
I1
I-1
I-2
I4
I0
I-7
tp2343
a(I-2
I-1
I0
I0
I0
I0
I-1
I-3
tp2344
a(I-1
I-3
I-1
I1
I1
I-3
I-6
I4
tp2345
a(I-1
I-1
I4
I2
I2
I14
I5
I-7
tp2346
a(I0
I0
I0
I-2
I1
I10
I-4
I2
tp2347
a(I1
I0
I-1
I-1
I-4
I-18
I3
I10
tp2348
a(I-1
I0
I-3
I-3
I1
I9
I-10
I-11
tp2349
a(I-4
I-3
I-3
I-3
I-8
I-35
I-10
I-4
tp2350
a(I0
I-2
I0
I-1
I-3
I-6
I12
I6
tp2351
a(I3
I2
I4
I2
I6
I24
I9
I6
tp2352
a(I-2
I0
I1
I2
I-2
I-6
I0
I-6
tp2353
a(I2
I1
I0
I2
I1
I-16
I-8
I-3
tp2354
a(I-2
I0
I-1
I1
I6
I18
I0
I-5
tp2355
a(I0
I-1
I-3
I-3
I-4
I-13
I-8
I1
tp2356
a(I-1
I-1
I-1
I-2
I1
I2
I9
I0
tp2357
a(I1
I0
I-1
I-3
I0
I4
I-7
I-5
tp2358
a(I-1
I0
I1
I1
I1
I-1
I-4
I6
tp2359
a(I0
I1
I1
I-1
I1
I4
I9
I-6
tp2360
a(I0
I0
I0
I0
I0
I4
I0
I5
tp2361
a(I-3
I-3
I-3
I-2
I-5
I-9
I-10
I-3
tp2362
a(I1
I1
I-4
I-4
I-2
I-1
I4
I1
tp2363
a(I-1
I-2
I1
I-2
I-2
I1
I-2
I0
tp2364
a(I0
I-1
I-1
I-1
I-2
I-11
I9
I-6
tp2365
a(I2
I2
I1
I2
I3
I-2
I7
I8
tp2366
a(I-1
I-1
I0
I2
I-1
I-6
I-17
I-3
tp2367
a(I0
I-2
I-1
I-2
I-1
I12
I-4
I-2
tp2368
a(I3
I1
I1
I0
I1
I-18
I19
I10
tp2369
a(I2
I-2
I-2
I-5
I-1
I12
I5
I11
tp2370
a(I-3
I-2
I-1
I0
I-2
I-10
I5
I-2
tp2371
a(I-2
I-2
I-2
I-3
I-3
I-12
I-6
I-12
tp2372
a(I-4
I-1
I0
I0
I1
I-2
I-9
I-2
tp2373
a(I-1
I1
I0
I-3
I-7
I-1
I5
I-3
tp2374
a(I0
I-1
I0
I2
I0
I-2
I-5
I-6
tp2375
a(I-1
I-1
I0
I0
I1
I-6
I-1
I3
tp2376
a(I-2
I-1
I-3
I-5
I-2
I4
I-8
I-2
tp2377
a(I0
I-1
I3
I5
I4
I3
I0
I2
tp2378
a(I0
I-1
I-1
I-1
I0
I-1
I6
I1
tp2379
a(I-1
I0
I0
I2
I1
I9
I2
I-2
tp2380
a(I-2
I-1
I0
I1
I0
I-8
I-17
I-8
tp2381
a(I-1
I1
I-1
I1
I0
I-2
I-5
I-4
tp2382
a(I2
I1
I1
I0
I-1
I12
I13
I5
tp2383
a(I-3
I-5
I-2
I-2
I-3
I-14
I7
I4
tp2384
a(I1
I0
I1
I0
I4
I0
I4
I-1
tp2385
a(I0
I-1
I1
I1
I0
I13
I-9
I-17
tp2386
a(I0
I-2
I-2
I-1
I-2
I-7
I12
I12
tp2387
a(I1
I1
I0
I1
I2
I-4
I-12
I-7
tp2388
a(I0
I-1
I-1
I-2
I-4
I12
I-1
I1
tp2389
a(I-3
I-2
I-3
I-3
I0
I-10
I8
I-1
tp2390
a(I2
I2
I2
I4
I8
I17
I2
I-3
tp2391
a(I-1
I0
I-1
I0
I1
I-7
I8
I6
tp2392
a(I-2
I0
I0
I-1
I-1
I12
I14
I-2
tp2393
a(I2
I0
I-2
I-3
I-6
I-7
I-5
I10
tp2394
a(I1
I-1
I0
I0
I1
I10
I-4
I0
tp2395
a(I1
I-1
I-2
I-2
I-3
I-3
I-6
I-3
tp2396
a(I-1
I0
I-2
I0
I-1
I-1
I-6
I0
tp2397
a(I-2
I1
I1
I0
I4
I7
I-3
I-4
tp2398
a(I-1
I1
I0
I-1
I-2
I-9
I-13
I-7
tp2399
a(I-1
I-1
I-1
I0
I-3
I5
I15
I5
tp2400
a(I1
I1
I1
I0
I5
I22
I19
I6
tp2401
a(I1
I-1
I0
I-2
I0
I-15
I15
I10
tp2402
a(I-2
I-3
I-2
I-3
I-3
I-9
I-9
I-5
tp2403
a(I-1
I0
I1
I2
I0
I-5
I-19
I-6
tp2404
a(I1
I-2
I0
I1
I4
I11
I-1
I5
tp2405
a(I0
I2
I-1
I-1
I-2
I1
I10
I1
tp2406
a(I0
I1
I2
I2
I3
I23
I-20
I-8
tp2407
a(I-1
I-2
I-2
I-2
I-4
I-21
I3
I-2
tp2408
a(I-1
I-1
I-2
I0
I-6
I-14
I-8
I6
tp2409
a(I-2
I-2
I-2
I-2
I2
I6
I-3
I-6
tp2410
a(I0
I2
I2
I3
I2
I7
I0
I1
tp2411
a(I-2
I-1
I-1
I-1
I1
I8
I-7
I-6
tp2412
a(I5
I0
I0
I1
I0
I1
I-7
I4
tp2413
a(I-1
I-2
I1
I0
I-1
I-5
I0
I2
tp2414
a(I-1
I-2
I-2
I-2
I-3
I-20
I-1
I-1
tp2415
a(I1
I4
I1
I1
I6
I34
I12
I0
tp2416
a(I-3
I-3
I-3
I-2
I-5
I-31
I-2
I-2
tp2417
a(I1
I0
I0
I1
I-2
I25
I0
I-1
tp2418
a(I-1
I-2
I-2
I-1
I-1
I-23
I33
I10
tp2419
a(I0
I-2
I-2
I-3
I-5
I-12
I-16
I-8
tp2420
a(I-2
I0
I0
I0
I-3
I2
I-13
I-6
tp2421
a(I-1
I-1
I0
I4
I4
I-4
I-11
I-1
tp2422
a(I-2
I2
I1
I0
I0
I9
I-12
I-9
tp2423
a(I-1
I-2
I-3
I-3
I-2
I11
I3
I2
tp2424
a(I1
I2
I1
I-1
I-3
I-1
I3
I6
tp2425
a(I-2
I-4
I-3
I-2
I-6
I-27
I9
I-1
tp2426
a(I1
I-2
I-2
I-1
I1
I-4
I-6
I1
tp2427
a(I0
I-1
I-2
I0
I4
I5
I0
I1
tp2428
a(I-2
I1
I-2
I-1
I-3
I1
I-12
I-13
tp2429
a(I-2
I1
I2
I0
I2
I-1
I-7
I-5
tp2430
a(I-1
I-1
I0
I0
I2
I4
I-2
I0
tp2431
a(I0
I-2
I0
I0
I-4
I-14
I0
I3
tp2432
a(I1
I-3
I-1
I-1
I0
I-8
I3
I4
tp2433
a(I0
I-1
I1
I2
I3
I16
I-8
I-3
tp2434
a(I2
I0
I-2
I-2
I-1
I-4
I8
I-1
tp2435
a(I1
I2
I1
I2
I-1
I-13
I0
I3
tp2436
a(I-1
I-1
I-1
I2
I2
I3
I15
I2
tp2437
a(I-1
I-1
I-1
I-1
I0
I-13
I8
I0
tp2438
a(I-2
I-3
I-1
I-4
I-9
I-2
I-4
I-2
tp2439
a(I3
I2
I-3
I-3
I0
I6
I-4
I2
tp2440
a(I-1
I-1
I-1
I2
I3
I-6
I-6
I-7
tp2441
a(I-2
I1
I0
I1
I-2
I10
I-15
I-5
tp2442
a(I1
I-1
I-2
I-4
I1
I3
I11
I13
tp2443
a(I-1
I0
I-1
I1
I0
I3
I0
I-3
tp2444
a(I0
I-1
I-1
I-2
I-6
I-21
I-8
I-3
tp2445
a(I-2
I0
I0
I1
I0
I6
I-8
I-5
tp2446
a(I1
I-1
I0
I2
I-1
I2
I5
I6
tp2447
a(I-1
I0
I1
I-1
I-1
I-8
I-3
I-2
tp2448
a(I1
I0
I1
I0
I-2
I4
I-1
I1
tp2449
a(I-2
I-3
I-3
I-3
I-4
I-13
I-4
I-2
tp2450
a(I-1
I0
I0
I2
I3
I5
I2
I-6
tp2451
a(I-1
I-1
I-1
I0
I-1
I1
I11
I7
tp2452
a(I-1
I-1
I-1
I-2
I0
I-1
I-5
I-4
tp2453
a(I1
I0
I2
I0
I0
I2
I-9
I2
tp2454
a(I-2
I-1
I-2
I-2
I-4
I-11
I-12
I0
tp2455
a(I0
I0
I3
I2
I2
I2
I-1
I0
tp2456
a(I0
I-3
I-3
I-4
I-1
I4
I6
I-5
tp2457
a(I2
I1
I1
I0
I0
I2
I12
I2
tp2458
a(I-1
I-2
I-2
I-1
I-4
I-4
I1
I4
tp2459
a(I-3
I1
I0
I2
I3
I12
I-12
I-9
tp2460
a(I1
I0
I1
I3
I5
I22
I3
I-1
tp2461
a(I-1
I1
I1
I-2
I-4
I-11
I3
I-8
tp2462
a(I0
I1
I-1
I3
I0
I2
I15
I3
tp2463
a(I3
I1
I-1
I-1
I-2
I2
I-3
I9
tp2464
a(I-1
I-1
I1
I2
I-1
I-11
I-4
I-6
tp2465
a(I-1
I-1
I-1
I-2
I0
I12
I-5
I-3
tp2466
a(I-1
I1
I2
I0
I1
I3
I-6
I-8
tp2467
a(I-3
I-2
I0
I-4
I-3
I5
I-6
I-4
tp2468
a(I4
I-2
I-2
I0
I-3
I-20
I9
I21
tp2469
a(I0
I1
I2
I0
I2
I9
I28
I5
tp2470
a(I3
I2
I3
I0
I3
I10
I-12
I-1
tp2471
a(I-3
I-4
I-4
I-4
I-4
I-22
I1
I-7
tp2472
a(I-1
I-1
I-2
I-5
I-4
I12
I-5
I-10
tp2473
a(I0
I-3
I-1
I-2
I-2
I2
I-2
I3
tp2474
a(I0
I2
I2
I3
I10
I-4
I-7
I-2
tp2475
a(I0
I2
I1
I3
I4
I32
I-15
I-3
tp2476
a(I-2
I-2
I-4
I-3
I-5
I-32
I1
I0
tp2477
a(I0
I-1
I-1
I-3
I0
I7
I7
I6
tp2478
a(I-1
I-1
I-1
I-2
I0
I20
I-4
I-4
tp2479
a(I1
I-1
I-2
I0
I-1
I-6
I19
I9
tp2480
a(I-2
I0
I-1
I0
I-1
I-4
I-7
I-7
tp2481
a(I0
I-1
I-1
I1
I2
I-3
I-5
I-8
tp2482
a(I-1
I-2
I-1
I0
I-1
I1
I-7
I-2
tp2483
a(I-1
I-1
I0
I-1
I1
I1
I3
I3
tp2484
a(I0
I0
I2
I3
I0
I5
I2
I-6
tp2485
a(I-2
I-1
I-3
I-4
I-4
I-10
I-5
I4
tp2486
a(I-1
I-1
I-3
I-1
I-5
I-14
I9
I-1
tp2487
a(I-1
I0
I-2
I-1
I-2
I-4
I-5
I-3
tp2488
a(I-1
I-1
I2
I0
I2
I7
I5
I2
tp2489
a(I0
I0
I1
I3
I1
I2
I-9
I-4
tp2490
a(I1
I1
I0
I0
I1
I11
I6
I5
tp2491
a(I0
I0
I-1
I-2
I-2
I-8
I1
I-3
tp2492
a(I-3
I1
I-1
I-2
I-1
I3
I-4
I-2
tp2493
a(I1
I0
I1
I-1
I-3
I-7
I-3
I-3
tp2494
a(I-1
I-3
I0
I-1
I-5
I-6
I-3
I-6
tp2495
a(I-1
I-1
I-2
I0
I2
I10
I0
I1
tp2496
a(I2
I-1
I2
I2
I2
I10
I2
I3
tp2497
a(I-3
I0
I0
I-1
I1
I7
I-3
I-7
tp2498
a(I-1
I-2
I-2
I-1
I2
I-6
I-1
I0
tp2499
a(I2
I0
I1
I0
I-1
I-9
I-12
I7
tp2500
a(I-1
I-1
I-2
I0
I0
I-10
I-2
I-2
tp2501
a(I-1
I-1
I-2
I-3
I-1
I2
I-9
I2
tp2502
a(I0
I-2
I1
I1
I0
I3
I11
I3
tp2503
a(I-1
I-1
I0
I-1
I2
I-2
I-2
I-2
tp2504
a(I-1
I0
I2
I0
I2
I7
I-2
I-2
tp2505
a(I-2
I-3
I-2
I-2
I-3
I-10
I2
I-2
tp2506
a(I-1
I0
I0
I0
I2
I6
I-7
I-1
tp2507
a(I0
I-2
I-2
I0
I-1
I-11
I0
I2
tp2508
a(I0
I-1
I-2
I-2
I-5
I15
I7
I2
tp2509
a(I0
I1
I0
I2
I0
I-10
I3
I-7
tp2510
a(I1
I-1
I-3
I-3
I-2
I4
I0
I11
tp2511
a(I-2
I1
I0
I2
I0
I1
I-5
I-9
tp2512
a(I-3
I-2
I-1
I-4
I-6
I-12
I8
I-1
tp2513
a(I2
I0
I-1
I0
I-1
I2
I-1
I18
tp2514
a(I1
I0
I-1
I-1
I0
I0
I8
I1
tp2515
a(I-1
I1
I2
I2
I0
I12
I-15
I-6
tp2516
a(I-4
I-1
I-1
I0
I1
I-19
I-7
I-6
tp2517
a(I3
I0
I0
I-2
I1
I11
I28
I5
tp2518
a(I1
I1
I0
I0
I-2
I-10
I-3
I4
tp2519
a(I-1
I0
I-1
I-2
I-1
I-1
I3
I-3
tp2520
a(I-1
I0
I-2
I-2
I0
I5
I-13
I-5
tp2521
a(I-1
I0
I0
I2
I1
I-8
I-11
I-8
tp2522
a(I-1
I1
I2
I4
I3
I7
I-13
I0
tp2523
a(I-5
I-3
I-4
I-7
I-4
I-18
I20
I-4
tp2524
a(I0
I1
I2
I1
I3
I1
I4
I-1
tp2525
a(I0
I1
I0
I0
I-3
I-15
I-7
I-1
tp2526
a(I-2
I-2
I-1
I-2
I-4
I9
I8
I-3
tp2527
a(I1
I1
I0
I2
I-1
I-5
I1
I2
tp2528
a(I-1
I-2
I-1
I1
I2
I2
I1
I-3
tp2529
a(I-1
I-1
I-1
I-2
I2
I0
I5
I3
tp2530
a(I-1
I-2
I0
I-2
I-1
I-7
I-7
I-1
tp2531
a(I0
I0
I0
I-3
I-2
I27
I3
I3
tp2532
a(I1
I-1
I-3
I-2
I2
I-6
I8
I5
tp2533
a(I1
I0
I2
I2
I-1
I5
I2
I0
tp2534
a(I-2
I0
I-2
I0
I6
I10
I-15
I-9
tp2535
a(I-3
I-1
I2
I3
I2
I-8
I-6
I2
tp2536
a(I0
I0
I-3
I-2
I-4
I-3
I-11
I-6
tp2537
a(I-1
I0
I0
I1
I1
I12
I2
I6
tp2538
a(I-1
I1
I-1
I1
I0
I-8
I0
I-1
tp2539
a(I-3
I-1
I2
I-3
I-2
I-9
I-15
I-12
tp2540
a(I1
I1
I1
I3
I2
I12
I5
I11
tp2541
a(I-1
I-2
I-3
I0
I3
I4
I1
I2
tp2542
a(I-1
I-3
I-1
I-3
I-3
I-6
I-1
I-6
tp2543
a(I1
I1
I1
I1
I-2
I-10
I-4
I-1
tp2544
a(I1
I-1
I-3
I-4
I-4
I-10
I7
I12
tp2545
a(I-3
I-1
I-2
I-2
I-4
I-1
I-1
I-9
tp2546
a(I0
I0
I0
I-1
I1
I2
I-7
I1
tp2547
a(I3
I-1
I-2
I0
I1
I5
I1
I3
tp2548
a(I0
I-3
I-4
I0
I-3
I-7
I3
I6
tp2549
a(I3
I0
I3
I2
I3
I5
I-16
I-1
tp2550
a(I-1
I-2
I-2
I-3
I-3
I-3
I6
I-2
tp2551
a(I0
I-1
I-2
I-3
I-1
I7
I18
I3
tp2552
a(I-1
I2
I3
I2
I1
I-8
I-9
I-7
tp2553
a(I-1
I-2
I-2
I-2
I-1
I4
I-8
I0
tp2554
a(I2
I2
I1
I1
I1
I4
I-2
I6
tp2555
a(I0
I2
I-1
I0
I-1
I0
I-10
I-5
tp2556
a(I-2
I-3
I-2
I-1
I-2
I-8
I0
I-2
tp2557
a(I-2
I-1
I0
I-1
I-4
I-14
I7
I-3
tp2558
a(I-1
I0
I-2
I-3
I-1
I-4
I1
I-3
tp2559
a(I-1
I-1
I1
I-2
I1
I3
I5
I-2
tp2560
a(I0
I0
I2
I1
I-1
I6
I-6
I-1
tp2561
a(I2
I0
I-2
I-2
I-2
I5
I8
I8
tp2562
a(I0
I0
I-2
I-2
I1
I-2
I0
I0
tp2563
a(I-2
I0
I-1
I2
I1
I-11
I-10
I-10
tp2564
a(I-2
I-1
I0
I-1
I0
I21
I12
I5
tp2565
a(I0
I1
I0
I0
I-3
I-17
I2
I8
tp2566
a(I-1
I-1
I1
I2
I2
I7
I-2
I-6
tp2567
a(I2
I1
I1
I2
I2
I-6
I11
I12
tp2568
a(I0
I-1
I-1
I2
I-1
I-13
I2
I0
tp2569
a(I-3
I-1
I-1
I1
I2
I16
I0
I-6
tp2570
a(I-1
I-2
I-4
I-8
I-9
I-1
I-9
I1
tp2571
a(I-2
I-1
I-2
I-2
I-2
I-16
I-11
I-4
tp2572
a(I0
I-3
I-2
I-1
I1
I-1
I-4
I-4
tp2573
a(I-1
I0
I2
I4
I5
I-5
I-7
I-3
tp2574
a(I-1
I-1
I-1
I-2
I-2
I0
I4
I-5
tp2575
a(I-2
I-1
I-1
I1
I0
I15
I-2
I4
tp2576
aas.