(dp0
S'relaxed'
p1
(lp2
(lp3
(I15
I20
I22
I61
I117
I133
I26
I18
tp4
a(I15
I20
I21
I64
I122
I131
I23
I18
tp5
a(I16
I17
I23
I68
I129
I132
I26
I18
tp6
a(I18
I16
I19
I60
I106
I139
I26
I18
tp7
a(I17
I18
I21
I55
I98
I138
I29
I20
tp8
a(I22
I23
I25
I89
I161
I159
I40
I24
tp9
a(I23
I23
I28
I92
I164
I163
I43
I24
tp10
a(I23
I23
I27
I96
I177
I170
I41
I25
tp11
a(I24
I26
I32
I97
I179
I157
I42
I25
tp12
a(I24
I25
I33
I98
I180
I157
I41
I21
tp13
a(I22
I21
I31
I75
I144
I128
I28
I17
tp14
a(I20
I19
I30
I80
I147
I129
I26
I17
tp15
a(I18
I20
I29
I78
I140
I127
I30
I17
tp16
a(I17
I17
I24
I78
I143
I131
I32
I15
tp17
a(I17
I18
I20
I78
I141
I122
I31
I16
tp18
a(I15
I20
I20
I70
I121
I99
I31
I16
tp19
a(I15
I21
I18
I58
I111
I107
I30
I18
tp20
a(I15
I20
I19
I57
I96
I112
I27
I20
tp21
a(I16
I21
I21
I60
I95
I122
I26
I21
tp22
a(I16
I18
I21
I60
I92
I128
I25
I22
tp23
a(I18
I18
I21
I64
I95
I127
I26
I22
tp24
a(I18
I18
I21
I63
I96
I123
I24
I20
tp25
a(I20
I17
I22
I65
I102
I105
I23
I17
tp26
a(I18
I19
I23
I65
I98
I89
I26
I16
tp27
a(I18
I19
I24
I63
I104
I116
I31
I15
tp28
a(I16
I19
I23
I64
I105
I117
I33
I16
tp29
a(I16
I20
I26
I123
I180
I117
I36
I16
tp30
a(I17
I21
I27
I130
I185
I120
I36
I17
tp31
a(I20
I21
I28
I129
I193
I126
I37
I16
tp32
a(I20
I23
I33
I138
I203
I105
I34
I16
tp33
a(I21
I22
I33
I136
I201
I116
I32
I14
tp34
a(I22
I19
I30
I85
I137
I125
I29
I15
tp35
a(I20
I19
I29
I67
I121
I132
I30
I14
tp36
a(I18
I17
I28
I73
I127
I127
I24
I14
tp37
a(I18
I15
I23
I62
I113
I121
I25
I13
tp38
a(I18
I15
I23
I62
I111
I112
I27
I13
tp39
a(I16
I16
I24
I64
I148
I100
I27
I14
tp40
a(I16
I17
I25
I65
I159
I88
I28
I16
tp41
a(I18
I18
I23
I57
I142
I88
I27
I16
tp42
a(I17
I17
I21
I48
I135
I85
I26
I17
tp43
a(I17
I18
I22
I50
I142
I85
I26
I18
tp44
a(I16
I19
I22
I48
I107
I70
I25
I18
tp45
a(I17
I17
I22
I63
I132
I98
I27
I17
tp46
a(I15
I16
I23
I64
I140
I99
I27
I18
tp47
a(I16
I17
I24
I64
I141
I102
I27
I17
tp48
a(I17
I19
I24
I64
I137
I110
I25
I16
tp49
a(I17
I17
I24
I64
I151
I137
I27
I16
tp50
a(I16
I17
I22
I48
I126
I129
I25
I14
tp51
a(I16
I17
I21
I49
I129
I131
I27
I17
tp52
a(I16
I17
I19
I52
I139
I131
I30
I17
tp53
a(I15
I15
I19
I52
I142
I126
I30
I18
tp54
a(I16
I17
I20
I47
I118
I96
I29
I16
tp55
a(I15
I18
I20
I43
I107
I82
I29
I17
tp56
a(I16
I18
I21
I47
I112
I74
I27
I14
tp57
a(I14
I19
I23
I48
I105
I75
I24
I15
tp58
a(I16
I19
I22
I46
I100
I65
I25
I15
tp59
a(I15
I18
I21
I46
I109
I87
I24
I15
tp60
a(I15
I18
I21
I52
I120
I91
I22
I14
tp61
a(I15
I17
I22
I46
I107
I98
I21
I15
tp62
a(I16
I16
I20
I47
I106
I100
I21
I14
tp63
a(I15
I16
I24
I48
I109
I106
I19
I13
tp64
a(I15
I16
I24
I48
I96
I98
I23
I16
tp65
a(I16
I16
I24
I40
I79
I95
I24
I17
tp66
a(I15
I18
I24
I40
I75
I87
I23
I16
tp67
a(I14
I17
I25
I34
I85
I116
I25
I17
tp68
a(I16
I18
I19
I36
I82
I164
I29
I17
tp69
a(I15
I20
I20
I37
I92
I174
I27
I15
tp70
a(I16
I19
I19
I41
I109
I181
I27
I15
tp71
a(I16
I19
I20
I43
I109
I181
I27
I16
tp72
a(I15
I20
I20
I42
I94
I161
I26
I16
tp73
a(I14
I19
I23
I37
I90
I111
I21
I17
tp74
a(I14
I18
I23
I38
I96
I97
I22
I16
tp75
a(I13
I19
I23
I40
I89
I80
I23
I17
tp76
a(I14
I19
I22
I36
I88
I97
I25
I17
tp77
a(I15
I18
I21
I36
I92
I103
I26
I16
tp78
a(I16
I17
I18
I41
I98
I103
I25
I15
tp79
a(I17
I17
I17
I41
I87
I95
I23
I16
tp80
a(I16
I17
I17
I38
I96
I105
I23
I15
tp81
a(I17
I19
I17
I41
I97
I88
I20
I15
tp82
a(I15
I18
I22
I46
I116
I101
I25
I14
tp83
a(I15
I19
I25
I48
I120
I103
I29
I15
tp84
a(I15
I19
I26
I46
I118
I113
I31
I16
tp85
a(I15
I18
I27
I44
I106
I105
I30
I17
tp86
a(I14
I15
I28
I42
I102
I105
I31
I16
tp87
a(I14
I16
I25
I35
I78
I82
I25
I16
tp88
a(I17
I15
I23
I36
I68
I78
I23
I15
tp89
a(I17
I16
I22
I38
I71
I87
I23
I14
tp90
a(I18
I17
I24
I38
I66
I84
I24
I14
tp91
a(I17
I17
I23
I37
I69
I88
I24
I15
tp92
a(I17
I17
I22
I35
I63
I95
I25
I15
tp93
a(I14
I18
I22
I29
I70
I101
I23
I15
tp94
a(I14
I20
I22
I35
I78
I101
I21
I16
tp95
a(I13
I19
I19
I34
I85
I104
I22
I17
tp96
a(I14
I18
I20
I43
I102
I148
I29
I17
tp97
a(I15
I18
I21
I47
I103
I151
I28
I17
tp98
a(I15
I20
I20
I46
I99
I151
I28
I17
tp99
a(I18
I17
I20
I42
I93
I138
I30
I18
tp100
a(I19
I19
I22
I46
I92
I141
I28
I17
tp101
a(I19
I20
I21
I37
I70
I105
I21
I17
tp102
a(I18
I20
I20
I35
I74
I98
I22
I16
tp103
a(I17
I17
I21
I35
I74
I93
I22
I16
tp104
a(I13
I17
I21
I34
I70
I95
I19
I14
tp105
a(I13
I15
I19
I32
I79
I114
I25
I14
tp106
a(I13
I17
I21
I37
I88
I106
I27
I14
tp107
a(I14
I19
I24
I43
I86
I120
I27
I15
tp108
a(I18
I19
I24
I44
I81
I122
I33
I15
tp109
a(I20
I21
I25
I44
I82
I122
I34
I16
tp110
a(I20
I22
I26
I44
I76
I101
I30
I14
tp111
a(I19
I20
I25
I43
I79
I96
I28
I14
tp112
a(I20
I18
I21
I37
I81
I87
I28
I14
tp113
a(I18
I18
I21
I42
I99
I107
I24
I13
tp114
a(I16
I15
I20
I43
I108
I105
I23
I15
tp115
a(I16
I14
I20
I42
I105
I118
I25
I16
tp116
a(I16
I13
I21
I42
I106
I118
I28
I16
tp117
a(I16
I16
I21
I39
I106
I112
I26
I16
tp118
a(I16
I16
I19
I35
I105
I87
I26
I17
tp119
a(I15
I17
I18
I36
I103
I91
I26
I16
tp120
a(I17
I18
I20
I35
I103
I88
I25
I17
tp121
a(I16
I19
I20
I33
I95
I87
I21
I19
tp122
a(I16
I18
I21
I33
I102
I84
I22
I17
tp123
a(I15
I19
I22
I38
I94
I87
I23
I17
tp124
a(I17
I19
I21
I37
I99
I103
I24
I15
tp125
a(I15
I20
I19
I36
I97
I92
I24
I14
tp126
a(I16
I19
I19
I40
I114
I96
I25
I13
tp127
a(I14
I20
I19
I41
I107
I103
I26
I13
tp128
a(I15
I21
I19
I37
I102
I103
I25
I13
tp129
a(I14
I20
I22
I38
I93
I103
I25
I14
tp130
a(I14
I20
I21
I39
I92
I107
I24
I17
tp131
a(I14
I21
I20
I35
I74
I117
I23
I17
tp132
a(I14
I21
I19
I39
I88
I123
I23
I18
tp133
a(I14
I20
I20
I39
I90
I125
I22
I18
tp134
a(I15
I20
I19
I37
I96
I105
I20
I17
tp135
a(I15
I19
I20
I37
I96
I99
I20
I16
tp136
a(I16
I17
I20
I39
I105
I80
I21
I15
tp137
a(I17
I17
I20
I33
I92
I68
I18
I16
tp138
a(I18
I16
I20
I35
I88
I61
I17
I15
tp139
a(I17
I17
I19
I35
I80
I62
I17
I14
tp140
a(I17
I16
I19
I33
I76
I59
I16
I14
tp141
a(I19
I17
I19
I35
I84
I97
I18
I14
tp142
a(I19
I17
I24
I37
I91
I117
I22
I14
tp143
a(I19
I21
I25
I32
I90
I121
I24
I15
tp144
a(I18
I20
I24
I32
I90
I145
I28
I15
tp145
a(I17
I21
I23
I34
I104
I148
I30
I17
tp146
a(I15
I22
I23
I31
I83
I128
I28
I17
tp147
a(I15
I21
I21
I32
I80
I110
I26
I17
tp148
a(I13
I18
I19
I35
I86
I128
I29
I16
tp149
a(I13
I18
I21
I33
I83
I124
I27
I17
tp150
a(I15
I17
I22
I30
I67
I121
I26
I17
tp151
a(I16
I18
I22
I29
I69
I120
I26
I18
tp152
a(I15
I20
I19
I32
I79
I124
I25
I18
tp153
a(I16
I18
I20
I33
I84
I108
I24
I18
tp154
a(I16
I18
I19
I37
I87
I85
I23
I18
tp155
a(I17
I19
I20
I39
I86
I83
I23
I18
tp156
a(I16
I18
I19
I39
I89
I80
I24
I17
tp157
a(I18
I16
I21
I36
I82
I68
I24
I17
tp158
a(I20
I17
I20
I34
I72
I82
I23
I16
tp159
aasS'point-left'
p160
(lp161
(lp162
(I385
I101
I31
I58
I128
I199
I157
I567
tp163
a(I436
I103
I35
I58
I119
I172
I138
I516
tp164
a(I433
I103
I34
I56
I117
I160
I131
I506
tp165
a(I433
I86
I32
I54
I85
I132
I119
I626
tp166
a(I422
I75
I33
I56
I80
I138
I113
I575
tp167
a(I399
I69
I32
I58
I80
I128
I96
I583
tp168
a(I287
I66
I27
I55
I80
I105
I87
I561
tp169
a(I320
I64
I25
I50
I70
I107
I83
I582
tp170
a(I382
I79
I29
I55
I75
I124
I79
I447
tp171
a(I362
I93
I29
I53
I76
I120
I87
I444
tp172
a(I423
I99
I29
I53
I69
I133
I95
I474
tp173
a(I414
I101
I37
I67
I65
I168
I100
I549
tp174
a(I391
I109
I42
I74
I69
I175
I102
I584
tp175
a(I308
I99
I43
I71
I82
I185
I101
I577
tp176
a(I296
I86
I45
I74
I89
I185
I103
I599
tp177
a(I209
I78
I49
I74
I88
I184
I100
I592
tp178
a(I274
I73
I46
I65
I79
I154
I111
I723
tp179
a(I286
I74
I43
I68
I80
I148
I101
I706
tp180
a(I271
I66
I45
I64
I73
I139
I110
I564
tp181
a(I312
I62
I45
I63
I70
I123
I112
I467
tp182
a(I271
I57
I36
I64
I71
I113
I96
I405
tp183
a(I303
I62
I39
I59
I61
I109
I95
I336
tp184
a(I353
I62
I38
I64
I67
I117
I87
I327
tp185
a(I410
I64
I37
I65
I68
I109
I70
I295
tp186
a(I375
I67
I36
I65
I82
I118
I67
I278
tp187
a(I390
I68
I42
I80
I102
I143
I75
I269
tp188
a(I385
I71
I40
I77
I108
I137
I75
I266
tp189
a(I421
I72
I40
I80
I108
I141
I96
I359
tp190
a(I417
I81
I40
I82
I110
I164
I136
I386
tp191
a(I436
I82
I41
I83
I105
I169
I137
I417
tp192
a(I424
I86
I34
I68
I88
I170
I138
I430
tp193
a(I406
I76
I37
I75
I91
I172
I137
I410
tp194
a(I328
I73
I41
I73
I86
I163
I131
I355
tp195
a(I288
I63
I40
I73
I85
I144
I95
I397
tp196
a(I358
I69
I39
I72
I86
I140
I94
I383
tp197
a(I357
I58
I42
I69
I83
I134
I97
I395
tp198
a(I358
I63
I39
I67
I73
I133
I99
I459
tp199
a(I377
I65
I38
I70
I92
I149
I90
I477
tp200
a(I374
I70
I39
I69
I95
I175
I95
I423
tp201
a(I356
I87
I40
I69
I91
I177
I112
I401
tp202
a(I365
I93
I40
I71
I91
I166
I103
I377
tp203
a(I358
I96
I39
I66
I94
I171
I105
I298
tp204
a(I355
I103
I45
I59
I83
I174
I107
I373
tp205
a(I341
I97
I46
I61
I81
I150
I100
I379
tp206
a(I366
I78
I44
I62
I83
I151
I91
I439
tp207
a(I432
I74
I48
I73
I100
I152
I103
I469
tp208
a(I451
I75
I56
I132
I131
I155
I114
I499
tp209
a(I494
I73
I63
I209
I174
I159
I118
I585
tp210
a(I557
I83
I70
I235
I194
I158
I119
I633
tp211
a(I500
I82
I71
I257
I228
I153
I108
I600
tp212
a(I453
I82
I72
I262
I231
I158
I97
I607
tp213
a(I483
I78
I69
I240
I218
I152
I107
I615
tp214
a(I421
I69
I56
I177
I185
I133
I123
I513
tp215
a(I374
I59
I48
I146
I176
I129
I121
I467
tp216
a(I398
I59
I48
I111
I131
I122
I121
I462
tp217
a(I540
I74
I41
I98
I116
I125
I148
I454
tp218
a(I502
I71
I37
I96
I114
I139
I151
I435
tp219
a(I494
I70
I40
I111
I120
I148
I144
I408
tp220
a(I475
I77
I42
I109
I111
I146
I141
I429
tp221
a(I463
I80
I45
I106
I112
I184
I149
I438
tp222
a(I305
I81
I45
I104
I118
I189
I128
I580
tp223
a(I292
I81
I44
I104
I119
I179
I132
I566
tp224
a(I304
I83
I42
I92
I114
I211
I139
I537
tp225
a(I350
I83
I42
I89
I112
I227
I143
I547
tp226
a(I347
I88
I37
I83
I103
I201
I133
I551
tp227
a(I316
I83
I41
I77
I93
I193
I127
I416
tp228
a(I323
I83
I40
I83
I99
I190
I101
I422
tp229
a(I337
I83
I40
I87
I94
I158
I95
I430
tp230
a(I290
I74
I44
I131
I136
I137
I92
I404
tp231
a(I367
I75
I56
I181
I211
I160
I116
I455
tp232
a(I471
I81
I65
I220
I230
I238
I141
I444
tp233
a(I481
I79
I77
I292
I308
I241
I149
I429
tp234
a(I533
I78
I78
I298
I318
I237
I139
I434
tp235
a(I579
I83
I78
I281
I303
I237
I140
I427
tp236
a(I593
I79
I72
I258
I259
I222
I124
I551
tp237
a(I543
I67
I62
I228
I244
I140
I108
I570
tp238
a(I528
I66
I48
I129
I137
I209
I124
I580
tp239
a(I497
I69
I52
I119
I122
I218
I150
I581
tp240
a(I487
I65
I54
I152
I143
I237
I155
I590
tp241
a(I440
I68
I52
I157
I157
I238
I157
I425
tp242
a(I415
I64
I51
I159
I158
I238
I153
I406
tp243
a(I428
I63
I50
I162
I154
I191
I132
I382
tp244
a(I416
I69
I55
I170
I188
I190
I124
I441
tp245
a(I351
I74
I60
I163
I177
I167
I125
I505
tp246
a(I312
I70
I63
I156
I167
I161
I121
I554
tp247
a(I399
I72
I67
I160
I168
I159
I120
I521
tp248
a(I408
I73
I67
I158
I162
I149
I117
I525
tp249
a(I382
I68
I61
I138
I112
I149
I104
I501
tp250
a(I381
I65
I51
I108
I94
I150
I99
I474
tp251
a(I380
I58
I51
I99
I84
I147
I105
I410
tp252
a(I297
I61
I49
I92
I78
I140
I100
I471
tp253
a(I295
I65
I51
I79
I82
I133
I98
I524
tp254
a(I301
I65
I46
I88
I86
I109
I79
I530
tp255
a(I299
I69
I48
I106
I99
I103
I70
I473
tp256
a(I341
I74
I44
I118
I110
I108
I59
I473
tp257
a(I303
I76
I42
I127
I121
I114
I57
I520
tp258
a(I283
I82
I40
I128
I119
I121
I67
I467
tp259
a(I365
I80
I42
I139
I120
I132
I76
I438
tp260
a(I366
I73
I40
I144
I121
I138
I77
I455
tp261
a(I368
I68
I40
I137
I124
I146
I83
I541
tp262
a(I423
I69
I40
I136
I119
I151
I82
I484
tp263
a(I425
I58
I43
I133
I127
I147
I74
I519
tp264
a(I391
I59
I41
I117
I130
I139
I68
I513
tp265
a(I403
I60
I40
I107
I131
I130
I63
I509
tp266
a(I396
I64
I44
I132
I130
I131
I58
I398
tp267
a(I365
I56
I48
I136
I127
I119
I56
I387
tp268
a(I368
I57
I47
I135
I120
I128
I63
I395
tp269
a(I329
I57
I45
I138
I114
I128
I63
I379
tp270
a(I319
I56
I49
I132
I103
I139
I76
I377
tp271
a(I294
I52
I54
I113
I106
I141
I82
I497
tp272
a(I256
I49
I53
I99
I100
I141
I82
I468
tp273
a(I230
I48
I51
I95
I95
I127
I80
I426
tp274
a(I227
I46
I53
I92
I92
I119
I77
I421
tp275
a(I301
I59
I52
I91
I93
I107
I67
I554
tp276
a(I328
I60
I42
I87
I76
I97
I59
I595
tp277
a(I441
I65
I44
I96
I105
I103
I59
I703
tp278
a(I523
I71
I47
I109
I112
I104
I63
I762
tp279
a(I582
I74
I51
I112
I114
I117
I73
I814
tp280
a(I561
I68
I53
I110
I117
I120
I72
I756
tp281
a(I547
I70
I52
I105
I122
I116
I72
I663
tp282
a(I465
I67
I49
I95
I100
I113
I74
I542
tp283
a(I395
I60
I45
I79
I90
I107
I67
I559
tp284
a(I356
I58
I42
I78
I88
I98
I56
I552
tp285
a(I333
I57
I39
I81
I84
I116
I57
I534
tp286
a(I335
I60
I44
I74
I75
I123
I59
I668
tp287
a(I422
I64
I45
I79
I85
I124
I59
I688
tp288
a(I429
I68
I48
I82
I94
I132
I57
I614
tp289
a(I398
I69
I50
I86
I103
I132
I64
I600
tp290
a(I404
I66
I51
I96
I109
I120
I63
I605
tp291
a(I390
I63
I47
I99
I111
I125
I70
I464
tp292
a(I294
I58
I47
I93
I113
I126
I68
I434
tp293
a(I260
I54
I45
I92
I105
I118
I69
I423
tp294
a(I269
I57
I47
I94
I98
I117
I78
I456
tp295
a(I260
I55
I44
I94
I95
I110
I76
I512
tp296
a(I296
I56
I42
I100
I104
I90
I66
I536
tp297
a(I329
I70
I43
I103
I103
I91
I67
I604
tp298
a(I373
I68
I47
I126
I110
I102
I68
I628
tp299
a(I342
I65
I44
I123
I105
I111
I56
I591
tp300
a(I375
I66
I45
I122
I102
I109
I56
I500
tp301
a(I351
I62
I47
I117
I95
I119
I53
I466
tp302
a(I326
I44
I45
I117
I97
I128
I57
I414
tp303
a(I274
I44
I41
I102
I98
I136
I57
I423
tp304
a(I270
I39
I40
I103
I104
I132
I57
I414
tp305
a(I255
I43
I41
I99
I113
I138
I61
I551
tp306
a(I255
I41
I36
I98
I112
I134
I63
I539
tp307
a(I283
I46
I37
I100
I118
I127
I59
I580
tp308
a(I281
I44
I35
I91
I117
I116
I56
I543
tp309
a(I274
I41
I33
I82
I114
I110
I52
I594
tp310
a(I233
I36
I30
I74
I100
I104
I53
I544
tp311
a(I224
I41
I34
I71
I98
I98
I62
I608
tp312
a(I169
I41
I35
I61
I77
I89
I68
I557
tp313
a(I178
I42
I36
I58
I67
I79
I67
I552
tp314
a(I199
I44
I37
I61
I61
I82
I65
I463
tp315
aasS'clench'
p316
(lp317
(lp318
(I136
I48
I42
I45
I95
I200
I303
I80
tp319
a(I157
I50
I46
I47
I94
I194
I334
I82
tp320
a(I157
I56
I54
I48
I97
I209
I326
I98
tp321
a(I148
I58
I57
I48
I99
I213
I307
I99
tp322
a(I151
I53
I60
I41
I102
I229
I277
I96
tp323
a(I154
I48
I59
I37
I88
I210
I291
I103
tp324
a(I139
I48
I61
I40
I95
I218
I289
I120
tp325
a(I136
I41
I52
I39
I87
I222
I291
I107
tp326
a(I136
I41
I48
I39
I86
I224
I287
I106
tp327
a(I142
I40
I43
I42
I80
I220
I315
I111
tp328
a(I143
I50
I47
I49
I93
I218
I286
I109
tp329
a(I136
I53
I46
I49
I89
I232
I262
I91
tp330
a(I133
I58
I50
I48
I87
I198
I294
I101
tp331
a(I132
I60
I56
I49
I89
I197
I316
I122
tp332
a(I146
I58
I56
I46
I81
I169
I277
I117
tp333
a(I151
I52
I56
I45
I74
I171
I285
I122
tp334
a(I159
I49
I53
I41
I71
I152
I279
I119
tp335
a(I161
I42
I51
I42
I77
I158
I228
I116
tp336
a(I159
I36
I47
I41
I74
I150
I181
I93
tp337
a(I147
I39
I45
I41
I74
I149
I185
I92
tp338
a(I140
I38
I38
I32
I63
I129
I162
I73
tp339
a(I138
I38
I43
I37
I73
I110
I166
I90
tp340
a(I136
I46
I48
I40
I91
I148
I250
I90
tp341
a(I162
I48
I49
I41
I90
I141
I263
I97
tp342
a(I158
I49
I49
I42
I90
I146
I270
I97
tp343
a(I154
I54
I56
I45
I95
I156
I285
I99
tp344
a(I141
I54
I55
I43
I89
I154
I286
I80
tp345
a(I167
I56
I53
I43
I73
I157
I223
I80
tp346
a(I147
I58
I57
I45
I90
I211
I222
I82
tp347
a(I140
I59
I60
I47
I120
I276
I246
I98
tp348
a(I134
I56
I58
I47
I130
I289
I235
I97
tp349
a(I145
I59
I58
I49
I160
I300
I217
I118
tp350
a(I113
I52
I57
I47
I172
I287
I206
I115
tp351
a(I102
I52
I56
I43
I167
I266
I228
I113
tp352
a(I112
I49
I56
I42
I154
I258
I251
I105
tp353
a(I134
I50
I57
I42
I158
I263
I261
I123
tp354
a(I136
I47
I55
I41
I156
I299
I283
I132
tp355
a(I147
I48
I54
I43
I153
I297
I308
I128
tp356
a(I153
I51
I57
I54
I177
I347
I299
I127
tp357
a(I153
I52
I58
I54
I175
I316
I267
I124
tp358
a(I163
I50
I56
I56
I185
I308
I274
I131
tp359
a(I162
I50
I58
I56
I166
I272
I267
I131
tp360
a(I153
I57
I64
I59
I163
I292
I259
I141
tp361
a(I166
I53
I62
I52
I138
I253
I310
I150
tp362
a(I168
I59
I67
I64
I176
I320
I347
I158
tp363
a(I155
I57
I66
I63
I155
I323
I341
I141
tp364
a(I146
I59
I65
I62
I158
I322
I343
I117
tp365
a(I139
I54
I62
I65
I174
I321
I356
I105
tp366
a(I145
I57
I62
I71
I188
I321
I329
I113
tp367
a(I164
I49
I53
I58
I150
I257
I310
I105
tp368
a(I156
I51
I55
I58
I161
I275
I308
I105
tp369
a(I158
I48
I53
I56
I156
I270
I298
I105
tp370
a(I158
I47
I59
I54
I138
I258
I304
I106
tp371
a(I165
I47
I56
I47
I114
I226
I279
I100
tp372
a(I147
I52
I56
I49
I118
I222
I250
I104
tp373
a(I147
I51
I53
I45
I102
I189
I285
I114
tp374
a(I148
I54
I56
I47
I104
I202
I278
I126
tp375
a(I185
I56
I46
I44
I114
I187
I272
I139
tp376
a(I171
I52
I46
I41
I115
I193
I268
I130
tp377
a(I160
I49
I47
I41
I117
I192
I289
I126
tp378
a(I159
I51
I51
I48
I121
I185
I260
I124
tp379
a(I172
I46
I45
I49
I121
I201
I285
I114
tp380
a(I141
I48
I54
I51
I106
I233
I272
I103
tp381
a(I127
I46
I53
I51
I115
I245
I294
I94
tp382
a(I141
I48
I60
I54
I118
I234
I276
I94
tp383
a(I148
I49
I59
I51
I118
I240
I291
I97
tp384
a(I159
I49
I61
I49
I117
I222
I297
I100
tp385
a(I158
I44
I49
I46
I124
I208
I278
I104
tp386
a(I174
I48
I49
I46
I123
I207
I268
I105
tp387
a(I178
I47
I41
I43
I121
I210
I276
I115
tp388
a(I173
I48
I43
I43
I124
I204
I272
I104
tp389
a(I155
I48
I44
I42
I121
I224
I277
I94
tp390
a(I174
I47
I49
I44
I117
I226
I293
I84
tp391
a(I178
I46
I56
I44
I110
I209
I301
I87
tp392
a(I170
I49
I57
I44
I103
I204
I281
I77
tp393
a(I166
I47
I53
I41
I99
I200
I275
I76
tp394
a(I160
I55
I62
I46
I108
I166
I260
I88
tp395
a(I132
I53
I61
I48
I117
I158
I242
I86
tp396
a(I96
I54
I56
I47
I128
I172
I234
I83
tp397
a(I89
I47
I56
I47
I129
I180
I261
I75
tp398
a(I82
I48
I56
I48
I124
I175
I271
I79
tp399
a(I78
I38
I45
I45
I119
I189
I267
I76
tp400
a(I76
I39
I44
I40
I113
I214
I269
I78
tp401
a(I85
I40
I43
I40
I102
I206
I245
I81
tp402
a(I80
I48
I45
I42
I118
I202
I226
I98
tp403
a(I85
I48
I46
I40
I121
I209
I217
I97
tp404
a(I91
I51
I49
I42
I124
I238
I257
I94
tp405
a(I98
I52
I51
I41
I119
I210
I261
I97
tp406
a(I89
I50
I51
I45
I125
I212
I319
I93
tp407
a(I103
I49
I51
I46
I124
I244
I343
I95
tp408
a(I98
I49
I51
I50
I140
I241
I335
I97
tp409
a(I100
I49
I53
I52
I141
I210
I297
I94
tp410
a(I126
I50
I51
I51
I139
I194
I292
I91
tp411
a(I145
I59
I55
I48
I130
I198
I257
I115
tp412
a(I135
I56
I54
I45
I114
I168
I226
I112
tp413
a(I142
I56
I56
I44
I92
I190
I230
I113
tp414
a(I139
I54
I52
I40
I77
I180
I250
I113
tp415
a(I110
I52
I52
I42
I82
I198
I246
I111
tp416
a(I91
I41
I47
I42
I76
I183
I227
I103
tp417
a(I81
I38
I46
I43
I85
I175
I214
I89
tp418
a(I71
I40
I44
I43
I100
I186
I193
I78
tp419
a(I68
I42
I42
I42
I106
I183
I199
I78
tp420
a(I81
I45
I42
I44
I114
I186
I206
I90
tp421
a(I76
I44
I41
I43
I128
I201
I221
I84
tp422
a(I83
I43
I45
I43
I122
I191
I236
I94
tp423
a(I79
I46
I49
I41
I114
I189
I243
I93
tp424
a(I80
I42
I52
I47
I133
I219
I222
I97
tp425
a(I79
I45
I55
I49
I144
I262
I270
I94
tp426
a(I82
I49
I59
I51
I144
I262
I264
I84
tp427
a(I78
I49
I54
I49
I154
I271
I297
I77
tp428
a(I91
I48
I52
I50
I166
I276
I303
I82
tp429
a(I117
I47
I49
I45
I149
I255
I311
I103
tp430
a(I118
I40
I48
I45
I130
I203
I295
I96
tp431
a(I114
I34
I47
I45
I122
I213
I303
I94
tp432
a(I113
I36
I54
I52
I131
I260
I276
I96
tp433
a(I105
I36
I55
I52
I114
I235
I281
I95
tp434
a(I80
I41
I56
I54
I140
I272
I293
I72
tp435
a(I68
I41
I51
I50
I139
I287
I265
I77
tp436
a(I80
I47
I55
I56
I157
I330
I293
I82
tp437
a(I99
I54
I53
I52
I143
I291
I297
I81
tp438
a(I112
I62
I57
I55
I144
I298
I292
I87
tp439
a(I109
I60
I58
I56
I133
I290
I279
I92
tp440
a(I108
I61
I61
I59
I137
I281
I297
I99
tp441
a(I99
I58
I58
I58
I130
I245
I286
I113
tp442
a(I101
I49
I54
I57
I131
I250
I275
I119
tp443
a(I94
I43
I53
I56
I130
I243
I306
I121
tp444
a(I93
I43
I50
I53
I128
I219
I308
I117
tp445
a(I119
I43
I49
I52
I136
I253
I291
I117
tp446
a(I143
I42
I44
I44
I127
I250
I316
I100
tp447
a(I150
I46
I42
I43
I124
I242
I318
I124
tp448
a(I147
I43
I38
I40
I132
I254
I275
I127
tp449
a(I148
I45
I41
I42
I134
I250
I253
I124
tp450
a(I134
I43
I41
I39
I124
I204
I268
I138
tp451
a(I123
I43
I42
I38
I123
I163
I227
I152
tp452
a(I110
I42
I44
I39
I126
I176
I234
I131
tp453
a(I124
I40
I45
I43
I161
I186
I242
I128
tp454
a(I127
I39
I44
I41
I157
I208
I269
I131
tp455
a(I136
I42
I47
I43
I155
I213
I275
I121
tp456
a(I144
I44
I50
I46
I154
I257
I304
I107
tp457
a(I138
I44
I52
I50
I161
I278
I332
I103
tp458
a(I125
I43
I48
I44
I109
I255
I332
I94
tp459
a(I126
I45
I54
I52
I123
I269
I423
I103
tp460
a(I120
I44
I50
I51
I119
I287
I434
I89
tp461
a(I109
I45
I52
I54
I125
I290
I411
I90
tp462
a(I107
I43
I48
I50
I114
I267
I380
I92
tp463
a(I127
I49
I54
I52
I131
I285
I410
I98
tp464
a(I129
I47
I52
I48
I115
I261
I332
I85
tp465
a(I120
I50
I56
I50
I120
I248
I325
I81
tp466
a(I124
I55
I59
I50
I121
I224
I345
I95
tp467
a(I128
I57
I63
I52
I124
I220
I366
I99
tp468
a(I114
I57
I60
I51
I108
I211
I373
I99
tp469
a(I135
I58
I58
I49
I114
I208
I358
I101
tp470
a(I139
I57
I59
I50
I112
I194
I358
I101
tp471
a(I134
I51
I51
I43
I99
I161
I325
I91
tp472
a(I146
I53
I50
I42
I103
I194
I312
I118
tp473
a(I146
I52
I49
I41
I111
I209
I306
I133
tp474
a(I138
I49
I47
I42
I107
I200
I333
I133
tp475
a(I135
I50
I43
I38
I104
I215
I328
I135
tp476
aas.