(dp0
S'relaxed'
p1
(lp2
(lp3
(I17
I19
I19
I20
I20
I21
I41
I15
tp4
a(I18
I19
I21
I21
I20
I17
I29
I15
tp5
a(I17
I17
I28
I24
I19
I20
I35
I16
tp6
a(I17
I17
I32
I25
I19
I21
I37
I17
tp7
a(I17
I19
I36
I26
I19
I22
I38
I17
tp8
a(I17
I18
I36
I26
I19
I23
I37
I17
tp9
a(I16
I20
I37
I29
I20
I26
I39
I15
tp10
a(I15
I19
I34
I28
I21
I23
I29
I16
tp11
a(I15
I19
I35
I30
I20
I24
I33
I19
tp12
a(I16
I22
I36
I29
I24
I30
I36
I21
tp13
a(I19
I23
I36
I30
I25
I29
I36
I23
tp14
a(I20
I22
I34
I29
I24
I29
I34
I25
tp15
a(I20
I23
I40
I28
I26
I29
I34
I25
tp16
a(I22
I23
I45
I27
I29
I29
I32
I23
tp17
a(I20
I19
I44
I28
I25
I21
I27
I22
tp18
a(I18
I20
I46
I27
I26
I21
I27
I23
tp19
a(I18
I19
I45
I24
I24
I20
I32
I22
tp20
a(I18
I19
I40
I23
I23
I22
I33
I22
tp21
a(I15
I19
I29
I20
I20
I20
I30
I20
tp22
a(I16
I20
I26
I21
I20
I23
I28
I21
tp23
a(I15
I18
I23
I23
I18
I22
I30
I17
tp24
a(I14
I17
I23
I23
I18
I22
I25
I17
tp25
a(I14
I17
I23
I24
I18
I19
I28
I15
tp26
a(I14
I19
I24
I24
I17
I20
I31
I16
tp27
a(I13
I19
I23
I20
I17
I18
I34
I14
tp28
a(I13
I19
I24
I19
I18
I19
I33
I15
tp29
a(I14
I19
I25
I20
I19
I18
I37
I14
tp30
a(I16
I19
I21
I18
I18
I22
I33
I16
tp31
a(I18
I19
I20
I18
I19
I23
I31
I16
tp32
a(I20
I18
I20
I18
I20
I22
I31
I17
tp33
a(I20
I17
I21
I17
I21
I23
I33
I17
tp34
a(I20
I17
I19
I18
I20
I28
I39
I17
tp35
a(I17
I18
I22
I20
I21
I26
I41
I15
tp36
a(I16
I17
I23
I21
I19
I25
I41
I14
tp37
a(I15
I16
I22
I21
I19
I26
I40
I16
tp38
a(I15
I16
I21
I24
I18
I24
I39
I15
tp39
a(I15
I15
I22
I22
I18
I19
I27
I17
tp40
a(I16
I14
I21
I20
I17
I20
I30
I16
tp41
a(I17
I15
I21
I20
I19
I20
I32
I18
tp42
a(I17
I17
I22
I21
I20
I21
I29
I16
tp43
a(I17
I19
I21
I18
I21
I23
I36
I17
tp44
a(I16
I20
I21
I19
I21
I25
I41
I16
tp45
a(I15
I19
I21
I20
I22
I23
I37
I17
tp46
a(I12
I18
I20
I22
I20
I24
I39
I15
tp47
a(I13
I18
I22
I22
I20
I24
I39
I15
tp48
a(I12
I17
I22
I22
I18
I22
I35
I17
tp49
a(I13
I16
I20
I25
I18
I21
I32
I17
tp50
a(I13
I20
I21
I25
I17
I29
I36
I18
tp51
a(I14
I21
I23
I24
I17
I28
I36
I18
tp52
a(I14
I20
I22
I21
I16
I28
I36
I18
tp53
a(I15
I21
I22
I22
I17
I28
I39
I15
tp54
a(I16
I21
I23
I20
I16
I27
I38
I16
tp55
a(I16
I19
I23
I18
I16
I24
I36
I15
tp56
a(I15
I18
I22
I17
I17
I26
I34
I16
tp57
a(I15
I19
I22
I19
I18
I26
I33
I15
tp58
a(I14
I18
I22
I20
I16
I25
I30
I17
tp59
a(I14
I18
I22
I20
I17
I27
I29
I15
tp60
a(I15
I18
I22
I20
I17
I23
I27
I15
tp61
a(I17
I19
I22
I22
I15
I21
I26
I14
tp62
a(I18
I18
I20
I20
I13
I22
I30
I14
tp63
a(I19
I19
I19
I21
I14
I24
I32
I13
tp64
a(I18
I18
I18
I22
I14
I23
I33
I13
tp65
a(I16
I20
I16
I22
I13
I21
I36
I14
tp66
a(I15
I19
I15
I22
I15
I23
I34
I15
tp67
a(I13
I20
I15
I21
I16
I21
I31
I15
tp68
a(I13
I19
I16
I19
I17
I20
I28
I15
tp69
a(I12
I20
I19
I17
I18
I19
I30
I15
tp70
a(I13
I19
I19
I18
I18
I21
I32
I16
tp71
a(I17
I19
I23
I21
I18
I19
I33
I14
tp72
a(I19
I19
I25
I22
I19
I19
I32
I14
tp73
a(I18
I20
I25
I22
I22
I20
I31
I14
tp74
a(I20
I20
I25
I22
I22
I20
I31
I14
tp75
a(I20
I18
I26
I23
I22
I21
I27
I16
tp76
a(I16
I19
I23
I20
I22
I21
I28
I18
tp77
a(I15
I20
I22
I21
I20
I21
I28
I18
tp78
a(I14
I18
I21
I21
I18
I19
I29
I19
tp79
a(I13
I17
I23
I19
I19
I22
I34
I18
tp80
a(I13
I17
I22
I19
I19
I24
I34
I17
tp81
a(I14
I16
I22
I18
I18
I24
I33
I18
tp82
a(I14
I15
I22
I16
I18
I24
I33
I18
tp83
a(I16
I16
I22
I17
I18
I25
I33
I18
tp84
a(I16
I18
I20
I18
I17
I22
I27
I21
tp85
a(I17
I20
I18
I20
I16
I17
I26
I22
tp86
a(I17
I20
I20
I20
I16
I16
I25
I20
tp87
a(I16
I20
I20
I21
I17
I16
I26
I20
tp88
a(I14
I20
I21
I20
I18
I16
I27
I18
tp89
a(I17
I18
I20
I22
I18
I16
I29
I16
tp90
a(I16
I17
I22
I23
I18
I19
I30
I14
tp91
a(I16
I18
I22
I23
I19
I21
I36
I15
tp92
a(I20
I16
I20
I24
I21
I22
I36
I16
tp93
a(I20
I17
I19
I23
I19
I23
I35
I17
tp94
a(I18
I20
I21
I25
I18
I22
I32
I18
tp95
a(I19
I18
I22
I23
I20
I19
I34
I17
tp96
a(I18
I19
I21
I23
I19
I17
I30
I17
tp97
a(I16
I21
I22
I22
I18
I18
I29
I16
tp98
a(I16
I20
I21
I23
I18
I18
I28
I15
tp99
a(I17
I17
I21
I20
I21
I18
I27
I14
tp100
a(I16
I18
I17
I22
I20
I20
I23
I16
tp101
a(I16
I17
I17
I21
I21
I21
I19
I16
tp102
a(I16
I14
I20
I21
I21
I19
I19
I17
tp103
a(I15
I14
I20
I21
I21
I18
I19
I17
tp104
a(I14
I16
I19
I22
I18
I19
I17
I18
tp105
a(I55
I21
I19
I19
I18
I19
I17
I19
tp106
a(I57
I21
I20
I19
I20
I20
I16
I20
tp107
a(I60
I23
I18
I18
I19
I19
I17
I19
tp108
a(I61
I25
I20
I17
I21
I21
I19
I19
tp109
a(I62
I24
I22
I17
I22
I20
I29
I20
tp110
a(I34
I19
I22
I21
I23
I21
I31
I18
tp111
a(I30
I19
I22
I21
I22
I23
I33
I16
tp112
a(I25
I19
I24
I20
I21
I24
I36
I17
tp113
a(I23
I17
I22
I22
I21
I23
I37
I18
tp114
a(I21
I18
I21
I22
I19
I24
I30
I16
tp115
a(I17
I19
I20
I20
I17
I22
I29
I14
tp116
a(I16
I18
I22
I21
I18
I17
I27
I16
tp117
a(I17
I17
I21
I23
I18
I18
I25
I16
tp118
a(I15
I18
I23
I20
I17
I18
I21
I16
tp119
a(I17
I18
I23
I22
I19
I17
I23
I16
tp120
a(I16
I17
I23
I22
I18
I19
I31
I16
tp121
a(I17
I19
I21
I21
I17
I24
I34
I18
tp122
a(I16
I18
I21
I19
I19
I23
I35
I17
tp123
a(I16
I18
I18
I22
I18
I25
I41
I16
tp124
a(I16
I19
I18
I20
I16
I25
I41
I16
tp125
a(I15
I18
I19
I20
I17
I22
I37
I16
tp126
a(I13
I16
I19
I21
I18
I18
I36
I14
tp127
a(I14
I18
I21
I21
I18
I21
I35
I14
tp128
a(I13
I17
I19
I20
I17
I19
I28
I15
tp129
a(I13
I16
I21
I20
I17
I20
I28
I14
tp130
a(I14
I18
I20
I19
I17
I22
I26
I14
tp131
a(I15
I19
I20
I17
I18
I22
I31
I13
tp132
a(I15
I18
I19
I19
I18
I20
I40
I14
tp133
a(I16
I18
I22
I19
I19
I20
I41
I13
tp134
a(I16
I19
I21
I19
I18
I19
I40
I13
tp135
a(I15
I17
I20
I21
I19
I19
I39
I13
tp136
a(I16
I18
I21
I24
I17
I19
I33
I16
tp137
a(I16
I17
I21
I23
I16
I18
I22
I16
tp138
a(I17
I17
I22
I23
I16
I20
I21
I17
tp139
a(I17
I17
I23
I23
I18
I20
I25
I16
tp140
a(I18
I17
I22
I21
I17
I22
I25
I18
tp141
a(I18
I17
I21
I18
I19
I21
I26
I16
tp142
a(I18
I17
I21
I18
I20
I24
I37
I18
tp143
a(I17
I18
I19
I20
I19
I24
I39
I17
tp144
a(I16
I18
I18
I20
I18
I23
I37
I18
tp145
a(I15
I18
I21
I22
I19
I21
I36
I17
tp146
a(I16
I19
I27
I22
I18
I22
I35
I18
tp147
a(I16
I19
I27
I24
I17
I17
I23
I15
tp148
a(I15
I17
I28
I22
I16
I19
I26
I17
tp149
a(I16
I18
I29
I23
I18
I19
I33
I16
tp150
a(I17
I18
I27
I22
I17
I21
I33
I16
tp151
a(I15
I16
I23
I22
I17
I20
I34
I17
tp152
a(I16
I18
I22
I21
I19
I23
I34
I18
tp153
a(I17
I18
I19
I23
I19
I21
I29
I16
tp154
a(I17
I18
I20
I21
I17
I22
I23
I16
tp155
a(I17
I19
I20
I24
I18
I19
I24
I16
tp156
a(I16
I20
I18
I24
I20
I20
I29
I15
tp157
a(I16
I20
I21
I22
I20
I19
I29
I18
tp158
a(I16
I21
I21
I22
I21
I20
I30
I18
tp159
aasS'slap-up'
p160
(lp161
(lp162
(I35
I67
I107
I464
I663
I302
I131
I52
tp163
a(I36
I74
I127
I518
I691
I320
I126
I56
tp164
a(I42
I84
I140
I492
I693
I402
I132
I63
tp165
a(I45
I90
I166
I552
I732
I413
I139
I66
tp166
a(I42
I83
I161
I557
I672
I402
I123
I71
tp167
a(I45
I89
I170
I581
I676
I399
I131
I83
tp168
a(I42
I84
I153
I540
I684
I389
I122
I81
tp169
a(I40
I79
I160
I504
I713
I365
I158
I79
tp170
a(I40
I83
I154
I467
I690
I358
I154
I81
tp171
a(I40
I80
I152
I462
I710
I361
I158
I72
tp172
a(I38
I85
I178
I467
I728
I372
I161
I62
tp173
a(I43
I86
I195
I520
I759
I363
I161
I63
tp174
a(I39
I80
I182
I524
I761
I320
I144
I57
tp175
a(I41
I83
I172
I545
I824
I345
I153
I56
tp176
a(I47
I91
I187
I571
I893
I396
I159
I61
tp177
a(I46
I92
I160
I556
I884
I399
I155
I60
tp178
a(I42
I90
I141
I528
I857
I388
I154
I59
tp179
a(I42
I90
I139
I566
I834
I365
I130
I57
tp180
a(I37
I81
I136
I549
I781
I327
I117
I50
tp181
a(I33
I78
I123
I523
I677
I344
I121
I48
tp182
a(I34
I66
I123
I455
I616
I325
I117
I41
tp183
a(I35
I66
I129
I472
I667
I350
I116
I43
tp184
a(I36
I67
I126
I436
I652
I364
I126
I48
tp185
a(I48
I95
I193
I439
I605
I383
I163
I60
tp186
a(I47
I99
I188
I410
I601
I317
I152
I56
tp187
a(I48
I100
I198
I467
I637
I322
I156
I58
tp188
a(I49
I104
I196
I421
I560
I311
I161
I59
tp189
a(I48
I106
I200
I502
I600
I318
I156
I56
tp190
a(I35
I80
I135
I481
I650
I289
I111
I42
tp191
a(I37
I75
I138
I484
I679
I276
I109
I43
tp192
a(I37
I72
I126
I465
I683
I287
I106
I43
tp193
a(I36
I71
I134
I469
I684
I302
I141
I45
tp194
a(I39
I66
I122
I401
I651
I277
I135
I45
tp195
a(I41
I70
I119
I400
I606
I285
I136
I45
tp196
a(I41
I70
I124
I426
I677
I328
I158
I53
tp197
a(I39
I70
I119
I397
I622
I320
I157
I52
tp198
a(I41
I70
I113
I438
I630
I336
I118
I48
tp199
a(I34
I67
I107
I392
I561
I345
I139
I47
tp200
a(I34
I61
I108
I399
I617
I350
I138
I48
tp201
a(I37
I57
I106
I383
I527
I324
I135
I43
tp202
a(I41
I66
I106
I443
I601
I341
I145
I48
tp203
a(I40
I65
I108
I442
I649
I312
I162
I54
tp204
a(I42
I67
I110
I480
I650
I308
I149
I54
tp205
a(I40
I71
I107
I473
I630
I291
I145
I53
tp206
a(I38
I70
I105
I468
I610
I284
I133
I53
tp207
a(I37
I87
I134
I422
I554
I249
I132
I51
tp208
a(I40
I92
I153
I430
I553
I325
I118
I51
tp209
a(I41
I96
I152
I402
I572
I364
I137
I52
tp210
a(I43
I94
I152
I402
I542
I368
I142
I54
tp211
a(I40
I95
I146
I400
I575
I393
I157
I49
tp212
a(I39
I85
I120
I384
I609
I393
I150
I51
tp213
a(I34
I79
I93
I431
I710
I332
I145
I40
tp214
a(I37
I85
I106
I517
I853
I344
I144
I46
tp215
a(I41
I91
I120
I525
I890
I373
I154
I46
tp216
a(I48
I98
I133
I550
I926
I403
I136
I56
tp217
a(I46
I93
I139
I545
I933
I402
I133
I52
tp218
a(I48
I96
I147
I468
I819
I410
I136
I54
tp219
a(I45
I90
I151
I456
I721
I376
I136
I49
tp220
a(I40
I85
I146
I453
I690
I343
I123
I48
tp221
a(I34
I74
I146
I434
I609
I266
I125
I41
tp222
a(I33
I63
I136
I487
I605
I250
I143
I45
tp223
a(I32
I57
I122
I494
I653
I239
I144
I47
tp224
a(I32
I52
I114
I455
I674
I219
I134
I48
tp225
a(I35
I52
I116
I452
I663
I229
I136
I50
tp226
a(I39
I58
I112
I529
I710
I237
I131
I50
tp227
a(I38
I60
I110
I489
I771
I281
I115
I44
tp228
a(I36
I56
I109
I551
I766
I280
I145
I45
tp229
a(I35
I55
I101
I511
I731
I266
I142
I44
tp230
a(I33
I58
I98
I524
I793
I269
I145
I46
tp231
a(I30
I57
I92
I479
I790
I280
I155
I45
tp232
a(I30
I58
I90
I482
I713
I265
I153
I46
tp233
a(I32
I65
I93
I416
I736
I239
I134
I46
tp234
a(I32
I63
I100
I483
I697
I261
I148
I51
tp235
a(I38
I61
I103
I510
I717
I347
I161
I55
tp236
a(I38
I55
I95
I451
I697
I334
I153
I54
tp237
a(I38
I53
I103
I437
I698
I343
I155
I54
tp238
a(I42
I62
I99
I430
I659
I344
I141
I51
tp239
a(I44
I67
I98
I370
I732
I342
I121
I50
tp240
a(I41
I66
I101
I329
I700
I250
I116
I43
tp241
a(I43
I69
I120
I351
I697
I248
I127
I44
tp242
a(I46
I78
I129
I405
I728
I215
I133
I47
tp243
a(I45
I68
I134
I419
I704
I219
I132
I46
tp244
a(I44
I67
I129
I445
I633
I255
I141
I45
tp245
a(I42
I69
I121
I441
I563
I253
I124
I42
tp246
a(I40
I67
I116
I432
I528
I264
I140
I44
tp247
a(I39
I61
I108
I414
I584
I272
I135
I45
tp248
a(I43
I74
I131
I498
I607
I334
I150
I57
tp249
a(I43
I71
I131
I492
I655
I314
I150
I56
tp250
a(I42
I73
I135
I486
I661
I325
I156
I58
tp251
a(I44
I81
I156
I508
I708
I318
I135
I59
tp252
a(I43
I82
I153
I485
I623
I314
I153
I58
tp253
a(I41
I77
I156
I422
I662
I325
I182
I64
tp254
a(I40
I79
I163
I402
I633
I348
I181
I65
tp255
a(I46
I81
I174
I443
I671
I381
I191
I70
tp256
a(I41
I80
I152
I411
I754
I387
I192
I67
tp257
a(I41
I75
I157
I428
I759
I384
I178
I66
tp258
a(I37
I69
I136
I385
I718
I336
I136
I48
tp259
a(I41
I71
I145
I424
I748
I367
I148
I53
tp260
a(I34
I67
I142
I392
I753
I324
I126
I42
tp261
a(I36
I60
I140
I381
I620
I357
I114
I42
tp262
a(I35
I66
I135
I365
I622
I372
I118
I41
tp263
a(I32
I63
I128
I411
I614
I366
I120
I42
tp264
a(I27
I59
I107
I349
I512
I311
I97
I34
tp265
a(I44
I77
I154
I442
I573
I389
I114
I50
tp266
a(I44
I76
I155
I444
I559
I359
I119
I50
tp267
a(I50
I77
I162
I437
I625
I418
I131
I61
tp268
a(I51
I87
I179
I414
I634
I421
I124
I63
tp269
a(I51
I85
I180
I425
I700
I415
I121
I63
tp270
a(I40
I69
I127
I296
I631
I347
I109
I52
tp271
a(I41
I75
I125
I296
I642
I369
I123
I53
tp272
a(I36
I80
I152
I336
I598
I324
I121
I40
tp273
a(I34
I70
I135
I291
I553
I311
I131
I41
tp274
a(I37
I78
I135
I325
I555
I307
I139
I45
tp275
a(I37
I77
I136
I339
I530
I301
I140
I49
tp276
a(I39
I77
I141
I398
I626
I294
I142
I56
tp277
a(I40
I74
I109
I378
I600
I276
I172
I61
tp278
a(I38
I71
I106
I391
I628
I271
I166
I58
tp279
a(I38
I71
I115
I400
I629
I277
I160
I56
tp280
a(I37
I72
I126
I401
I612
I311
I168
I54
tp281
a(I35
I76
I128
I353
I510
I295
I152
I45
tp282
a(I31
I68
I120
I357
I510
I282
I100
I35
tp283
a(I36
I73
I123
I354
I476
I298
I116
I40
tp284
a(I33
I70
I120
I346
I414
I305
I138
I44
tp285
a(I36
I69
I106
I316
I464
I274
I123
I44
tp286
a(I39
I63
I104
I315
I522
I288
I124
I48
tp287
a(I42
I65
I109
I305
I562
I306
I128
I51
tp288
a(I48
I90
I153
I393
I626
I321
I144
I58
tp289
a(I50
I91
I159
I359
I642
I323
I128
I57
tp290
a(I45
I90
I157
I371
I633
I316
I129
I56
tp291
a(I41
I84
I149
I372
I601
I288
I133
I54
tp292
a(I44
I86
I151
I370
I594
I323
I136
I58
tp293
a(I35
I69
I113
I302
I552
I311
I118
I48
tp294
a(I32
I68
I101
I336
I525
I299
I114
I46
tp295
a(I35
I66
I104
I340
I488
I321
I133
I46
tp296
a(I36
I66
I105
I337
I519
I350
I130
I47
tp297
a(I32
I63
I92
I335
I506
I332
I121
I41
tp298
a(I38
I60
I98
I316
I501
I342
I132
I47
tp299
a(I39
I61
I102
I269
I548
I337
I134
I49
tp300
a(I39
I61
I101
I309
I592
I341
I121
I48
tp301
a(I40
I67
I103
I295
I595
I348
I124
I46
tp302
a(I39
I71
I105
I310
I560
I329
I120
I43
tp303
a(I36
I65
I97
I302
I563
I331
I103
I39
tp304
a(I36
I61
I96
I354
I559
I325
I100
I38
tp305
a(I35
I62
I102
I318
I510
I291
I95
I38
tp306
a(I34
I59
I110
I365
I460
I270
I120
I39
tp307
a(I37
I57
I111
I349
I480
I249
I134
I44
tp308
a(I36
I55
I120
I366
I476
I234
I134
I48
tp309
a(I37
I56
I125
I343
I458
I270
I159
I51
tp310
a(I36
I62
I126
I346
I531
I292
I164
I55
tp311
a(I37
I63
I117
I304
I577
I304
I150
I56
tp312
a(I34
I59
I117
I320
I558
I314
I138
I53
tp313
a(I36
I62
I102
I332
I545
I333
I134
I52
tp314
a(I33
I63
I89
I317
I547
I343
I116
I49
tp315
a(I34
I66
I105
I348
I506
I341
I113
I47
tp316
a(I36
I67
I110
I342
I430
I310
I103
I45
tp317
a(I37
I67
I119
I386
I494
I298
I129
I52
tp318
aasS'point-left'
p319
(lp320
(lp321
(I376
I55
I34
I64
I81
I211
I190
I166
tp322
a(I347
I50
I33
I72
I84
I195
I207
I167
tp323
a(I316
I44
I32
I86
I108
I209
I220
I155
tp324
a(I365
I50
I34
I86
I114
I222
I226
I137
tp325
a(I328
I45
I43
I83
I116
I233
I232
I137
tp326
a(I322
I42
I44
I80
I123
I259
I261
I140
tp327
a(I328
I45
I42
I70
I115
I255
I232
I148
tp328
a(I341
I46
I44
I75
I92
I214
I244
I165
tp329
a(I344
I41
I48
I81
I81
I204
I283
I154
tp330
a(I365
I40
I46
I81
I79
I194
I280
I152
tp331
a(I352
I40
I49
I89
I71
I174
I276
I136
tp332
a(I353
I36
I58
I91
I77
I202
I289
I116
tp333
a(I384
I35
I65
I76
I82
I198
I265
I103
tp334
a(I357
I40
I61
I67
I80
I219
I235
I128
tp335
a(I346
I40
I57
I68
I78
I225
I231
I121
tp336
a(I346
I41
I54
I60
I79
I214
I202
I125
tp337
a(I373
I40
I43
I59
I79
I194
I193
I142
tp338
a(I313
I39
I26
I54
I76
I208
I192
I134
tp339
a(I283
I33
I24
I54
I74
I157
I162
I116
tp340
a(I269
I32
I27
I53
I72
I140
I143
I122
tp341
a(I240
I30
I28
I50
I66
I136
I139
I114
tp342
a(I168
I31
I33
I48
I69
I130
I128
I112
tp343
a(I313
I52
I35
I39
I62
I101
I221
I116
tp344
a(I325
I54
I36
I44
I64
I93
I235
I125
tp345
a(I324
I54
I35
I45
I77
I104
I239
I122
tp346
a(I361
I58
I36
I49
I81
I110
I267
I145
tp347
a(I412
I62
I33
I51
I73
I124
I285
I150
tp348
a(I334
I47
I36
I53
I77
I128
I238
I153
tp349
a(I319
I44
I36
I49
I80
I126
I232
I148
tp350
a(I398
I51
I38
I53
I73
I134
I252
I167
tp351
a(I413
I48
I38
I49
I71
I127
I228
I157
tp352
a(I364
I44
I38
I43
I70
I107
I202
I140
tp353
a(I336
I43
I33
I39
I77
I105
I170
I132
tp354
a(I334
I42
I38
I45
I79
I118
I154
I124
tp355
a(I262
I44
I38
I40
I78
I96
I151
I92
tp356
a(I193
I44
I38
I40
I96
I127
I197
I139
tp357
a(I197
I46
I37
I46
I96
I127
I219
I142
tp358
a(I286
I47
I37
I48
I94
I126
I237
I175
tp359
a(I324
I50
I34
I49
I103
I119
I244
I176
tp360
a(I348
I49
I33
I48
I101
I130
I226
I182
tp361
a(I366
I47
I33
I48
I82
I103
I189
I147
tp362
a(I382
I46
I34
I44
I81
I114
I180
I167
tp363
a(I329
I46
I36
I44
I81
I119
I166
I131
tp364
a(I291
I42
I35
I39
I68
I114
I153
I146
tp365
a(I235
I34
I32
I39
I67
I111
I143
I141
tp366
a(I197
I33
I30
I42
I71
I115
I143
I138
tp367
a(I141
I28
I27
I41
I71
I105
I133
I104
tp368
a(I135
I25
I30
I37
I66
I95
I125
I117
tp369
a(I198
I31
I29
I40
I74
I113
I177
I101
tp370
a(I196
I31
I32
I40
I72
I126
I186
I95
tp371
a(I197
I33
I38
I37
I69
I121
I178
I94
tp372
a(I222
I37
I40
I37
I68
I121
I189
I107
tp373
a(I254
I40
I37
I41
I67
I118
I188
I109
tp374
a(I226
I38
I37
I53
I75
I146
I150
I112
tp375
a(I260
I41
I37
I56
I90
I143
I177
I118
tp376
a(I314
I47
I32
I56
I90
I157
I177
I131
tp377
a(I308
I46
I34
I57
I94
I161
I162
I130
tp378
a(I290
I46
I35
I58
I100
I170
I196
I135
tp379
a(I282
I47
I38
I48
I86
I138
I199
I137
tp380
a(I264
I44
I39
I50
I72
I134
I171
I181
tp381
a(I203
I36
I41
I52
I74
I123
I179
I172
tp382
a(I236
I38
I37
I54
I83
I129
I214
I167
tp383
a(I245
I36
I36
I51
I74
I119
I203
I162
tp384
a(I240
I34
I32
I49
I71
I117
I214
I159
tp385
a(I259
I41
I29
I45
I70
I115
I213
I108
tp386
a(I257
I42
I26
I41
I68
I111
I210
I107
tp387
a(I218
I39
I28
I41
I76
I126
I201
I110
tp388
a(I191
I42
I35
I47
I81
I140
I201
I95
tp389
a(I237
I46
I39
I51
I90
I143
I189
I98
tp390
a(I217
I42
I38
I58
I101
I163
I193
I86
tp391
a(I217
I42
I38
I60
I101
I161
I192
I85
tp392
a(I223
I43
I39
I56
I90
I140
I167
I87
tp393
a(I314
I45
I31
I52
I87
I132
I138
I102
tp394
a(I292
I39
I32
I55
I98
I124
I125
I100
tp395
a(I290
I38
I33
I47
I92
I93
I119
I112
tp396
a(I301
I41
I33
I45
I94
I96
I123
I130
tp397
a(I331
I43
I34
I44
I88
I103
I156
I131
tp398
a(I292
I41
I36
I44
I89
I114
I165
I125
tp399
a(I276
I40
I30
I37
I64
I114
I164
I122
tp400
a(I267
I41
I30
I36
I61
I113
I172
I141
tp401
a(I369
I50
I31
I37
I56
I107
I167
I129
tp402
a(I358
I52
I31
I40
I55
I100
I126
I223
tp403
a(I320
I50
I29
I40
I55
I87
I121
I237
tp404
a(I363
I53
I31
I42
I64
I81
I121
I244
tp405
a(I387
I52
I31
I43
I61
I78
I106
I246
tp406
a(I274
I37
I31
I46
I65
I93
I136
I245
tp407
a(I240
I30
I31
I42
I67
I109
I140
I166
tp408
a(I247
I29
I31
I48
I74
I107
I134
I155
tp409
a(I182
I28
I31
I46
I70
I110
I131
I142
tp410
a(I156
I27
I31
I45
I71
I120
I157
I114
tp411
a(I186
I30
I30
I45
I73
I136
I137
I124
tp412
a(I195
I32
I31
I48
I70
I140
I137
I133
tp413
a(I247
I38
I32
I43
I61
I137
I144
I124
tp414
a(I290
I42
I29
I46
I58
I143
I152
I130
tp415
a(I284
I44
I30
I49
I59
I143
I129
I160
tp416
a(I280
I44
I30
I49
I64
I120
I119
I155
tp417
a(I283
I44
I29
I48
I68
I104
I116
I145
tp418
a(I233
I37
I27
I46
I69
I117
I115
I143
tp419
a(I179
I32
I30
I45
I73
I107
I105
I145
tp420
a(I171
I30
I30
I39
I70
I101
I107
I109
tp421
a(I174
I33
I31
I41
I65
I103
I110
I122
tp422
a(I196
I33
I31
I42
I65
I100
I105
I120
tp423
a(I226
I38
I31
I43
I63
I86
I117
I126
tp424
a(I223
I38
I32
I62
I69
I119
I114
I115
tp425
a(I214
I36
I31
I63
I70
I112
I144
I117
tp426
a(I199
I31
I28
I60
I72
I115
I151
I114
tp427
a(I186
I33
I32
I59
I71
I115
I165
I115
tp428
a(I162
I30
I30
I62
I73
I115
I152
I117
tp429
a(I197
I30
I28
I44
I68
I99
I203
I170
tp430
a(I193
I30
I28
I41
I65
I96
I184
I173
tp431
a(I214
I34
I36
I50
I78
I93
I184
I172
tp432
a(I209
I33
I35
I51
I77
I96
I186
I173
tp433
a(I205
I35
I37
I46
I76
I95
I190
I176
tp434
a(I176
I37
I38
I47
I76
I89
I155
I139
tp435
a(I177
I37
I40
I46
I77
I90
I155
I139
tp436
a(I150
I36
I34
I35
I60
I83
I144
I123
tp437
a(I133
I34
I31
I36
I58
I76
I126
I119
tp438
a(I128
I32
I30
I31
I59
I77
I142
I116
tp439
a(I255
I49
I31
I42
I71
I91
I131
I107
tp440
a(I270
I50
I28
I45
I77
I97
I124
I101
tp441
a(I269
I51
I32
I47
I77
I107
I130
I117
tp442
a(I303
I52
I37
I47
I76
I109
I140
I135
tp443
a(I310
I52
I39
I48
I78
I107
I125
I131
tp444
a(I237
I37
I36
I39
I68
I86
I127
I129
tp445
a(I224
I37
I34
I37
I65
I86
I141
I129
tp446
a(I217
I36
I30
I43
I62
I117
I155
I114
tp447
a(I176
I36
I27
I40
I67
I122
I156
I105
tp448
a(I172
I36
I25
I42
I68
I131
I163
I94
tp449
a(I145
I34
I26
I43
I64
I131
I160
I87
tp450
a(I146
I31
I29
I45
I66
I130
I150
I107
tp451
a(I193
I31
I30
I40
I70
I111
I152
I112
tp452
a(I236
I37
I31
I42
I67
I112
I146
I104
tp453
a(I245
I37
I33
I45
I68
I104
I129
I120
tp454
a(I264
I41
I32
I43
I64
I103
I125
I122
tp455
a(I301
I48
I32
I39
I62
I119
I146
I210
tp456
a(I292
I52
I31
I38
I54
I120
I125
I220
tp457
a(I256
I47
I30
I39
I59
I118
I127
I220
tp458
a(I238
I46
I29
I38
I59
I116
I126
I218
tp459
a(I258
I45
I29
I42
I72
I126
I130
I235
tp460
a(I234
I40
I29
I43
I72
I111
I126
I159
tp461
a(I231
I34
I28
I47
I73
I96
I125
I142
tp462
a(I236
I36
I33
I45
I74
I101
I126
I141
tp463
a(I252
I35
I35
I41
I69
I103
I139
I131
tp464
a(I229
I37
I39
I39
I65
I125
I133
I94
tp465
a(I252
I41
I40
I38
I67
I126
I108
I80
tp466
a(I239
I43
I39
I36
I74
I125
I112
I86
tp467
a(I229
I43
I33
I43
I71
I124
I111
I85
tp468
a(I246
I44
I30
I44
I72
I125
I113
I90
tp469
a(I241
I38
I26
I45
I70
I112
I116
I102
tp470
a(I196
I37
I24
I48
I72
I110
I152
I97
tp471
a(I183
I33
I25
I46
I64
I107
I145
I109
tp472
a(I192
I32
I30
I47
I64
I101
I145
I110
tp473
a(I148
I31
I31
I49
I68
I101
I143
I110
tp474
aas.