(dp0
S'relaxed'
p1
(lp2
(lp3
(I19
I18
I24
I22
I42
I97
I29
I17
tp4
a(I17
I18
I24
I23
I40
I92
I25
I20
tp5
a(I18
I19
I21
I23
I36
I83
I22
I18
tp6
a(I18
I18
I39
I19
I37
I81
I21
I19
tp7
a(I18
I19
I49
I20
I42
I87
I16
I23
tp8
a(I18
I20
I49
I22
I37
I79
I16
I23
tp9
a(I18
I19
I49
I24
I37
I80
I15
I21
tp10
a(I18
I19
I49
I25
I39
I89
I17
I21
tp11
a(I17
I19
I37
I29
I36
I81
I18
I21
tp12
a(I16
I19
I27
I31
I30
I74
I20
I17
tp13
a(I13
I18
I32
I33
I34
I78
I21
I17
tp14
a(I14
I21
I32
I33
I34
I80
I22
I16
tp15
a(I15
I20
I35
I37
I33
I74
I20
I15
tp16
a(I16
I20
I34
I35
I36
I80
I22
I15
tp17
a(I17
I20
I31
I33
I36
I79
I23
I14
tp18
a(I17
I19
I26
I30
I36
I82
I23
I15
tp19
a(I17
I17
I28
I29
I37
I77
I24
I15
tp20
a(I16
I17
I25
I25
I35
I66
I24
I17
tp21
a(I14
I16
I26
I23
I34
I72
I21
I15
tp22
a(I15
I15
I25
I24
I32
I71
I21
I16
tp23
a(I16
I15
I25
I23
I30
I69
I19
I15
tp24
a(I16
I16
I23
I23
I30
I73
I17
I16
tp25
a(I17
I15
I22
I20
I31
I74
I18
I14
tp26
a(I17
I15
I18
I21
I34
I71
I18
I15
tp27
a(I16
I18
I19
I20
I35
I74
I17
I15
tp28
a(I17
I19
I18
I18
I36
I71
I17
I16
tp29
a(I16
I17
I19
I19
I36
I76
I19
I15
tp30
a(I17
I20
I20
I21
I40
I87
I22
I17
tp31
a(I17
I21
I20
I22
I38
I83
I23
I17
tp32
a(I17
I20
I19
I21
I38
I85
I22
I17
tp33
a(I16
I20
I20
I25
I35
I82
I22
I16
tp34
a(I17
I20
I21
I26
I35
I83
I23
I17
tp35
a(I15
I18
I23
I25
I33
I77
I20
I16
tp36
a(I13
I16
I23
I25
I35
I87
I20
I18
tp37
a(I14
I17
I24
I27
I37
I104
I24
I16
tp38
a(I14
I18
I23
I25
I37
I104
I23
I17
tp39
a(I15
I17
I21
I22
I39
I103
I23
I15
tp40
a(I16
I20
I19
I24
I38
I101
I22
I16
tp41
a(I17
I20
I21
I23
I35
I90
I22
I15
tp42
a(I18
I18
I19
I22
I33
I83
I21
I15
tp43
a(I17
I17
I19
I21
I36
I86
I24
I16
tp44
a(I16
I17
I20
I20
I36
I91
I24
I16
tp45
a(I15
I16
I19
I18
I36
I90
I27
I15
tp46
a(I15
I17
I18
I20
I38
I93
I27
I15
tp47
a(I14
I18
I19
I20
I36
I88
I25
I15
tp48
a(I15
I21
I18
I21
I35
I87
I23
I13
tp49
a(I16
I22
I19
I25
I30
I78
I20
I13
tp50
a(I15
I21
I20
I25
I29
I79
I17
I15
tp51
a(I16
I20
I18
I25
I26
I76
I17
I15
tp52
a(I15
I20
I18
I24
I36
I79
I18
I14
tp53
a(I13
I17
I20
I26
I35
I79
I19
I14
tp54
a(I13
I18
I19
I21
I39
I85
I21
I16
tp55
a(I16
I17
I19
I23
I40
I85
I22
I15
tp56
a(I17
I20
I20
I21
I38
I82
I24
I15
tp57
a(I19
I19
I21
I25
I32
I61
I22
I17
tp58
a(I21
I22
I19
I24
I45
I88
I26
I19
tp59
a(I21
I21
I20
I26
I43
I80
I25
I19
tp60
a(I20
I22
I22
I25
I43
I84
I26
I18
tp61
a(I19
I20
I21
I26
I43
I85
I25
I18
tp62
a(I18
I22
I20
I22
I42
I93
I25
I16
tp63
a(I17
I20
I20
I25
I38
I94
I21
I14
tp64
a(I16
I19
I20
I23
I38
I95
I21
I15
tp65
a(I16
I19
I19
I23
I41
I94
I20
I16
tp66
a(I16
I19
I19
I23
I43
I96
I20
I16
tp67
a(I17
I18
I20
I25
I46
I95
I19
I17
tp68
a(I16
I18
I20
I23
I38
I75
I17
I16
tp69
a(I16
I19
I18
I22
I38
I73
I16
I16
tp70
a(I14
I20
I16
I22
I37
I68
I16
I16
tp71
a(I16
I20
I16
I23
I34
I62
I16
I16
tp72
a(I15
I20
I15
I22
I31
I63
I18
I15
tp73
a(I16
I20
I17
I22
I30
I57
I21
I16
tp74
a(I16
I19
I17
I24
I31
I62
I23
I15
tp75
a(I16
I17
I16
I23
I31
I61
I22
I14
tp76
a(I15
I17
I18
I21
I34
I62
I22
I15
tp77
a(I17
I17
I18
I20
I33
I59
I20
I15
tp78
a(I18
I16
I19
I20
I38
I69
I19
I16
tp79
a(I19
I16
I20
I19
I37
I72
I17
I16
tp80
a(I19
I16
I21
I21
I37
I73
I17
I16
tp81
a(I18
I16
I20
I22
I36
I84
I21
I16
tp82
a(I18
I18
I23
I23
I35
I78
I21
I18
tp83
a(I15
I18
I21
I21
I35
I92
I23
I15
tp84
a(I14
I18
I22
I21
I35
I91
I24
I16
tp85
a(I14
I19
I22
I19
I34
I91
I24
I17
tp86
a(I14
I17
I21
I17
I36
I88
I23
I17
tp87
a(I14
I15
I17
I22
I36
I90
I23
I17
tp88
a(I16
I14
I18
I22
I31
I71
I20
I17
tp89
a(I17
I15
I14
I21
I28
I68
I18
I17
tp90
a(I17
I16
I17
I22
I28
I67
I18
I16
tp91
a(I17
I17
I18
I22
I27
I60
I17
I14
tp92
a(I17
I19
I19
I15
I31
I80
I15
I15
tp93
a(I14
I20
I20
I19
I34
I76
I15
I16
tp94
a(I15
I20
I22
I19
I35
I75
I15
I16
tp95
a(I16
I19
I20
I21
I37
I86
I16
I15
tp96
a(I16
I19
I20
I21
I36
I85
I17
I16
tp97
a(I16
I19
I20
I23
I37
I75
I18
I17
tp98
a(I16
I20
I19
I22
I32
I70
I18
I16
tp99
a(I16
I19
I19
I21
I34
I71
I17
I16
tp100
a(I14
I18
I21
I21
I34
I70
I18
I18
tp101
a(I14
I20
I21
I21
I38
I81
I18
I17
tp102
a(I13
I17
I23
I21
I36
I77
I19
I16
tp103
a(I13
I17
I24
I19
I37
I78
I19
I16
tp104
a(I12
I18
I23
I19
I39
I90
I20
I16
tp105
a(I11
I17
I21
I19
I38
I92
I20
I14
tp106
a(I14
I16
I21
I23
I36
I84
I19
I14
tp107
a(I14
I18
I19
I23
I37
I88
I19
I15
tp108
a(I14
I17
I19
I24
I37
I90
I18
I14
tp109
a(I16
I17
I19
I25
I35
I78
I16
I16
tp110
a(I16
I18
I21
I25
I37
I75
I15
I15
tp111
a(I14
I17
I20
I21
I35
I71
I15
I16
tp112
a(I17
I17
I21
I22
I37
I77
I14
I14
tp113
a(I17
I17
I22
I23
I39
I85
I14
I15
tp114
a(I16
I17
I23
I21
I37
I91
I15
I14
tp115
a(I18
I18
I20
I22
I34
I87
I16
I14
tp116
a(I18
I19
I21
I22
I35
I91
I17
I13
tp117
a(I16
I18
I23
I21
I28
I84
I17
I15
tp118
a(I16
I17
I23
I19
I31
I80
I17
I14
tp119
a(I17
I17
I22
I20
I31
I71
I17
I14
tp120
a(I15
I17
I22
I19
I31
I67
I17
I16
tp121
a(I15
I17
I21
I19
I34
I83
I15
I19
tp122
a(I14
I19
I19
I20
I33
I78
I16
I18
tp123
a(I15
I21
I19
I19
I31
I80
I15
I18
tp124
a(I15
I20
I19
I20
I31
I79
I13
I17
tp125
a(I15
I20
I19
I20
I36
I91
I15
I18
tp126
a(I15
I21
I18
I21
I32
I74
I16
I17
tp127
a(I15
I20
I17
I21
I32
I69
I16
I17
tp128
a(I16
I20
I15
I23
I32
I69
I17
I18
tp129
a(I18
I20
I15
I22
I31
I78
I19
I17
tp130
a(I19
I19
I15
I22
I26
I70
I18
I16
tp131
a(I19
I18
I17
I19
I27
I72
I17
I14
tp132
a(I19
I18
I17
I19
I27
I77
I17
I15
tp133
a(I20
I17
I18
I17
I30
I71
I17
I16
tp134
a(I17
I17
I19
I18
I29
I64
I15
I17
tp135
a(I16
I17
I20
I19
I31
I59
I16
I15
tp136
a(I16
I20
I18
I21
I32
I66
I17
I15
tp137
a(I16
I19
I20
I21
I32
I65
I17
I15
tp138
a(I14
I19
I23
I21
I31
I62
I18
I13
tp139
a(I14
I19
I23
I22
I36
I69
I20
I14
tp140
a(I15
I19
I22
I24
I35
I82
I20
I15
tp141
a(I17
I15
I23
I24
I34
I80
I22
I14
tp142
a(I18
I16
I20
I24
I34
I81
I22
I15
tp143
a(I17
I17
I18
I27
I35
I81
I22
I14
tp144
a(I17
I17
I19
I26
I31
I78
I23
I16
tp145
a(I16
I18
I20
I23
I31
I76
I23
I16
tp146
a(I17
I17
I23
I22
I31
I70
I20
I17
tp147
a(I17
I18
I26
I21
I33
I71
I20
I17
tp148
a(I18
I19
I24
I18
I28
I70
I20
I17
tp149
a(I17
I18
I23
I18
I33
I76
I17
I17
tp150
a(I17
I17
I23
I19
I30
I65
I18
I17
tp151
a(I17
I18
I20
I20
I33
I73
I18
I17
tp152
a(I16
I17
I19
I21
I32
I71
I18
I16
tp153
a(I14
I16
I19
I21
I38
I98
I20
I16
tp154
a(I15
I17
I20
I22
I34
I92
I21
I17
tp155
a(I16
I18
I20
I22
I34
I91
I19
I16
tp156
a(I14
I19
I21
I22
I39
I99
I19
I17
tp157
a(I15
I18
I20
I23
I39
I100
I20
I18
tp158
aasS'spread'
p159
(lp160
(lp161
(I116
I55
I48
I137
I287
I270
I139
I42
tp162
a(I118
I54
I58
I142
I261
I277
I138
I43
tp163
a(I134
I67
I62
I145
I299
I254
I125
I44
tp164
a(I115
I65
I70
I159
I289
I264
I101
I45
tp165
a(I110
I62
I69
I158
I270
I256
I119
I42
tp166
a(I107
I58
I74
I146
I248
I224
I130
I36
tp167
a(I106
I62
I67
I143
I278
I245
I146
I36
tp168
a(I96
I53
I67
I175
I335
I296
I153
I38
tp169
a(I111
I64
I63
I170
I344
I269
I174
I37
tp170
a(I123
I71
I78
I170
I361
I270
I169
I40
tp171
a(I125
I69
I90
I170
I376
I268
I153
I38
tp172
a(I141
I69
I89
I170
I377
I280
I141
I37
tp173
a(I128
I66
I95
I132
I311
I234
I135
I39
tp174
a(I122
I61
I96
I151
I325
I250
I140
I40
tp175
a(I156
I61
I87
I165
I338
I295
I138
I40
tp176
a(I160
I61
I82
I182
I322
I356
I194
I44
tp177
a(I152
I60
I84
I175
I295
I332
I197
I46
tp178
a(I159
I67
I75
I175
I291
I324
I197
I43
tp179
a(I162
I71
I75
I156
I260
I345
I178
I46
tp180
a(I118
I71
I79
I170
I252
I315
I171
I48
tp181
a(I134
I75
I77
I174
I273
I299
I129
I43
tp182
a(I129
I75
I87
I181
I323
I327
I144
I51
tp183
a(I133
I76
I105
I217
I335
I347
I145
I55
tp184
a(I136
I67
I102
I212
I332
I323
I162
I52
tp185
a(I160
I66
I99
I196
I320
I317
I170
I50
tp186
a(I143
I64
I95
I180
I346
I274
I156
I49
tp187
a(I143
I62
I87
I193
I317
I277
I152
I43
tp188
a(I149
I64
I63
I151
I295
I251
I153
I38
tp189
a(I138
I64
I65
I146
I291
I243
I141
I35
tp190
a(I125
I60
I60
I138
I273
I264
I130
I35
tp191
a(I123
I57
I54
I133
I200
I253
I129
I36
tp192
a(I121
I53
I44
I97
I186
I199
I109
I32
tp193
a(I92
I36
I57
I131
I245
I271
I137
I36
tp194
a(I106
I45
I63
I138
I266
I279
I142
I37
tp195
a(I89
I55
I70
I145
I267
I265
I160
I37
tp196
a(I89
I55
I71
I153
I282
I270
I160
I38
tp197
a(I137
I64
I75
I146
I280
I277
I159
I39
tp198
a(I139
I63
I67
I118
I316
I209
I127
I35
tp199
a(I136
I58
I66
I126
I319
I234
I121
I36
tp200
a(I135
I49
I69
I139
I339
I263
I148
I40
tp201
a(I130
I50
I73
I163
I358
I261
I150
I39
tp202
a(I77
I44
I70
I170
I353
I258
I156
I41
tp203
a(I77
I51
I76
I186
I307
I286
I178
I44
tp204
a(I60
I50
I75
I192
I299
I269
I175
I46
tp205
a(I69
I59
I87
I229
I294
I242
I165
I48
tp206
a(I104
I65
I88
I216
I262
I235
I177
I50
tp207
a(I119
I65
I89
I228
I260
I226
I177
I48
tp208
a(I116
I60
I84
I224
I245
I183
I159
I44
tp209
a(I123
I59
I86
I231
I248
I164
I158
I42
tp210
a(I120
I55
I72
I205
I253
I182
I136
I41
tp211
a(I145
I57
I69
I202
I267
I200
I136
I39
tp212
a(I138
I60
I71
I188
I312
I232
I128
I37
tp213
a(I145
I61
I71
I197
I361
I307
I130
I42
tp214
a(I141
I62
I72
I181
I358
I310
I132
I43
tp215
a(I158
I62
I88
I178
I418
I314
I134
I41
tp216
a(I136
I69
I90
I184
I407
I307
I120
I43
tp217
a(I146
I68
I92
I182
I375
I301
I123
I44
tp218
a(I144
I70
I97
I163
I326
I276
I153
I42
tp219
a(I165
I77
I100
I164
I328
I309
I154
I44
tp220
a(I155
I75
I88
I147
I276
I303
I166
I49
tp221
a(I151
I63
I83
I139
I286
I304
I188
I50
tp222
a(I180
I71
I79
I136
I299
I290
I190
I51
tp223
a(I182
I71
I81
I160
I297
I253
I173
I54
tp224
a(I163
I62
I73
I147
I271
I206
I170
I52
tp225
a(I158
I66
I72
I140
I271
I190
I170
I46
tp226
a(I149
I70
I90
I162
I304
I193
I139
I43
tp227
a(I88
I59
I96
I164
I305
I301
I151
I45
tp228
a(I113
I62
I92
I180
I357
I327
I171
I45
tp229
a(I114
I64
I96
I190
I380
I345
I174
I46
tp230
a(I112
I56
I92
I193
I382
I355
I154
I47
tp231
a(I104
I45
I77
I171
I353
I353
I161
I46
tp232
a(I111
I56
I72
I180
I370
I280
I169
I46
tp233
a(I91
I53
I66
I150
I313
I256
I148
I43
tp234
a(I151
I72
I69
I167
I331
I289
I148
I44
tp235
a(I161
I84
I66
I165
I293
I275
I157
I46
tp236
a(I166
I86
I64
I160
I285
I279
I153
I46
tp237
a(I181
I80
I60
I142
I232
I263
I124
I43
tp238
a(I193
I81
I57
I140
I241
I246
I110
I40
tp239
a(I204
I70
I46
I131
I252
I226
I116
I39
tp240
a(I222
I71
I60
I128
I258
I304
I168
I38
tp241
a(I285
I81
I62
I153
I297
I308
I173
I39
tp242
a(I300
I91
I70
I189
I355
I349
I177
I42
tp243
a(I320
I91
I73
I180
I362
I346
I178
I42
tp244
a(I292
I90
I69
I160
I321
I332
I170
I39
tp245
a(I274
I80
I60
I158
I309
I281
I122
I41
tp246
a(I215
I78
I83
I200
I307
I320
I132
I48
tp247
a(I182
I70
I78
I174
I263
I290
I137
I47
tp248
a(I134
I72
I84
I195
I302
I336
I164
I49
tp249
a(I126
I67
I87
I202
I309
I326
I169
I48
tp250
a(I123
I70
I84
I201
I319
I332
I165
I44
tp251
a(I113
I58
I60
I143
I297
I283
I151
I36
tp252
a(I105
I52
I59
I142
I280
I275
I148
I35
tp253
a(I124
I58
I78
I160
I279
I226
I143
I38
tp254
a(I122
I63
I84
I163
I268
I221
I133
I38
tp255
a(I126
I61
I86
I165
I289
I170
I130
I38
tp256
a(I203
I73
I87
I173
I295
I205
I128
I38
tp257
a(I205
I76
I88
I169
I296
I203
I158
I38
tp258
a(I200
I65
I64
I129
I238
I202
I147
I34
tp259
a(I209
I67
I54
I121
I276
I207
I162
I33
tp260
a(I225
I71
I56
I142
I296
I217
I165
I33
tp261
a(I158
I55
I59
I128
I292
I198
I162
I33
tp262
a(I162
I54
I55
I142
I334
I219
I135
I32
tp263
a(I160
I59
I56
I143
I358
I221
I141
I32
tp264
a(I153
I57
I55
I140
I327
I229
I152
I33
tp265
a(I126
I50
I54
I118
I291
I247
I147
I32
tp266
a(I152
I62
I49
I136
I322
I256
I153
I35
tp267
a(I170
I65
I54
I123
I286
I253
I148
I34
tp268
a(I159
I61
I56
I119
I246
I263
I136
I35
tp269
a(I176
I58
I68
I134
I278
I267
I124
I36
tp270
a(I177
I58
I68
I143
I272
I265
I125
I38
tp271
a(I150
I51
I69
I123
I222
I257
I124
I34
tp272
a(I130
I44
I67
I130
I267
I235
I132
I37
tp273
a(I168
I50
I65
I138
I272
I222
I130
I35
tp274
a(I149
I58
I71
I161
I302
I214
I151
I39
tp275
a(I146
I59
I73
I157
I299
I191
I152
I39
tp276
a(I166
I59
I72
I169
I327
I206
I152
I42
tp277
a(I179
I63
I69
I161
I287
I212
I146
I39
tp278
a(I141
I74
I79
I237
I376
I257
I159
I45
tp279
a(I193
I79
I74
I229
I349
I252
I130
I42
tp280
a(I209
I81
I71
I227
I389
I282
I146
I41
tp281
a(I196
I81
I73
I230
I384
I262
I152
I40
tp282
a(I185
I77
I74
I234
I390
I271
I154
I43
tp283
a(I194
I73
I67
I156
I331
I222
I134
I38
tp284
a(I138
I60
I62
I141
I314
I231
I145
I40
tp285
a(I150
I67
I58
I143
I295
I198
I123
I39
tp286
a(I153
I67
I57
I132
I284
I203
I125
I38
tp287
a(I149
I69
I58
I127
I315
I193
I127
I35
tp288
a(I151
I64
I53
I121
I288
I210
I130
I34
tp289
a(I159
I73
I51
I115
I308
I232
I119
I30
tp290
a(I128
I66
I57
I131
I298
I254
I123
I32
tp291
a(I120
I69
I64
I140
I284
I245
I107
I33
tp292
a(I117
I71
I64
I144
I234
I241
I122
I32
tp293
a(I178
I80
I87
I171
I250
I260
I137
I36
tp294
a(I179
I73
I91
I182
I213
I224
I133
I38
tp295
a(I177
I74
I89
I199
I250
I206
I143
I38
tp296
a(I193
I79
I89
I203
I264
I200
I150
I37
tp297
a(I212
I86
I92
I201
I270
I220
I137
I38
tp298
a(I146
I69
I70
I177
I256
I200
I141
I34
tp299
a(I130
I67
I68
I177
I274
I210
I139
I31
tp300
a(I131
I67
I81
I151
I280
I201
I125
I30
tp301
a(I158
I72
I77
I143
I278
I235
I115
I28
tp302
a(I137
I66
I72
I139
I284
I221
I113
I33
tp303
a(I141
I66
I72
I137
I297
I236
I84
I32
tp304
a(I143
I65
I74
I141
I314
I271
I99
I36
tp305
a(I167
I69
I60
I127
I264
I274
I114
I38
tp306
a(I127
I56
I60
I131
I282
I279
I120
I39
tp307
a(I120
I50
I63
I146
I279
I277
I129
I37
tp308
a(I165
I58
I65
I145
I270
I267
I129
I39
tp309
a(I225
I64
I54
I126
I237
I230
I113
I37
tp310
a(I212
I56
I54
I135
I243
I223
I103
I34
tp311
a(I229
I61
I54
I123
I222
I191
I107
I37
tp312
a(I235
I62
I51
I111
I282
I218
I96
I35
tp313
a(I210
I58
I51
I113
I286
I212
I101
I38
tp314
aasS'fist'
p315
(lp316
(lp317
(I132
I47
I57
I117
I96
I362
I313
I82
tp318
a(I126
I46
I59
I121
I102
I391
I314
I72
tp319
a(I136
I47
I62
I146
I112
I389
I309
I69
tp320
a(I110
I49
I65
I143
I124
I374
I329
I61
tp321
a(I121
I49
I64
I153
I135
I408
I342
I62
tp322
a(I113
I50
I63
I175
I140
I407
I296
I68
tp323
a(I140
I53
I62
I181
I138
I375
I353
I71
tp324
a(I156
I52
I70
I167
I134
I398
I361
I78
tp325
a(I163
I52
I79
I168
I141
I464
I333
I76
tp326
a(I153
I48
I84
I170
I126
I426
I322
I71
tp327
a(I154
I44
I89
I139
I116
I380
I298
I66
tp328
a(I135
I46
I93
I130
I109
I364
I192
I57
tp329
a(I108
I46
I87
I116
I115
I404
I177
I51
tp330
a(I98
I41
I76
I113
I90
I303
I170
I52
tp331
a(I99
I39
I74
I94
I91
I294
I207
I53
tp332
a(I92
I41
I63
I97
I89
I288
I202
I55
tp333
a(I101
I40
I56
I125
I104
I306
I201
I59
tp334
a(I98
I42
I55
I132
I101
I271
I183
I54
tp335
a(I99
I42
I59
I140
I101
I270
I215
I68
tp336
a(I96
I50
I61
I140
I98
I277
I185
I72
tp337
a(I101
I54
I62
I140
I96
I294
I198
I77
tp338
a(I86
I52
I63
I113
I94
I365
I207
I76
tp339
a(I90
I49
I65
I102
I85
I336
I216
I82
tp340
a(I97
I47
I61
I96
I82
I340
I201
I74
tp341
a(I95
I42
I56
I93
I88
I343
I209
I69
tp342
a(I88
I38
I56
I136
I114
I363
I233
I66
tp343
a(I96
I37
I57
I138
I110
I340
I226
I66
tp344
a(I102
I42
I56
I139
I121
I383
I221
I66
tp345
a(I115
I47
I60
I133
I124
I380
I207
I59
tp346
a(I122
I48
I60
I137
I127
I392
I193
I64
tp347
a(I126
I48
I60
I110
I120
I368
I181
I61
tp348
a(I118
I47
I55
I134
I116
I309
I206
I65
tp349
a(I124
I54
I48
I133
I108
I295
I205
I65
tp350
a(I127
I50
I45
I135
I110
I316
I202
I69
tp351
a(I124
I48
I43
I134
I108
I318
I236
I70
tp352
a(I125
I49
I39
I124
I89
I312
I224
I68
tp353
a(I131
I55
I43
I118
I100
I360
I207
I64
tp354
a(I113
I46
I49
I123
I96
I323
I215
I57
tp355
a(I101
I48
I53
I124
I106
I334
I249
I63
tp356
a(I102
I48
I56
I120
I103
I321
I227
I58
tp357
a(I103
I49
I56
I124
I103
I334
I217
I62
tp358
a(I97
I44
I57
I96
I93
I311
I216
I71
tp359
a(I98
I44
I54
I111
I105
I341
I206
I69
tp360
a(I111
I44
I48
I117
I93
I343
I213
I58
tp361
a(I115
I49
I50
I116
I97
I351
I204
I60
tp362
a(I114
I45
I49
I112
I132
I399
I216
I65
tp363
a(I118
I43
I48
I135
I131
I374
I210
I58
tp364
a(I132
I48
I50
I129
I134
I391
I223
I65
tp365
a(I110
I47
I56
I121
I137
I375
I188
I69
tp366
a(I101
I43
I55
I134
I140
I370
I210
I75
tp367
a(I94
I47
I56
I161
I137
I363
I195
I70
tp368
a(I108
I45
I53
I152
I134
I367
I197
I74
tp369
a(I114
I50
I57
I141
I129
I359
I222
I70
tp370
a(I126
I49
I53
I145
I127
I367
I229
I78
tp371
a(I138
I49
I54
I136
I117
I352
I208
I69
tp372
a(I141
I49
I55
I108
I86
I296
I219
I68
tp373
a(I129
I52
I56
I125
I87
I300
I250
I74
tp374
a(I136
I47
I57
I164
I83
I289
I231
I77
tp375
a(I128
I47
I63
I171
I82
I340
I231
I71
tp376
a(I129
I51
I63
I179
I91
I347
I243
I72
tp377
a(I143
I48
I62
I188
I118
I399
I237
I84
tp378
a(I147
I47
I63
I171
I127
I414
I244
I80
tp379
a(I126
I43
I61
I143
I129
I418
I250
I78
tp380
a(I124
I46
I58
I137
I126
I376
I256
I73
tp381
a(I114
I41
I55
I140
I125
I390
I249
I74
tp382
a(I107
I45
I70
I137
I108
I353
I308
I62
tp383
a(I102
I45
I69
I147
I108
I345
I278
I57
tp384
a(I120
I48
I65
I139
I105
I304
I281
I56
tp385
a(I119
I45
I63
I134
I106
I297
I279
I57
tp386
a(I116
I45
I64
I131
I105
I287
I276
I58
tp387
a(I103
I41
I46
I130
I100
I288
I234
I55
tp388
a(I96
I38
I43
I120
I91
I282
I227
I50
tp389
a(I131
I50
I55
I135
I103
I332
I215
I54
tp390
a(I132
I52
I57
I143
I112
I331
I211
I56
tp391
a(I133
I54
I57
I131
I110
I323
I204
I52
tp392
a(I142
I63
I65
I119
I113
I332
I213
I61
tp393
a(I145
I68
I68
I131
I120
I357
I252
I73
tp394
a(I94
I57
I61
I114
I104
I309
I255
I66
tp395
a(I110
I55
I61
I104
I97
I308
I267
I68
tp396
a(I112
I56
I62
I124
I123
I440
I280
I78
tp397
a(I99
I45
I56
I123
I116
I412
I263
I70
tp398
a(I104
I41
I55
I110
I106
I383
I306
I66
tp399
a(I106
I49
I55
I113
I105
I384
I314
I71
tp400
a(I115
I59
I63
I123
I111
I414
I312
I73
tp401
a(I115
I60
I61
I103
I91
I294
I300
I65
tp402
a(I115
I64
I62
I107
I88
I321
I297
I71
tp403
a(I113
I61
I63
I104
I91
I336
I222
I65
tp404
a(I135
I57
I64
I106
I93
I342
I248
I70
tp405
a(I111
I47
I54
I110
I90
I324
I233
I66
tp406
a(I110
I44
I50
I114
I83
I303
I241
I70
tp407
a(I122
I40
I49
I122
I93
I351
I239
I72
tp408
a(I136
I44
I47
I152
I115
I349
I231
I73
tp409
a(I111
I42
I49
I164
I118
I362
I195
I67
tp410
a(I112
I58
I60
I162
I128
I402
I228
I68
tp411
a(I108
I55
I62
I161
I132
I397
I239
I66
tp412
a(I133
I57
I60
I158
I131
I377
I235
I72
tp413
a(I122
I55
I61
I132
I110
I368
I239
I72
tp414
a(I121
I58
I63
I130
I115
I364
I245
I72
tp415
a(I140
I44
I54
I127
I97
I297
I208
I70
tp416
a(I153
I51
I56
I123
I114
I422
I186
I80
tp417
a(I120
I51
I55
I124
I121
I427
I197
I70
tp418
a(I112
I49
I58
I124
I130
I457
I236
I69
tp419
a(I115
I46
I57
I117
I128
I462
I223
I64
tp420
a(I103
I45
I60
I120
I128
I458
I218
I66
tp421
a(I94
I36
I58
I133
I110
I380
I224
I56
tp422
a(I105
I49
I64
I133
I119
I338
I216
I50
tp423
a(I106
I53
I68
I131
I116
I327
I240
I51
tp424
a(I104
I56
I64
I127
I114
I302
I230
I53
tp425
a(I96
I55
I64
I128
I117
I333
I247
I48
tp426
a(I111
I59
I63
I120
I130
I344
I251
I49
tp427
a(I100
I47
I59
I121
I112
I345
I251
I48
tp428
a(I108
I42
I49
I132
I107
I327
I220
I50
tp429
a(I114
I39
I49
I191
I116
I384
I230
I64
tp430
a(I128
I43
I44
I187
I114
I371
I222
I64
tp431
a(I108
I38
I40
I197
I97
I334
I244
I64
tp432
a(I107
I40
I40
I191
I97
I333
I289
I71
tp433
a(I109
I40
I43
I217
I106
I331
I264
I70
tp434
a(I104
I43
I39
I183
I101
I380
I253
I65
tp435
a(I85
I43
I38
I188
I106
I374
I252
I65
tp436
a(I85
I45
I39
I178
I113
I419
I216
I68
tp437
a(I86
I45
I41
I182
I119
I433
I146
I60
tp438
a(I69
I47
I42
I142
I111
I438
I152
I64
tp439
a(I78
I44
I45
I130
I105
I347
I153
I59
tp440
a(I75
I43
I51
I120
I99
I337
I148
I60
tp441
a(I73
I39
I51
I118
I94
I313
I173
I55
tp442
a(I78
I39
I48
I107
I83
I320
I172
I64
tp443
a(I83
I41
I48
I109
I85
I312
I204
I63
tp444
a(I87
I43
I48
I99
I86
I331
I204
I65
tp445
a(I91
I45
I48
I102
I91
I367
I233
I67
tp446
a(I93
I45
I47
I107
I103
I346
I228
I66
tp447
a(I90
I41
I46
I113
I111
I370
I230
I59
tp448
a(I90
I38
I48
I113
I110
I390
I198
I60
tp449
a(I96
I41
I47
I117
I121
I408
I224
I58
tp450
a(I99
I39
I45
I120
I124
I385
I229
I61
tp451
a(I103
I39
I47
I117
I111
I369
I223
I59
tp452
a(I104
I44
I50
I123
I114
I318
I231
I61
tp453
a(I101
I46
I48
I120
I118
I388
I249
I72
tp454
a(I83
I42
I52
I115
I102
I351
I215
I70
tp455
a(I88
I43
I59
I107
I93
I358
I187
I70
tp456
a(I80
I46
I59
I110
I97
I360
I192
I71
tp457
a(I92
I46
I60
I101
I92
I397
I183
I69
tp458
a(I96
I47
I59
I103
I95
I375
I188
I61
tp459
a(I103
I51
I63
I101
I95
I357
I220
I63
tp460
a(I98
I48
I55
I106
I99
I345
I231
I58
tp461
a(I126
I49
I59
I95
I101
I365
I230
I61
tp462
a(I121
I50
I64
I125
I92
I393
I231
I61
tp463
a(I120
I51
I66
I141
I86
I320
I209
I53
tp464
a(I112
I48
I60
I148
I94
I336
I187
I52
tp465
a(I110
I50
I63
I147
I93
I330
I182
I53
tp466
a(I74
I45
I60
I154
I87
I337
I182
I52
tp467
a(I91
I43
I51
I133
I93
I280
I176
I51
tp468
a(I116
I41
I53
I112
I108
I394
I189
I56
tp469
a(I123
I38
I52
I105
I103
I391
I182
I57
tp470
a(I122
I36
I48
I107
I103
I395
I180
I57
tp471
a(I122
I38
I55
I109
I100
I379
I170
I55
tp472
a(I105
I34
I54
I111
I96
I358
I179
I58
tp473
aas.