(dp0
S'slap-right'
p1
(lp2
(lp3
(I42
I50
I109
I335
I516
I329
I183
I106
tp4
a(I43
I51
I110
I338
I575
I360
I183
I131
tp5
a(I47
I52
I112
I353
I627
I369
I192
I139
tp6
a(I46
I51
I109
I342
I625
I323
I207
I143
tp7
a(I46
I51
I101
I339
I655
I380
I202
I135
tp8
a(I48
I53
I92
I351
I797
I406
I203
I124
tp9
a(I49
I56
I103
I426
I827
I427
I194
I96
tp10
a(I51
I65
I117
I531
I984
I449
I225
I89
tp11
a(I55
I74
I133
I541
I1019
I512
I218
I88
tp12
a(I59
I80
I146
I516
I1056
I488
I213
I94
tp13
a(I62
I83
I162
I593
I1085
I498
I221
I99
tp14
a(I77
I82
I159
I546
I1029
I500
I237
I123
tp15
a(I75
I75
I148
I448
I885
I465
I205
I126
tp16
a(I78
I73
I150
I544
I985
I437
I208
I131
tp17
a(I78
I75
I151
I592
I1055
I462
I212
I136
tp18
a(I82
I81
I163
I602
I1022
I520
I249
I145
tp19
a(I68
I81
I164
I604
I1043
I497
I234
I131
tp20
a(I72
I80
I162
I594
I1057
I565
I251
I155
tp21
a(I70
I80
I157
I529
I959
I536
I317
I168
tp22
a(I66
I77
I153
I507
I862
I518
I315
I161
tp23
a(I57
I63
I127
I388
I801
I446
I291
I154
tp24
a(I61
I59
I119
I372
I788
I451
I298
I147
tp25
a(I100
I61
I120
I418
I872
I403
I283
I119
tp26
a(I111
I63
I115
I433
I1015
I438
I240
I117
tp27
a(I117
I65
I116
I441
I1018
I468
I243
I128
tp28
a(I120
I73
I134
I533
I1029
I535
I237
I135
tp29
a(I129
I85
I163
I615
I1129
I590
I261
I148
tp30
a(I100
I85
I168
I629
I1170
I558
I263
I146
tp31
a(I88
I82
I166
I642
I1110
I532
I224
I126
tp32
a(I79
I78
I164
I626
I1087
I492
I214
I110
tp33
a(I76
I73
I145
I540
I1052
I425
I214
I96
tp34
a(I57
I58
I109
I435
I924
I356
I173
I87
tp35
a(I54
I55
I102
I382
I797
I401
I166
I89
tp36
a(I53
I58
I115
I373
I759
I416
I203
I97
tp37
a(I52
I56
I110
I383
I771
I435
I226
I104
tp38
a(I54
I59
I113
I401
I853
I495
I224
I113
tp39
a(I62
I72
I143
I479
I874
I548
I256
I125
tp40
a(I74
I85
I169
I522
I840
I552
I255
I142
tp41
a(I77
I84
I164
I515
I844
I586
I233
I154
tp42
a(I78
I82
I165
I490
I806
I591
I218
I154
tp43
a(I75
I78
I162
I478
I812
I522
I209
I147
tp44
a(I68
I66
I137
I452
I871
I470
I170
I125
tp45
a(I56
I49
I100
I395
I897
I453
I170
I105
tp46
a(I50
I44
I97
I342
I833
I397
I173
I82
tp47
a(I46
I44
I92
I351
I863
I375
I176
I69
tp48
a(I47
I47
I93
I355
I767
I381
I175
I77
tp49
a(I51
I55
I103
I343
I744
I401
I187
I128
tp50
a(I57
I59
I108
I353
I699
I411
I204
I135
tp51
a(I57
I59
I105
I354
I720
I396
I196
I139
tp52
a(I59
I57
I103
I342
I690
I387
I189
I145
tp53
a(I61
I63
I118
I396
I791
I431
I187
I142
tp54
a(I61
I61
I112
I385
I766
I399
I178
I108
tp55
a(I62
I62
I125
I390
I770
I364
I154
I105
tp56
a(I65
I61
I120
I404
I774
I381
I174
I99
tp57
a(I70
I68
I125
I451
I859
I435
I163
I109
tp58
a(I67
I61
I110
I398
I731
I403
I174
I110
tp59
a(I70
I61
I123
I399
I767
I435
I199
I123
tp60
a(I68
I75
I157
I499
I763
I475
I207
I125
tp61
a(I67
I83
I168
I533
I819
I475
I220
I132
tp62
a(I60
I78
I163
I497
I794
I475
I251
I120
tp63
a(I63
I80
I163
I501
I816
I503
I243
I129
tp64
a(I61
I87
I180
I546
I789
I466
I275
I126
tp65
a(I56
I78
I158
I467
I813
I418
I266
I118
tp66
a(I58
I70
I147
I428
I772
I427
I251
I120
tp67
a(I61
I71
I146
I411
I683
I395
I240
I127
tp68
a(I64
I73
I152
I417
I705
I358
I248
I127
tp69
a(I58
I59
I121
I339
I674
I336
I185
I112
tp70
a(I57
I51
I100
I297
I695
I360
I183
I124
tp71
a(I57
I57
I118
I327
I790
I398
I175
I116
tp72
a(I53
I57
I121
I375
I916
I370
I157
I112
tp73
a(I53
I53
I108
I354
I888
I356
I140
I115
tp74
a(I54
I51
I104
I338
I868
I387
I149
I118
tp75
a(I52
I51
I106
I337
I815
I396
I178
I108
tp76
a(I48
I49
I97
I352
I723
I344
I177
I104
tp77
a(I48
I49
I99
I334
I629
I413
I178
I100
tp78
a(I40
I51
I106
I342
I666
I405
I184
I79
tp79
a(I35
I54
I109
I334
I709
I413
I172
I86
tp80
a(I36
I52
I99
I327
I722
I377
I151
I90
tp81
a(I40
I59
I116
I314
I686
I369
I147
I88
tp82
a(I43
I70
I135
I364
I683
I347
I162
I89
tp83
a(I47
I69
I140
I376
I744
I389
I162
I97
tp84
a(I49
I68
I137
I376
I716
I386
I165
I86
tp85
a(I51
I69
I140
I388
I708
I380
I152
I89
tp86
a(I47
I59
I121
I371
I739
I386
I144
I91
tp87
a(I46
I46
I101
I336
I794
I328
I145
I89
tp88
a(I60
I52
I99
I360
I753
I293
I149
I110
tp89
a(I59
I51
I98
I375
I795
I248
I146
I110
tp90
a(I57
I50
I103
I373
I758
I272
I156
I105
tp91
a(I59
I48
I97
I351
I717
I284
I164
I103
tp92
a(I57
I45
I85
I333
I721
I335
I147
I103
tp93
a(I38
I41
I80
I299
I654
I345
I139
I76
tp94
a(I40
I45
I85
I289
I629
I363
I150
I79
tp95
a(I40
I46
I77
I272
I701
I347
I142
I74
tp96
a(I35
I47
I84
I263
I709
I382
I146
I74
tp97
a(I37
I46
I85
I232
I567
I359
I148
I75
tp98
a(I38
I46
I95
I254
I580
I356
I153
I74
tp99
a(I42
I45
I96
I250
I544
I345
I149
I87
tp100
a(I50
I43
I93
I268
I510
I393
I153
I104
tp101
a(I49
I40
I87
I277
I574
I343
I147
I109
tp102
a(I50
I41
I93
I301
I620
I406
I190
I120
tp103
a(I55
I45
I81
I273
I644
I402
I191
I125
tp104
a(I52
I47
I78
I266
I627
I408
I188
I116
tp105
a(I47
I55
I96
I321
I737
I416
I212
I100
tp106
a(I48
I60
I101
I320
I694
I425
I208
I92
tp107
a(I47
I64
I107
I331
I770
I355
I197
I95
tp108
a(I49
I71
I124
I348
I752
I349
I209
I104
tp109
a(I47
I70
I123
I360
I790
I356
I213
I101
tp110
a(I51
I71
I130
I298
I687
I290
I205
I109
tp111
a(I52
I71
I135
I332
I736
I292
I206
I109
tp112
a(I50
I67
I129
I302
I644
I279
I175
I91
tp113
a(I44
I56
I111
I282
I675
I331
I178
I82
tp114
a(I43
I53
I106
I273
I653
I323
I177
I90
tp115
a(I38
I46
I86
I270
I652
I350
I162
I77
tp116
a(I42
I47
I92
I255
I598
I399
I176
I86
tp117
a(I46
I48
I92
I282
I599
I425
I182
I93
tp118
a(I53
I53
I105
I315
I648
I431
I184
I115
tp119
a(I59
I69
I134
I382
I703
I467
I210
I129
tp120
a(I59
I67
I136
I402
I707
I448
I207
I133
tp121
a(I55
I65
I128
I375
I711
I384
I193
I128
tp122
a(I54
I65
I130
I402
I754
I407
I213
I124
tp123
a(I47
I59
I117
I403
I766
I358
I197
I97
tp124
a(I37
I44
I89
I384
I755
I321
I174
I70
tp125
a(I41
I45
I84
I390
I761
I313
I176
I73
tp126
a(I45
I43
I75
I410
I799
I350
I185
I80
tp127
a(I49
I41
I73
I358
I752
I292
I148
I96
tp128
a(I49
I45
I94
I359
I743
I349
I142
I95
tp129
a(I51
I41
I87
I312
I737
I348
I153
I100
tp130
a(I49
I44
I109
I288
I733
I372
I152
I96
tp131
a(I44
I44
I113
I267
I650
I344
I151
I93
tp132
a(I47
I48
I118
I291
I716
I446
I165
I77
tp133
a(I45
I44
I100
I262
I643
I399
I160
I93
tp134
a(I48
I46
I106
I268
I657
I395
I180
I90
tp135
a(I47
I40
I84
I262
I677
I393
I187
I93
tp136
a(I53
I41
I82
I299
I742
I407
I187
I106
tp137
a(I48
I35
I72
I278
I689
I348
I236
I124
tp138
a(I53
I47
I99
I290
I744
I363
I250
I112
tp139
a(I53
I54
I100
I281
I693
I379
I239
I116
tp140
a(I59
I63
I126
I291
I677
I383
I234
I117
tp141
a(I54
I63
I126
I270
I715
I433
I247
I101
tp142
a(I52
I64
I127
I280
I702
I389
I192
I85
tp143
a(I54
I56
I110
I264
I665
I374
I170
I86
tp144
a(I57
I52
I119
I276
I661
I365
I137
I104
tp145
a(I53
I47
I102
I265
I630
I407
I147
I107
tp146
a(I61
I50
I110
I297
I523
I345
I127
I108
tp147
a(I61
I56
I122
I300
I553
I362
I138
I113
tp148
a(I56
I58
I127
I301
I506
I386
I148
I118
tp149
a(I55
I56
I115
I282
I531
I374
I154
I95
tp150
a(I54
I53
I106
I292
I518
I403
I153
I100
tp151
a(I46
I50
I97
I262
I562
I398
I143
I100
tp152
a(I48
I41
I75
I276
I574
I377
I151
I90
tp153
a(I47
I41
I76
I276
I604
I381
I150
I80
tp154
a(I48
I49
I94
I320
I604
I400
I149
I81
tp155
a(I45
I47
I91
I301
I630
I304
I149
I63
tp156
a(I48
I49
I95
I287
I554
I364
I169
I61
tp157
a(I46
I56
I111
I299
I489
I394
I151
I58
tp158
a(I44
I53
I106
I300
I490
I368
I148
I54
tp159
a(I37
I45
I93
I259
I542
I342
I152
I51
tp160
a(I46
I49
I98
I271
I501
I432
I156
I63
tp161
a(I56
I50
I94
I270
I606
I401
I138
I68
tp162
a(I62
I46
I85
I246
I652
I406
I147
I100
tp163
a(I69
I54
I88
I272
I654
I410
I163
I105
tp164
a(I73
I62
I108
I338
I593
I426
I169
I111
tp165
a(I68
I58
I102
I336
I642
I326
I147
I106
tp166
a(I58
I58
I113
I343
I579
I353
I180
I107
tp167
a(I49
I58
I113
I349
I560
I315
I173
I76
tp168
a(I42
I54
I116
I323
I538
I315
I161
I72
tp169
a(I38
I52
I109
I305
I612
I314
I158
I72
tp170
a(I37
I52
I109
I302
I608
I330
I158
I68
tp171
a(I37
I54
I107
I307
I602
I321
I134
I68
tp172
a(I40
I52
I101
I300
I554
I395
I191
I71
tp173
a(I39
I50
I101
I311
I564
I399
I198
I73
tp174
a(I34
I44
I89
I298
I588
I380
I196
I68
tp175
a(I40
I47
I98
I313
I550
I373
I202
I79
tp176
a(I40
I41
I88
I296
I574
I394
I219
I73
tp177
a(I38
I42
I90
I301
I677
I321
I185
I77
tp178
a(I38
I43
I80
I291
I679
I326
I177
I80
tp179
a(I46
I42
I80
I268
I598
I332
I169
I103
tp180
a(I44
I42
I72
I246
I608
I350
I167
I97
tp181
a(I46
I51
I91
I246
I585
I295
I144
I99
tp182
a(I45
I48
I88
I213
I482
I287
I133
I95
tp183
a(I44
I48
I88
I231
I545
I250
I132
I92
tp184
a(I40
I49
I89
I224
I522
I297
I157
I64
tp185
a(I36
I51
I94
I214
I495
I286
I161
I63
tp186
a(I44
I56
I103
I268
I487
I274
I158
I87
tp187
a(I47
I56
I104
I273
I508
I277
I156
I89
tp188
a(I53
I69
I129
I358
I597
I316
I178
I95
tp189
a(I55
I69
I135
I359
I598
I293
I166
I95
tp190
a(I56
I73
I146
I424
I707
I345
I193
I99
tp191
a(I50
I66
I134
I392
I690
I338
I184
I81
tp192
a(I48
I67
I138
I405
I690
I354
I183
I76
tp193
a(I44
I59
I139
I397
I617
I356
I174
I69
tp194
a(I42
I58
I137
I401
I630
I400
I172
I68
tp195
a(I40
I50
I121
I344
I530
I345
I139
I69
tp196
a(I38
I46
I115
I359
I666
I342
I133
I72
tp197
a(I45
I43
I106
I362
I717
I327
I167
I93
tp198
a(I44
I37
I77
I295
I745
I380
I158
I93
tp199
a(I44
I38
I78
I287
I820
I314
I156
I102
tp200
a(I43
I39
I79
I278
I818
I318
I159
I98
tp201
a(I42
I39
I76
I255
I743
I325
I159
I94
tp202
a(I36
I41
I84
I255
I696
I356
I120
I76
tp203
a(I35
I40
I85
I227
I610
I330
I159
I78
tp204
a(I37
I38
I72
I242
I534
I348
I157
I68
tp205
a(I44
I46
I113
I282
I580
I349
I159
I80
tp206
a(I49
I51
I122
I292
I562
I362
I163
I79
tp207
a(I49
I49
I122
I263
I569
I326
I162
I82
tp208
a(I55
I65
I150
I290
I553
I364
I149
I87
tp209
a(I53
I68
I161
I325
I540
I339
I138
I84
tp210
a(I47
I66
I146
I303
I492
I341
I131
I69
tp211
a(I43
I65
I144
I306
I495
I342
I136
I70
tp212
a(I45
I69
I146
I330
I484
I370
I145
I67
tp213
a(I42
I55
I114
I310
I505
I337
I145
I87
tp214
a(I45
I55
I106
I259
I555
I357
I156
I94
tp215
a(I45
I52
I96
I246
I551
I363
I163
I96
tp216
a(I47
I54
I95
I226
I584
I413
I181
I106
tp217
a(I51
I48
I95
I207
I619
I445
I201
I117
tp218
a(I60
I57
I127
I292
I684
I423
I217
I125
tp219
a(I62
I56
I133
I300
I622
I419
I239
I123
tp220
a(I63
I53
I129
I302
I670
I414
I234
I123
tp221
a(I65
I59
I143
I351
I664
I378
I232
I120
tp222
a(I64
I63
I144
I365
I692
I419
I241
I113
tp223
a(I54
I57
I127
I311
I618
I407
I217
I89
tp224
a(I52
I58
I119
I397
I715
I392
I204
I94
tp225
a(I53
I62
I128
I412
I696
I387
I210
I103
tp226
a(I51
I54
I110
I381
I679
I376
I199
I98
tp227
a(I48
I49
I107
I368
I626
I259
I162
I101
tp228
a(I45
I46
I104
I405
I689
I286
I163
I92
tp229
a(I44
I49
I113
I359
I643
I312
I166
I87
tp230
a(I48
I51
I119
I406
I684
I366
I173
I98
tp231
a(I56
I58
I120
I402
I675
I376
I170
I107
tp232
a(I56
I61
I121
I398
I663
I404
I171
I99
tp233
a(I62
I66
I115
I351
I602
I414
I172
I102
tp234
a(I61
I62
I104
I312
I578
I402
I147
I99
tp235
a(I61
I62
I110
I307
I580
I375
I143
I89
tp236
a(I52
I60
I115
I318
I646
I426
I147
I88
tp237
a(I56
I63
I125
I328
I672
I410
I149
I94
tp238
a(I51
I58
I126
I345
I763
I366
I142
I93
tp239
a(I55
I62
I131
I342
I740
I362
I151
I102
tp240
a(I53
I56
I113
I278
I716
I453
I144
I98
tp241
a(I51
I52
I105
I276
I692
I386
I140
I88
tp242
a(I44
I47
I91
I274
I641
I381
I140
I87
tp243
a(I42
I47
I98
I306
I546
I407
I164
I85
tp244
a(I40
I47
I100
I305
I570
I431
I171
I84
tp245
a(I39
I51
I106
I308
I558
I323
I172
I79
tp246
a(I39
I51
I104
I292
I515
I321
I166
I75
tp247
a(I41
I55
I125
I287
I558
I363
I190
I88
tp248
a(I50
I61
I123
I240
I525
I342
I170
I98
tp249
a(I45
I56
I116
I235
I515
I310
I157
I95
tp250
a(I44
I55
I112
I208
I467
I291
I147
I100
tp251
a(I45
I57
I115
I209
I474
I300
I156
I101
tp252
a(I42
I50
I84
I201
I496
I242
I128
I90
tp253
a(I32
I43
I72
I174
I520
I226
I122
I76
tp254
a(I37
I41
I69
I172
I509
I232
I124
I66
tp255
a(I47
I37
I58
I182
I510
I252
I164
I62
tp256
a(I52
I34
I58
I196
I482
I241
I159
I90
tp257
a(I53
I34
I57
I180
I428
I255
I159
I98
tp258
aa(lp259
(I38
I43
I75
I241
I569
I345
I161
I81
tp260
a(I41
I49
I89
I262
I528
I328
I138
I86
tp261
a(I41
I48
I94
I256
I598
I282
I132
I87
tp262
a(I39
I48
I90
I254
I536
I265
I120
I72
tp263
a(I42
I48
I95
I255
I563
I277
I121
I68
tp264
a(I40
I46
I88
I227
I558
I235
I105
I58
tp265
a(I38
I41
I76
I227
I581
I203
I112
I66
tp266
a(I39
I44
I85
I241
I524
I235
I110
I73
tp267
a(I40
I44
I92
I231
I526
I218
I94
I73
tp268
a(I41
I46
I88
I240
I484
I229
I127
I77
tp269
a(I40
I45
I90
I239
I468
I268
I144
I79
tp270
a(I46
I47
I88
I214
I433
I275
I144
I68
tp271
a(I45
I45
I74
I183
I387
I264
I142
I60
tp272
a(I43
I43
I65
I188
I398
I264
I143
I53
tp273
a(I41
I39
I61
I182
I428
I246
I125
I72
tp274
a(I51
I51
I80
I232
I492
I278
I125
I75
tp275
a(I46
I48
I78
I241
I541
I282
I120
I72
tp276
a(I46
I47
I78
I235
I537
I275
I118
I71
tp277
a(I48
I51
I92
I248
I574
I305
I118
I70
tp278
a(I48
I55
I98
I276
I621
I335
I121
I56
tp279
a(I38
I47
I89
I245
I572
I278
I119
I56
tp280
a(I38
I52
I97
I256
I548
I284
I133
I58
tp281
a(I43
I59
I122
I273
I585
I287
I165
I67
tp282
a(I42
I58
I119
I285
I621
I279
I167
I76
tp283
a(I44
I58
I118
I277
I627
I265
I158
I69
tp284
a(I45
I58
I120
I274
I595
I256
I148
I77
tp285
a(I46
I52
I113
I257
I599
I303
I134
I78
tp286
a(I43
I47
I96
I253
I587
I303
I111
I72
tp287
a(I41
I46
I90
I231
I573
I288
I126
I63
tp288
a(I39
I41
I83
I202
I504
I260
I134
I63
tp289
a(I37
I38
I71
I183
I553
I286
I143
I60
tp290
a(I38
I38
I72
I186
I539
I242
I146
I77
tp291
a(I41
I33
I54
I179
I560
I240
I131
I77
tp292
a(I41
I31
I52
I221
I586
I282
I125
I81
tp293
a(I42
I35
I57
I241
I585
I296
I127
I81
tp294
a(I45
I37
I63
I262
I617
I324
I141
I74
tp295
a(I44
I42
I65
I272
I637
I320
I143
I55
tp296
a(I39
I47
I78
I281
I677
I321
I169
I61
tp297
a(I42
I46
I82
I291
I760
I319
I169
I60
tp298
a(I40
I44
I81
I284
I778
I329
I184
I60
tp299
a(I37
I45
I83
I279
I772
I299
I170
I70
tp300
a(I38
I44
I90
I295
I771
I308
I174
I83
tp301
a(I39
I42
I82
I283
I717
I334
I160
I87
tp302
a(I43
I48
I87
I246
I537
I315
I169
I87
tp303
a(I44
I48
I88
I258
I549
I304
I149
I88
tp304
a(I44
I47
I84
I243
I475
I321
I148
I81
tp305
a(I41
I44
I75
I251
I507
I308
I138
I65
tp306
a(I40
I42
I73
I265
I558
I291
I138
I66
tp307
a(I35
I35
I60
I282
I658
I295
I140
I67
tp308
a(I36
I38
I67
I278
I621
I293
I141
I64
tp309
a(I35
I36
I65
I286
I665
I270
I146
I64
tp310
a(I37
I39
I71
I246
I651
I258
I145
I62
tp311
a(I36
I42
I77
I262
I641
I246
I144
I48
tp312
a(I40
I44
I79
I269
I599
I264
I125
I44
tp313
a(I39
I42
I76
I263
I625
I274
I124
I47
tp314
a(I43
I45
I81
I302
I635
I292
I156
I59
tp315
a(I41
I42
I76
I302
I595
I298
I160
I62
tp316
a(I43
I39
I69
I264
I511
I296
I150
I62
tp317
a(I40
I38
I69
I255
I511
I310
I146
I59
tp318
a(I40
I41
I63
I243
I498
I306
I143
I57
tp319
a(I36
I39
I61
I235
I474
I293
I112
I46
tp320
a(I39
I42
I65
I249
I579
I285
I119
I60
tp321
a(I34
I42
I66
I252
I588
I300
I120
I60
tp322
a(I33
I40
I62
I248
I637
I241
I125
I60
tp323
a(I32
I37
I62
I254
I657
I223
I115
I58
tp324
a(I33
I36
I56
I209
I624
I180
I96
I55
tp325
a(I31
I33
I48
I214
I583
I232
I85
I36
tp326
a(I37
I43
I58
I291
I614
I249
I122
I43
tp327
a(I37
I43
I61
I265
I524
I261
I131
I49
tp328
a(I37
I44
I67
I272
I495
I319
I149
I53
tp329
a(I41
I46
I71
I283
I512
I331
I154
I55
tp330
a(I39
I47
I72
I300
I559
I330
I155
I54
tp331
a(I35
I40
I66
I239
I526
I311
I141
I51
tp332
a(I34
I38
I66
I245
I523
I330
I153
I58
tp333
a(I37
I39
I68
I264
I583
I300
I148
I61
tp334
a(I36
I38
I67
I257
I573
I309
I143
I58
tp335
a(I40
I35
I66
I231
I506
I285
I138
I64
tp336
a(I38
I34
I65
I248
I553
I296
I131
I60
tp337
a(I38
I34
I63
I245
I538
I269
I113
I51
tp338
a(I37
I31
I63
I214
I552
I238
I102
I61
tp339
a(I32
I38
I64
I231
I640
I267
I110
I63
tp340
a(I35
I44
I74
I233
I686
I290
I125
I66
tp341
a(I42
I45
I76
I203
I662
I270
I119
I66
tp342
a(I41
I45
I76
I203
I674
I280
I110
I66
tp343
a(I43
I45
I72
I215
I699
I305
I110
I52
tp344
a(I41
I38
I67
I188
I614
I290
I99
I65
tp345
a(I40
I35
I62
I165
I559
I321
I102
I59
tp346
a(I37
I38
I70
I176
I575
I330
I106
I59
tp347
a(I41
I39
I73
I182
I626
I336
I103
I59
tp348
a(I39
I42
I77
I192
I546
I327
I117
I57
tp349
a(I41
I43
I79
I192
I544
I314
I120
I55
tp350
a(I37
I40
I78
I190
I522
I292
I114
I54
tp351
a(I39
I35
I69
I191
I564
I352
I126
I53
tp352
a(I40
I36
I80
I198
I518
I342
I142
I55
tp353
a(I39
I37
I76
I183
I558
I345
I143
I56
tp354
a(I41
I42
I88
I189
I578
I354
I152
I46
tp355
a(I42
I46
I94
I215
I609
I354
I159
I63
tp356
a(I38
I45
I95
I210
I633
I289
I150
I63
tp357
a(I39
I46
I85
I196
I695
I296
I145
I63
tp358
a(I37
I45
I84
I178
I660
I292
I131
I63
tp359
a(I36
I45
I76
I210
I656
I301
I130
I67
tp360
a(I35
I39
I61
I187
I628
I259
I125
I60
tp361
a(I40
I41
I58
I186
I556
I271
I131
I62
tp362
a(I37
I38
I62
I204
I463
I253
I127
I72
tp363
a(I37
I36
I59
I208
I438
I272
I131
I70
tp364
a(I36
I32
I59
I176
I428
I252
I123
I64
tp365
a(I39
I38
I72
I216
I546
I286
I124
I59
tp366
a(I36
I37
I75
I230
I603
I299
I131
I58
tp367
a(I38
I39
I72
I218
I616
I317
I149
I61
tp368
a(I40
I39
I73
I226
I661
I326
I155
I63
tp369
a(I44
I46
I93
I278
I680
I355
I175
I67
tp370
a(I44
I48
I89
I262
I603
I347
I176
I67
tp371
a(I42
I50
I95
I280
I570
I335
I164
I66
tp372
a(I45
I61
I133
I308
I692
I367
I160
I60
tp373
a(I49
I70
I151
I322
I648
I352
I162
I67
tp374
a(I46
I67
I140
I287
I650
I337
I199
I71
tp375
a(I42
I65
I141
I298
I693
I319
I198
I75
tp376
a(I41
I64
I140
I281
I767
I343
I211
I77
tp377
a(I34
I50
I102
I274
I693
I306
I199
I69
tp378
a(I24
I38
I73
I264
I699
I306
I195
I62
tp379
a(I27
I35
I79
I260
I735
I290
I198
I53
tp380
a(I30
I34
I73
I230
I680
I289
I193
I49
tp381
a(I31
I31
I65
I218
I555
I252
I179
I53
tp382
a(I30
I33
I66
I181
I487
I267
I183
I53
tp383
a(I32
I37
I73
I192
I577
I260
I185
I58
tp384
a(I31
I35
I67
I185
I521
I256
I113
I64
tp385
a(I30
I37
I69
I206
I563
I266
I126
I60
tp386
a(I32
I38
I73
I235
I622
I267
I133
I67
tp387
a(I39
I36
I72
I271
I633
I244
I129
I68
tp388
a(I38
I33
I69
I262
I546
I221
I119
I64
tp389
a(I43
I39
I74
I272
I547
I291
I123
I60
tp390
a(I45
I38
I75
I268
I498
I300
I106
I62
tp391
a(I48
I42
I90
I306
I579
I319
I110
I53
tp392
a(I47
I50
I101
I308
I558
I310
I121
I60
tp393
a(I46
I50
I103
I307
I574
I372
I155
I59
tp394
a(I42
I46
I97
I306
I557
I319
I153
I60
tp395
a(I44
I44
I95
I311
I608
I305
I155
I66
tp396
a(I41
I44
I90
I262
I490
I277
I149
I68
tp397
a(I39
I37
I83
I229
I496
I301
I143
I67
tp398
a(I40
I39
I85
I222
I482
I281
I113
I73
tp399
a(I37
I38
I84
I224
I571
I280
I119
I81
tp400
a(I32
I38
I87
I216
I499
I287
I120
I79
tp401
a(I36
I40
I90
I221
I479
I287
I123
I74
tp402
a(I41
I42
I90
I226
I495
I276
I119
I68
tp403
a(I41
I41
I90
I232
I505
I226
I116
I64
tp404
a(I42
I42
I90
I217
I408
I235
I132
I54
tp405
a(I46
I42
I87
I205
I422
I222
I128
I48
tp406
a(I44
I41
I83
I227
I433
I243
I136
I58
tp407
a(I36
I37
I79
I214
I410
I218
I135
I59
tp408
a(I40
I43
I83
I239
I467
I211
I134
I61
tp409
a(I43
I44
I87
I251
I463
I239
I125
I59
tp410
a(I39
I46
I89
I257
I501
I264
I157
I59
tp411
a(I38
I40
I77
I219
I530
I272
I148
I54
tp412
a(I39
I40
I77
I215
I527
I277
I146
I53
tp413
a(I39
I41
I77
I177
I460
I268
I153
I51
tp414
a(I39
I44
I74
I161
I461
I247
I144
I53
tp415
a(I38
I42
I73
I160
I424
I288
I116
I57
tp416
a(I39
I46
I77
I154
I390
I272
I107
I60
tp417
a(I43
I49
I77
I212
I475
I310
I116
I61
tp418
a(I45
I45
I73
I214
I474
I325
I100
I59
tp419
a(I42
I43
I73
I240
I527
I324
I110
I61
tp420
a(I42
I43
I70
I241
I600
I321
I102
I58
tp421
a(I44
I42
I80
I263
I641
I331
I118
I68
tp422
a(I41
I39
I83
I235
I593
I302
I110
I68
tp423
a(I34
I38
I82
I236
I582
I290
I121
I70
tp424
a(I37
I38
I76
I209
I513
I297
I129
I66
tp425
a(I37
I38
I77
I215
I454
I287
I134
I65
tp426
a(I35
I35
I69
I201
I404
I263
I122
I53
tp427
a(I38
I39
I65
I193
I427
I265
I137
I53
tp428
a(I37
I36
I53
I212
I523
I272
I139
I61
tp429
a(I34
I38
I60
I250
I605
I252
I118
I62
tp430
a(I41
I40
I68
I270
I590
I338
I151
I66
tp431
a(I50
I42
I66
I265
I564
I347
I153
I61
tp432
a(I48
I41
I68
I282
I620
I365
I156
I66
tp433
a(I48
I41
I75
I274
I549
I365
I146
I65
tp434
a(I49
I38
I73
I251
I492
I383
I148
I67
tp435
a(I44
I37
I67
I239
I558
I302
I113
I67
tp436
a(I32
I34
I64
I225
I585
I319
I148
I69
tp437
a(I29
I32
I62
I211
I545
I304
I135
I62
tp438
a(I31
I35
I60
I239
I646
I326
I141
I52
tp439
a(I33
I42
I74
I255
I643
I302
I136
I48
tp440
a(I33
I42
I74
I238
I589
I281
I138
I50
tp441
a(I32
I42
I78
I244
I602
I317
I127
I47
tp442
a(I37
I42
I80
I265
I672
I312
I137
I51
tp443
a(I40
I45
I93
I253
I594
I290
I138
I56
tp444
a(I38
I38
I83
I231
I603
I289
I140
I55
tp445
a(I39
I39
I81
I223
I591
I292
I136
I56
tp446
a(I41
I45
I91
I219
I572
I251
I126
I66
tp447
a(I39
I46
I91
I176
I471
I274
I122
I64
tp448
a(I33
I40
I77
I141
I445
I275
I118
I60
tp449
a(I34
I42
I83
I140
I486
I280
I132
I62
tp450
a(I32
I41
I83
I152
I512
I288
I137
I56
tp451
a(I33
I33
I71
I158
I520
I258
I125
I52
tp452
a(I37
I33
I69
I162
I555
I228
I130
I56
tp453
a(I37
I33
I67
I181
I629
I242
I144
I54
tp454
a(I37
I32
I63
I178
I576
I245
I137
I52
tp455
a(I40
I32
I62
I169
I545
I233
I134
I53
tp456
a(I38
I35
I62
I167
I524
I237
I141
I50
tp457
a(I33
I34
I66
I199
I474
I235
I134
I49
tp458
a(I35
I39
I80
I188
I411
I269
I123
I54
tp459
a(I54
I54
I106
I313
I477
I323
I165
I73
tp460
a(I58
I57
I113
I323
I494
I313
I167
I75
tp461
a(I59
I58
I115
I374
I549
I377
I166
I73
tp462
a(I62
I59
I112
I362
I526
I386
I170
I74
tp463
a(I63
I59
I109
I365
I571
I387
I172
I72
tp464
a(I54
I51
I87
I303
I561
I335
I133
I58
tp465
a(I50
I49
I78
I303
I582
I345
I133
I57
tp466
a(I49
I45
I71
I246
I557
I291
I124
I53
tp467
a(I46
I42
I68
I237
I589
I281
I114
I48
tp468
a(I42
I41
I65
I237
I537
I244
I119
I56
tp469
a(I34
I36
I59
I198
I572
I308
I126
I51
tp470
a(I30
I35
I62
I201
I611
I305
I132
I53
tp471
a(I34
I44
I84
I248
I613
I317
I151
I60
tp472
a(I36
I48
I89
I252
I597
I314
I157
I62
tp473
a(I35
I51
I92
I280
I651
I323
I151
I59
tp474
a(I37
I52
I93
I279
I631
I301
I144
I58
tp475
a(I40
I54
I93
I272
I590
I318
I150
I64
tp476
a(I37
I47
I79
I240
I580
I302
I136
I63
tp477
a(I37
I45
I80
I249
I566
I308
I127
I65
tp478
a(I37
I40
I73
I252
I600
I302
I134
I74
tp479
a(I37
I42
I81
I250
I595
I277
I139
I75
tp480
a(I36
I42
I86
I253
I610
I259
I126
I68
tp481
a(I38
I45
I88
I261
I655
I273
I138
I71
tp482
a(I42
I48
I89
I250
I666
I285
I141
I70
tp483
a(I44
I52
I95
I326
I712
I300
I143
I64
tp484
a(I48
I54
I91
I375
I765
I300
I146
I66
tp485
a(I56
I57
I91
I381
I772
I310
I165
I66
tp486
a(I58
I55
I88
I372
I737
I316
I168
I64
tp487
a(I59
I54
I86
I375
I742
I316
I170
I67
tp488
a(I61
I52
I80
I293
I659
I333
I157
I58
tp489
a(I55
I46
I78
I249
I588
I345
I157
I55
tp490
a(I54
I49
I87
I312
I708
I354
I148
I60
tp491
a(I50
I53
I90
I349
I767
I361
I135
I56
tp492
a(I44
I51
I92
I353
I770
I349
I132
I51
tp493
a(I43
I49
I90
I355
I799
I328
I140
I61
tp494
a(I44
I47
I87
I342
I784
I305
I125
I59
tp495
a(I37
I40
I72
I276
I645
I267
I108
I55
tp496
a(I35
I34
I66
I246
I608
I237
I101
I56
tp497
a(I38
I35
I71
I252
I622
I247
I111
I57
tp498
a(I34
I34
I73
I234
I546
I225
I105
I48
tp499
a(I40
I35
I74
I246
I565
I253
I108
I49
tp500
a(I38
I32
I70
I261
I646
I266
I106
I51
tp501
a(I44
I36
I74
I230
I587
I256
I116
I56
tp502
a(I45
I41
I70
I224
I579
I276
I109
I56
tp503
a(I45
I41
I68
I236
I595
I284
I108
I53
tp504
a(I45
I48
I78
I258
I594
I289
I126
I58
tp505
a(I47
I49
I82
I246
I534
I280
I140
I55
tp506
a(I40
I44
I75
I261
I568
I284
I139
I48
tp507
a(I43
I40
I71
I254
I548
I289
I132
I45
tp508
a(I43
I45
I74
I246
I550
I282
I134
I48
tp509
a(I37
I38
I63
I234
I610
I309
I121
I45
tp510
a(I37
I37
I59
I228
I610
I314
I106
I50
tp511
aa(lp512
(I41
I51
I84
I301
I668
I328
I160
I61
tp513
a(I37
I50
I85
I303
I678
I335
I162
I61
tp514
a(I33
I48
I85
I288
I663
I325
I145
I56
tp515
a(I28
I32
I74
I209
I529
I219
I127
I43
tp516
a(I32
I33
I72
I245
I642
I258
I133
I47
tp517
a(I37
I36
I78
I251
I651
I268
I148
I51
tp518
a(I40
I38
I79
I246
I622
I255
I147
I54
tp519
a(I44
I40
I86
I221
I590
I243
I146
I55
tp520
a(I44
I43
I85
I252
I693
I307
I140
I53
tp521
a(I43
I44
I93
I230
I600
I334
I134
I53
tp522
a(I36
I41
I89
I218
I627
I359
I132
I49
tp523
a(I35
I40
I90
I215
I623
I348
I125
I46
tp524
a(I30
I37
I84
I236
I636
I347
I126
I46
tp525
a(I29
I36
I85
I212
I549
I295
I125
I44
tp526
a(I29
I32
I76
I202
I567
I245
I125
I37
tp527
a(I33
I32
I69
I195
I589
I257
I120
I37
tp528
a(I32
I33
I65
I189
I557
I257
I120
I36
tp529
a(I33
I34
I59
I162
I509
I274
I112
I35
tp530
a(I33
I39
I67
I169
I496
I275
I103
I36
tp531
a(I30
I39
I68
I167
I498
I269
I97
I38
tp532
a(I29
I42
I74
I168
I425
I237
I86
I39
tp533
a(I28
I41
I72
I164
I487
I240
I99
I39
tp534
a(I30
I38
I67
I165
I480
I227
I102
I36
tp535
a(I32
I33
I58
I180
I495
I239
I94
I37
tp536
a(I31
I34
I59
I169
I441
I245
I110
I37
tp537
a(I35
I39
I79
I186
I477
I303
I125
I45
tp538
a(I40
I42
I91
I199
I435
I301
I123
I50
tp539
a(I39
I44
I95
I209
I488
I315
I135
I53
tp540
a(I41
I44
I92
I195
I515
I324
I150
I56
tp541
a(I42
I44
I92
I224
I529
I344
I142
I58
tp542
a(I39
I38
I75
I218
I507
I290
I135
I49
tp543
a(I35
I33
I60
I222
I568
I285
I122
I45
tp544
a(I35
I33
I56
I218
I539
I311
I112
I43
tp545
a(I37
I42
I64
I224
I514
I313
I111
I41
tp546
a(I35
I41
I66
I210
I522
I291
I113
I38
tp547
a(I34
I39
I60
I203
I550
I284
I105
I38
tp548
a(I36
I41
I72
I183
I492
I294
I117
I42
tp549
a(I36
I43
I77
I184
I513
I301
I143
I48
tp550
a(I32
I36
I73
I179
I483
I308
I134
I49
tp551
a(I36
I40
I84
I197
I517
I326
I141
I52
tp552
a(I35
I42
I83
I190
I470
I315
I142
I53
tp553
a(I35
I45
I82
I215
I516
I317
I134
I53
tp554
a(I39
I50
I89
I249
I511
I261
I105
I51
tp555
a(I38
I49
I87
I239
I513
I257
I138
I46
tp556
a(I38
I46
I74
I235
I494
I237
I137
I43
tp557
a(I42
I47
I78
I238
I499
I275
I149
I41
tp558
a(I45
I44
I73
I232
I448
I261
I147
I38
tp559
a(I40
I37
I56
I191
I447
I261
I145
I34
tp560
a(I39
I39
I60
I185
I461
I244
I119
I36
tp561
a(I37
I38
I60
I154
I417
I225
I111
I35
tp562
a(I32
I36
I62
I147
I501
I196
I137
I37
tp563
a(I25
I34
I60
I126
I547
I192
I140
I34
tp564
a(I33
I36
I66
I137
I538
I229
I152
I36
tp565
a(I38
I44
I83
I176
I558
I213
I150
I39
tp566
a(I41
I47
I86
I189
I559
I217
I149
I40
tp567
a(I45
I52
I87
I193
I556
I194
I112
I43
tp568
a(I48
I57
I99
I206
I515
I199
I118
I48
tp569
a(I42
I56
I97
I193
I514
I178
I129
I46
tp570
a(I40
I48
I81
I165
I486
I218
I133
I45
tp571
a(I39
I51
I88
I160
I491
I216
I137
I45
tp572
a(I37
I46
I81
I155
I429
I225
I141
I42
tp573
a(I34
I39
I77
I136
I483
I232
I136
I34
tp574
a(I35
I39
I77
I166
I483
I241
I107
I37
tp575
a(I33
I40
I77
I161
I489
I253
I106
I36
tp576
a(I33
I35
I67
I186
I525
I251
I99
I34
tp577
a(I29
I38
I73
I190
I520
I287
I91
I36
tp578
a(I46
I55
I96
I354
I640
I323
I99
I50
tp579
a(I53
I63
I114
I370
I628
I328
I122
I63
tp580
a(I57
I66
I119
I395
I683
I328
I113
I63
tp581
a(I56
I65
I120
I404
I707
I334
I120
I65
tp582
a(I57
I64
I122
I407
I742
I311
I129
I64
tp583
a(I48
I51
I98
I293
I637
I315
I124
I58
tp584
a(I42
I43
I84
I312
I699
I319
I107
I42
tp585
a(I39
I42
I79
I302
I682
I304
I111
I46
tp586
a(I40
I42
I76
I284
I640
I391
I198
I44
tp587
a(I38
I41
I72
I291
I598
I383
I199
I43
tp588
a(I35
I42
I68
I277
I543
I361
I196
I39
tp589
a(I33
I39
I66
I243
I543
I339
I200
I41
tp590
a(I31
I35
I62
I223
I503
I361
I215
I38
tp591
a(I29
I37
I67
I223
I515
I285
I161
I35
tp592
a(I32
I39
I64
I213
I504
I295
I161
I40
tp593
a(I32
I36
I69
I222
I518
I275
I174
I43
tp594
a(I32
I38
I62
I197
I464
I293
I171
I47
tp595
a(I35
I41
I75
I204
I475
I256
I162
I54
tp596
a(I37
I38
I72
I208
I468
I289
I150
I57
tp597
a(I41
I37
I78
I212
I460
I308
I168
I59
tp598
a(I47
I47
I86
I258
I542
I359
I187
I68
tp599
a(I48
I47
I86
I260
I531
I348
I191
I67
tp600
a(I49
I53
I91
I268
I568
I350
I192
I71
tp601
a(I49
I61
I109
I308
I585
I365
I199
I76
tp602
a(I52
I68
I125
I386
I716
I385
I204
I80
tp603
a(I49
I61
I120
I361
I656
I369
I194
I76
tp604
a(I48
I59
I122
I377
I657
I369
I191
I74
tp605
a(I47
I55
I114
I374
I632
I354
I182
I66
tp606
a(I45
I51
I101
I336
I592
I295
I190
I62
tp607
a(I41
I46
I79
I240
I570
I327
I179
I57
tp608
a(I36
I45
I74
I239
I637
I330
I173
I51
tp609
a(I37
I45
I68
I216
I667
I321
I174
I50
tp610
a(I36
I47
I79
I259
I680
I334
I173
I51
tp611
a(I35
I42
I72
I259
I682
I348
I144
I48
tp612
a(I40
I44
I79
I286
I595
I286
I129
I54
tp613
a(I41
I45
I87
I289
I521
I290
I138
I54
tp614
a(I50
I47
I89
I290
I495
I310
I137
I60
tp615
a(I52
I46
I82
I276
I517
I343
I148
I64
tp616
a(I55
I47
I86
I273
I560
I339
I147
I66
tp617
a(I49
I42
I78
I239
I566
I330
I148
I60
tp618
a(I48
I39
I68
I215
I565
I336
I126
I57
tp619
a(I44
I38
I68
I231
I653
I347
I126
I54
tp620
a(I38
I33
I59
I181
I618
I303
I122
I44
tp621
a(I35
I34
I58
I174
I615
I288
I114
I41
tp622
a(I32
I33
I56
I164
I581
I316
I106
I36
tp623
a(I33
I35
I64
I180
I576
I275
I105
I36
tp624
a(I24
I33
I62
I145
I431
I264
I104
I34
tp625
a(I29
I33
I63
I149
I401
I261
I84
I31
tp626
a(I30
I32
I67
I190
I566
I311
I99
I30
tp627
a(I34
I37
I79
I224
I643
I275
I97
I36
tp628
a(I34
I36
I77
I214
I655
I266
I97
I35
tp629
a(I39
I39
I81
I214
I675
I268
I100
I36
tp630
a(I37
I41
I92
I232
I708
I266
I107
I40
tp631
a(I40
I42
I93
I208
I586
I250
I108
I45
tp632
a(I40
I37
I84
I184
I536
I251
I122
I43
tp633
a(I44
I39
I84
I188
I528
I257
I120
I44
tp634
a(I39
I35
I78
I189
I519
I234
I119
I43
tp635
a(I38
I33
I70
I158
I505
I241
I130
I40
tp636
a(I38
I31
I65
I150
I496
I218
I122
I40
tp637
a(I34
I33
I66
I172
I570
I254
I112
I38
tp638
a(I35
I32
I65
I160
I556
I298
I123
I40
tp639
a(I38
I33
I72
I164
I534
I296
I130
I38
tp640
a(I39
I38
I67
I198
I532
I294
I115
I39
tp641
a(I37
I37
I71
I230
I575
I291
I123
I36
tp642
a(I39
I41
I70
I218
I509
I256
I123
I40
tp643
a(I36
I40
I67
I229
I566
I221
I117
I37
tp644
a(I32
I40
I60
I228
I594
I229
I101
I36
tp645
a(I32
I36
I62
I220
I574
I241
I110
I37
tp646
a(I32
I36
I64
I205
I530
I230
I117
I37
tp647
a(I33
I33
I65
I202
I507
I238
I126
I35
tp648
a(I32
I36
I66
I200
I439
I217
I121
I38
tp649
a(I34
I37
I67
I209
I473
I270
I129
I38
tp650
a(I36
I42
I74
I248
I503
I291
I123
I38
tp651
a(I41
I46
I73
I238
I485
I338
I131
I49
tp652
a(I43
I47
I76
I251
I484
I337
I129
I51
tp653
a(I44
I44
I81
I251
I536
I346
I134
I50
tp654
a(I41
I43
I82
I247
I499
I308
I137
I52
tp655
a(I42
I42
I77
I208
I506
I276
I140
I55
tp656
a(I43
I44
I80
I231
I552
I249
I125
I54
tp657
a(I44
I51
I96
I258
I552
I282
I159
I63
tp658
a(I44
I51
I95
I281
I655
I272
I161
I64
tp659
a(I45
I54
I97
I290
I645
I272
I156
I65
tp660
a(I44
I52
I104
I306
I630
I290
I166
I65
tp661
a(I41
I51
I110
I293
I600
I295
I169
I62
tp662
a(I38
I51
I110
I292
I613
I297
I142
I50
tp663
a(I38
I52
I109
I267
I436
I289
I144
I58
tp664
a(I40
I52
I105
I265
I519
I283
I149
I63
tp665
a(I37
I49
I95
I243
I537
I303
I138
I61
tp666
a(I38
I48
I84
I260
I611
I309
I132
I58
tp667
a(I36
I38
I60
I244
I634
I277
I115
I57
tp668
a(I40
I41
I63
I268
I670
I275
I106
I46
tp669
a(I39
I40
I67
I252
I627
I295
I120
I39
tp670
a(I46
I46
I76
I253
I615
I363
I135
I50
tp671
a(I41
I40
I67
I245
I566
I328
I133
I48
tp672
a(I45
I45
I85
I286
I537
I339
I143
I57
tp673
a(I47
I44
I88
I278
I508
I351
I145
I58
tp674
a(I47
I44
I87
I283
I482
I371
I145
I60
tp675
a(I44
I38
I83
I282
I465
I319
I143
I52
tp676
a(I45
I45
I102
I292
I445
I334
I151
I59
tp677
a(I41
I42
I93
I235
I478
I349
I143
I53
tp678
a(I38
I41
I88
I219
I485
I376
I159
I52
tp679
a(I36
I39
I87
I217
I515
I337
I142
I49
tp680
a(I35
I44
I94
I244
I552
I336
I145
I54
tp681
a(I34
I39
I75
I219
I550
I346
I137
I48
tp682
a(I32
I38
I69
I209
I515
I323
I139
I47
tp683
a(I30
I36
I67
I222
I521
I287
I118
I49
tp684
a(I35
I39
I67
I268
I564
I315
I143
I49
tp685
a(I34
I34
I53
I273
I618
I271
I126
I42
tp686
a(I40
I37
I59
I263
I586
I258
I123
I41
tp687
a(I46
I39
I68
I274
I647
I243
I124
I40
tp688
a(I45
I40
I73
I281
I711
I250
I124
I37
tp689
a(I45
I43
I83
I257
I706
I291
I126
I48
tp690
a(I47
I44
I90
I223
I611
I290
I145
I50
tp691
a(I50
I41
I87
I226
I643
I282
I148
I49
tp692
a(I47
I39
I82
I220
I607
I294
I148
I49
tp693
a(I54
I49
I101
I239
I545
I289
I156
I59
tp694
a(I53
I48
I101
I223
I470
I225
I131
I49
tp695
a(I55
I51
I97
I223
I500
I246
I125
I50
tp696
a(I49
I54
I105
I241
I519
I322
I125
I53
tp697
a(I48
I53
I104
I228
I471
I323
I138
I53
tp698
a(I47
I49
I89
I184
I440
I318
I136
I47
tp699
a(I49
I50
I79
I171
I456
I350
I147
I50
tp700
a(I43
I48
I87
I174
I460
I349
I140
I47
tp701
a(I41
I45
I80
I151
I422
I282
I144
I46
tp702
a(I42
I51
I93
I209
I474
I275
I130
I47
tp703
a(I36
I49
I89
I255
I547
I293
I127
I48
tp704
a(I40
I52
I99
I274
I602
I292
I133
I51
tp705
a(I45
I53
I97
I293
I587
I297
I127
I57
tp706
a(I45
I54
I95
I313
I592
I296
I124
I58
tp707
a(I53
I53
I99
I306
I566
I302
I134
I62
tp708
a(I55
I54
I106
I306
I493
I295
I135
I64
tp709
a(I53
I49
I97
I299
I427
I270
I125
I58
tp710
a(I52
I46
I97
I278
I438
I275
I129
I53
tp711
a(I56
I48
I96
I263
I455
I296
I141
I59
tp712
a(I48
I47
I85
I250
I453
I296
I165
I57
tp713
a(I43
I43
I71
I206
I517
I280
I164
I51
tp714
a(I43
I44
I70
I223
I588
I333
I160
I52
tp715
a(I41
I43
I64
I219
I588
I324
I163
I53
tp716
a(I38
I40
I64
I212
I580
I305
I144
I42
tp717
a(I40
I39
I66
I214
I573
I316
I147
I41
tp718
a(I47
I44
I75
I237
I627
I353
I157
I56
tp719
a(I44
I43
I75
I233
I601
I301
I154
I55
tp720
a(I46
I43
I74
I267
I652
I317
I158
I56
tp721
a(I45
I42
I73
I280
I664
I323
I169
I60
tp722
a(I43
I40
I66
I275
I688
I325
I136
I57
tp723
a(I37
I35
I57
I249
I603
I291
I154
I49
tp724
a(I36
I35
I59
I226
I569
I285
I152
I48
tp725
a(I35
I35
I59
I180
I481
I253
I152
I49
tp726
a(I38
I37
I57
I151
I451
I241
I140
I46
tp727
a(I36
I37
I54
I161
I454
I215
I145
I48
tp728
a(I36
I36
I51
I195
I549
I255
I111
I41
tp729
a(I47
I61
I98
I271
I591
I343
I136
I62
tp730
a(I49
I61
I101
I273
I611
I348
I128
I62
tp731
a(I44
I60
I100
I276
I595
I349
I138
I61
tp732
a(I48
I59
I101
I280
I622
I360
I144
I62
tp733
a(I50
I60
I104
I271
I570
I354
I151
I66
tp734
a(I45
I41
I66
I202
I503
I333
I137
I53
tp735
a(I45
I43
I70
I263
I560
I324
I173
I54
tp736
a(I46
I45
I68
I261
I614
I320
I175
I54
tp737
a(I44
I45
I64
I246
I578
I306
I171
I53
tp738
a(I40
I43
I66
I255
I573
I291
I176
I51
tp739
a(I37
I41
I65
I264
I617
I219
I214
I50
tp740
a(I34
I36
I52
I213
I568
I218
I188
I45
tp741
a(I37
I39
I60
I210
I527
I328
I181
I51
tp742
a(I44
I40
I64
I204
I493
I338
I179
I52
tp743
a(I44
I41
I61
I194
I440
I346
I170
I48
tp744
a(I42
I38
I67
I191
I417
I340
I125
I44
tp745
a(I42
I38
I68
I180
I412
I355
I115
I43
tp746
a(I38
I32
I65
I189
I438
I275
I119
I36
tp747
a(I29
I35
I73
I212
I485
I287
I110
I33
tp748
a(I32
I37
I78
I199
I506
I300
I113
I38
tp749
a(I35
I43
I89
I282
I609
I338
I108
I40
tp750
a(I35
I43
I94
I288
I630
I322
I126
I43
tp751
a(I37
I45
I93
I279
I601
I326
I126
I45
tp752
a(I41
I47
I105
I305
I609
I353
I149
I52
tp753
a(I39
I46
I107
I324
I632
I348
I141
I51
tp754
a(I40
I50
I103
I289
I579
I419
I142
I56
tp755
a(I41
I51
I103
I312
I575
I464
I159
I56
tp756
a(I43
I54
I108
I324
I575
I481
I159
I57
tp757
a(I42
I57
I104
I326
I586
I476
I151
I56
tp758
a(I44
I59
I102
I319
I548
I484
I162
I59
tp759
a(I40
I53
I94
I294
I555
I405
I172
I56
tp760
a(I48
I64
I119
I352
I626
I427
I160
I70
tp761
a(I47
I63
I118
I367
I658
I407
I156
I71
tp762
a(I51
I63
I115
I367
I685
I433
I172
I76
tp763
a(I52
I62
I120
I364
I744
I430
I170
I77
tp764
aasS'relaxed'
p765
(lp766
(lp767
(I19
I20
I27
I26
I27
I88
I23
I18
tp768
a(I19
I23
I32
I28
I27
I89
I23
I18
tp769
a(I22
I25
I34
I29
I28
I75
I23
I21
tp770
a(I22
I26
I35
I28
I29
I70
I21
I20
tp771
a(I22
I26
I34
I29
I30
I87
I24
I21
tp772
a(I22
I29
I34
I30
I32
I87
I26
I24
tp773
a(I26
I30
I29
I29
I33
I86
I28
I24
tp774
a(I25
I30
I30
I28
I31
I84
I27
I22
tp775
a(I24
I29
I30
I28
I30
I76
I28
I23
tp776
a(I24
I30
I34
I25
I41
I94
I27
I24
tp777
a(I23
I28
I40
I25
I41
I95
I27
I21
tp778
a(I19
I23
I45
I27
I40
I96
I24
I20
tp779
a(I18
I23
I46
I28
I39
I95
I25
I20
tp780
a(I20
I25
I46
I31
I39
I98
I24
I21
tp781
a(I20
I24
I42
I31
I33
I91
I23
I20
tp782
a(I21
I23
I36
I28
I37
I94
I21
I19
tp783
a(I21
I24
I30
I27
I37
I96
I21
I19
tp784
a(I21
I24
I29
I29
I38
I97
I21
I18
tp785
a(I20
I23
I30
I26
I36
I93
I21
I17
tp786
a(I20
I24
I30
I26
I27
I59
I21
I18
tp787
a(I20
I25
I35
I28
I22
I49
I22
I17
tp788
a(I21
I24
I35
I29
I36
I90
I25
I15
tp789
a(I22
I27
I35
I25
I38
I93
I25
I16
tp790
a(I22
I27
I34
I29
I38
I95
I24
I17
tp791
a(I21
I27
I35
I28
I42
I100
I24
I16
tp792
a(I20
I25
I29
I27
I42
I100
I24
I16
tp793
a(I19
I26
I30
I27
I31
I64
I23
I17
tp794
a(I21
I22
I28
I26
I29
I58
I23
I18
tp795
a(I18
I19
I24
I23
I28
I54
I24
I16
tp796
a(I19
I22
I26
I26
I34
I63
I24
I19
tp797
a(I22
I23
I31
I29
I36
I60
I25
I20
tp798
a(I22
I23
I30
I29
I36
I58
I21
I20
tp799
a(I20
I23
I30
I30
I39
I74
I22
I22
tp800
a(I21
I25
I32
I30
I40
I76
I22
I22
tp801
a(I21
I23
I29
I25
I32
I60
I21
I20
tp802
a(I19
I24
I24
I23
I28
I63
I19
I19
tp803
a(I20
I22
I24
I25
I27
I62
I20
I18
tp804
a(I20
I24
I25
I24
I25
I41
I18
I15
tp805
a(I20
I23
I24
I24
I24
I35
I17
I15
tp806
a(I20
I24
I25
I25
I24
I32
I17
I15
tp807
a(I18
I23
I25
I24
I24
I25
I16
I16
tp808
a(I18
I24
I26
I25
I32
I81
I20
I17
tp809
a(I15
I22
I25
I27
I34
I90
I24
I17
tp810
a(I16
I21
I24
I26
I37
I94
I24
I16
tp811
a(I18
I21
I24
I27
I37
I96
I25
I17
tp812
a(I18
I22
I25
I29
I38
I96
I26
I17
tp813
a(I18
I21
I25
I26
I30
I60
I22
I18
tp814
a(I20
I25
I26
I28
I27
I44
I17
I19
tp815
a(I19
I26
I29
I28
I23
I36
I17
I19
tp816
a(I19
I29
I28
I27
I25
I38
I16
I18
tp817
a(I19
I29
I29
I27
I33
I68
I19
I19
tp818
a(I18
I30
I32
I27
I36
I68
I20
I18
tp819
a(I17
I30
I29
I23
I34
I71
I21
I17
tp820
a(I17
I29
I26
I25
I34
I72
I22
I17
tp821
a(I16
I28
I27
I24
I32
I71
I22
I18
tp822
a(I15
I28
I26
I22
I26
I41
I19
I16
tp823
a(I16
I29
I23
I22
I23
I38
I19
I15
tp824
a(I16
I26
I24
I22
I23
I32
I17
I17
tp825
a(I17
I25
I25
I24
I27
I55
I18
I16
tp826
a(I19
I25
I27
I26
I31
I57
I18
I18
tp827
a(I20
I24
I27
I26
I29
I56
I17
I18
tp828
a(I21
I21
I26
I25
I28
I56
I17
I19
tp829
a(I22
I22
I27
I25
I28
I56
I19
I19
tp830
a(I22
I23
I26
I25
I25
I33
I17
I20
tp831
a(I19
I22
I27
I25
I18
I25
I18
I19
tp832
a(I20
I24
I27
I24
I29
I50
I20
I19
tp833
a(I19
I24
I27
I26
I31
I53
I20
I18
tp834
a(I19
I23
I26
I26
I32
I60
I20
I18
tp835
a(I19
I23
I26
I23
I32
I61
I20
I17
tp836
a(I19
I25
I26
I23
I33
I61
I22
I15
tp837
a(I16
I24
I24
I22
I26
I44
I22
I15
tp838
a(I16
I26
I24
I20
I27
I52
I22
I15
tp839
a(I14
I31
I28
I23
I31
I51
I22
I14
tp840
a(I15
I32
I28
I23
I32
I49
I23
I16
tp841
a(I17
I31
I26
I24
I31
I48
I20
I15
tp842
a(I17
I30
I26
I25
I30
I47
I19
I16
tp843
a(I17
I30
I28
I27
I28
I44
I19
I16
tp844
a(I17
I27
I26
I25
I24
I39
I21
I15
tp845
a(I17
I28
I27
I27
I25
I57
I20
I15
tp846
a(I16
I27
I28
I26
I25
I58
I20
I15
tp847
a(I16
I27
I28
I25
I25
I58
I21
I14
tp848
a(I16
I27
I28
I26
I23
I53
I19
I16
tp849
a(I17
I24
I30
I26
I24
I52
I17
I17
tp850
a(I16
I22
I27
I22
I21
I31
I17
I17
tp851
a(I16
I21
I26
I22
I22
I31
I19
I17
tp852
a(I16
I22
I27
I23
I21
I29
I19
I18
tp853
a(I18
I21
I26
I22
I22
I25
I19
I17
tp854
a(I19
I22
I22
I20
I21
I19
I18
I16
tp855
a(I21
I23
I25
I22
I21
I17
I18
I15
tp856
a(I21
I23
I26
I25
I22
I15
I16
I15
tp857
a(I21
I24
I29
I26
I24
I25
I20
I15
tp858
a(I19
I22
I29
I27
I27
I46
I24
I15
tp859
a(I20
I25
I34
I32
I28
I47
I24
I16
tp860
a(I18
I23
I33
I32
I27
I49
I25
I18
tp861
a(I18
I22
I32
I32
I27
I50
I26
I19
tp862
a(I21
I28
I33
I35
I27
I47
I24
I20
tp863
a(I22
I29
I32
I34
I26
I30
I20
I19
tp864
a(I20
I29
I28
I32
I24
I26
I21
I19
tp865
a(I23
I30
I28
I31
I26
I23
I19
I18
tp866
a(I23
I30
I26
I28
I24
I23
I18
I17
tp867
a(I21
I23
I27
I27
I24
I19
I18
I17
tp868
a(I21
I23
I27
I27
I22
I16
I19
I19
tp869
a(I21
I19
I26
I26
I22
I17
I19
I18
tp870
a(I18
I21
I25
I25
I21
I17
I20
I18
tp871
a(I19
I22
I27
I25
I23
I16
I20
I19
tp872
a(I19
I24
I24
I21
I20
I18
I21
I19
tp873
a(I18
I26
I24
I23
I20
I21
I19
I20
tp874
a(I20
I27
I25
I23
I23
I22
I18
I21
tp875
a(I20
I25
I24
I25
I21
I22
I17
I21
tp876
a(I19
I26
I29
I27
I21
I23
I18
I19
tp877
a(I19
I24
I27
I27
I21
I22
I14
I19
tp878
a(I18
I22
I28
I27
I23
I20
I15
I18
tp879
a(I16
I20
I27
I26
I21
I19
I14
I16
tp880
a(I16
I20
I26
I25
I23
I18
I16
I16
tp881
a(I17
I19
I22
I24
I22
I19
I15
I18
tp882
a(I16
I26
I26
I24
I24
I19
I17
I16
tp883
a(I17
I27
I24
I23
I22
I18
I20
I15
tp884
a(I18
I26
I25
I22
I22
I19
I20
I17
tp885
a(I19
I27
I29
I28
I23
I24
I20
I18
tp886
a(I19
I27
I29
I28
I22
I22
I20
I18
tp887
a(I20
I21
I25
I27
I23
I22
I20
I19
tp888
a(I19
I22
I26
I26
I22
I23
I17
I19
tp889
a(I20
I23
I30
I29
I25
I26
I16
I19
tp890
a(I19
I21
I28
I24
I25
I22
I16
I18
tp891
a(I20
I21
I29
I23
I26
I23
I16
I16
tp892
a(I21
I21
I29
I22
I25
I23
I15
I15
tp893
a(I22
I21
I31
I23
I26
I22
I17
I15
tp894
a(I22
I25
I29
I23
I23
I19
I18
I17
tp895
a(I21
I26
I28
I21
I21
I19
I19
I17
tp896
a(I22
I27
I26
I23
I19
I20
I20
I17
tp897
a(I20
I28
I27
I24
I20
I20
I21
I18
tp898
a(I19
I28
I24
I25
I19
I21
I19
I18
tp899
a(I19
I26
I22
I25
I19
I22
I20
I16
tp900
a(I19
I25
I21
I26
I21
I21
I20
I14
tp901
a(I16
I23
I22
I25
I23
I19
I18
I16
tp902
a(I17
I21
I23
I26
I22
I18
I19
I14
tp903
a(I18
I23
I25
I24
I23
I18
I19
I15
tp904
a(I17
I20
I23
I25
I23
I17
I19
I17
tp905
a(I16
I20
I23
I26
I20
I19
I17
I18
tp906
a(I17
I21
I22
I25
I19
I19
I19
I18
tp907
a(I17
I21
I20
I24
I18
I18
I20
I18
tp908
a(I16
I19
I20
I25
I16
I18
I20
I19
tp909
a(I15
I20
I24
I23
I19
I17
I19
I17
tp910
a(I16
I21
I24
I21
I20
I16
I19
I17
tp911
a(I14
I19
I23
I22
I20
I15
I17
I15
tp912
a(I16
I19
I25
I27
I21
I18
I18
I16
tp913
a(I16
I18
I25
I25
I22
I20
I17
I16
tp914
a(I18
I20
I23
I26
I21
I20
I18
I17
tp915
a(I17
I20
I24
I27
I21
I22
I17
I18
tp916
a(I18
I23
I25
I26
I23
I22
I19
I19
tp917
a(I17
I23
I24
I24
I22
I20
I18
I19
tp918
a(I17
I25
I23
I25
I22
I19
I18
I18
tp919
a(I17
I23
I22
I24
I20
I19
I19
I19
tp920
a(I18
I27
I22
I25
I21
I16
I18
I20
tp921
a(I18
I25
I22
I25
I19
I16
I17
I19
tp922
a(I18
I26
I22
I21
I17
I16
I16
I19
tp923
a(I18
I26
I23
I21
I19
I15
I15
I19
tp924
a(I17
I28
I29
I22
I20
I16
I17
I17
tp925
a(I16
I23
I27
I21
I18
I17
I18
I16
tp926
a(I17
I23
I27
I22
I19
I17
I17
I16
tp927
a(I18
I21
I27
I21
I19
I17
I17
I18
tp928
a(I16
I21
I27
I23
I18
I18
I18
I18
tp929
a(I16
I19
I21
I25
I19
I21
I16
I18
tp930
a(I16
I19
I21
I24
I20
I23
I16
I19
tp931
a(I17
I20
I23
I24
I20
I23
I18
I18
tp932
a(I16
I23
I22
I24
I21
I22
I18
I19
tp933
a(I17
I24
I22
I24
I21
I23
I18
I19
tp934
a(I16
I23
I23
I21
I20
I22
I16
I16
tp935
a(I17
I24
I25
I23
I19
I21
I18
I16
tp936
a(I17
I25
I29
I25
I19
I21
I17
I18
tp937
a(I17
I21
I29
I25
I21
I23
I17
I15
tp938
a(I17
I20
I28
I24
I21
I22
I16
I14
tp939
a(I18
I24
I28
I24
I21
I21
I18
I17
tp940
a(I16
I23
I30
I25
I21
I21
I16
I17
tp941
a(I16
I22
I24
I23
I21
I20
I15
I16
tp942
a(I17
I22
I23
I24
I19
I19
I15
I17
tp943
a(I17
I24
I26
I24
I18
I19
I14
I19
tp944
a(I17
I22
I29
I25
I18
I19
I14
I17
tp945
a(I19
I23
I26
I22
I18
I19
I15
I18
tp946
a(I20
I23
I27
I22
I22
I19
I16
I20
tp947
a(I19
I24
I27
I22
I21
I19
I16
I18
tp948
a(I20
I21
I27
I22
I23
I19
I16
I18
tp949
a(I19
I22
I24
I22
I22
I19
I17
I18
tp950
a(I19
I22
I22
I22
I22
I19
I17
I17
tp951
a(I18
I26
I21
I20
I19
I18
I17
I16
tp952
a(I18
I26
I23
I19
I18
I19
I18
I17
tp953
a(I19
I27
I25
I21
I17
I18
I18
I16
tp954
a(I21
I24
I25
I19
I17
I18
I17
I17
tp955
a(I21
I24
I30
I22
I17
I18
I19
I18
tp956
a(I21
I20
I30
I23
I16
I19
I19
I15
tp957
a(I21
I20
I30
I24
I18
I18
I18
I16
tp958
a(I20
I22
I26
I24
I17
I19
I18
I16
tp959
a(I18
I22
I24
I26
I18
I17
I18
I16
tp960
a(I18
I24
I24
I25
I22
I16
I17
I17
tp961
a(I17
I24
I23
I24
I22
I18
I17
I17
tp962
a(I15
I28
I23
I23
I21
I18
I16
I17
tp963
a(I17
I25
I24
I23
I23
I19
I16
I17
tp964
a(I17
I27
I27
I23
I24
I18
I14
I16
tp965
a(I18
I24
I24
I24
I23
I18
I15
I14
tp966
a(I18
I25
I24
I24
I23
I17
I16
I14
tp967
a(I20
I21
I24
I26
I24
I17
I16
I15
tp968
a(I19
I22
I26
I26
I23
I20
I19
I16
tp969
a(I21
I23
I24
I25
I21
I22
I19
I18
tp970
a(I20
I23
I24
I23
I19
I23
I17
I21
tp971
a(I21
I23
I27
I26
I20
I23
I17
I22
tp972
a(I19
I23
I27
I25
I20
I23
I18
I22
tp973
a(I18
I23
I27
I24
I18
I19
I14
I21
tp974
a(I17
I22
I27
I25
I19
I17
I16
I19
tp975
a(I18
I22
I28
I24
I21
I14
I16
I17
tp976
a(I17
I24
I23
I22
I20
I14
I16
I15
tp977
a(I17
I25
I23
I26
I20
I18
I15
I15
tp978
a(I19
I24
I20
I25
I19
I17
I17
I19
tp979
a(I17
I24
I22
I31
I22
I18
I17
I19
tp980
a(I18
I23
I21
I31
I21
I19
I19
I19
tp981
a(I17
I22
I23
I30
I21
I21
I18
I18
tp982
a(I18
I20
I23
I28
I20
I20
I19
I20
tp983
a(I19
I22
I24
I28
I21
I21
I19
I17
tp984
a(I19
I20
I22
I22
I18
I20
I18
I18
tp985
a(I19
I22
I23
I22
I19
I22
I17
I19
tp986
a(I19
I21
I27
I23
I18
I20
I17
I19
tp987
a(I18
I22
I27
I22
I20
I19
I18
I17
tp988
a(I18
I21
I29
I24
I19
I18
I18
I16
tp989
a(I18
I22
I30
I24
I20
I19
I18
I15
tp990
a(I19
I20
I33
I26
I19
I17
I17
I13
tp991
a(I19
I21
I30
I25
I20
I17
I17
I14
tp992
a(I19
I22
I30
I26
I21
I19
I15
I15
tp993
a(I17
I21
I29
I26
I20
I21
I16
I16
tp994
a(I17
I21
I30
I26
I22
I21
I15
I16
tp995
a(I16
I22
I26
I25
I21
I21
I15
I15
tp996
a(I15
I22
I25
I25
I22
I20
I18
I16
tp997
a(I16
I21
I28
I27
I20
I20
I20
I15
tp998
a(I22
I26
I28
I29
I21
I19
I19
I16
tp999
a(I22
I24
I25
I27
I20
I20
I20
I16
tp1000
a(I22
I25
I26
I28
I21
I19
I21
I19
tp1001
a(I22
I24
I28
I26
I19
I19
I19
I19
tp1002
a(I22
I24
I27
I25
I20
I20
I17
I19
tp1003
a(I18
I22
I27
I21
I19
I20
I18
I18
tp1004
a(I17
I23
I27
I23
I19
I18
I18
I19
tp1005
a(I19
I23
I28
I23
I18
I19
I17
I17
tp1006
a(I21
I23
I28
I27
I18
I18
I18
I16
tp1007
a(I21
I23
I28
I26
I18
I15
I19
I16
tp1008
a(I21
I23
I27
I28
I19
I14
I18
I16
tp1009
a(I23
I24
I27
I27
I20
I15
I19
I15
tp1010
a(I23
I29
I28
I27
I20
I17
I19
I18
tp1011
a(I21
I32
I29
I25
I21
I17
I18
I17
tp1012
a(I23
I31
I28
I26
I19
I18
I17
I18
tp1013
a(I22
I33
I27
I23
I20
I18
I17
I19
tp1014
a(I20
I32
I27
I24
I23
I18
I16
I20
tp1015
a(I19
I27
I25
I23
I23
I16
I16
I18
tp1016
a(I18
I26
I21
I24
I23
I17
I18
I19
tp1017
a(I17
I27
I23
I24
I24
I17
I18
I19
tp1018
a(I17
I23
I24
I25
I23
I18
I19
I18
tp1019
a(I16
I23
I25
I28
I21
I18
I19
I16
tp1020
a(I17
I25
I26
I27
I22
I18
I20
I16
tp1021
a(I19
I25
I28
I25
I22
I20
I19
I15
tp1022
a(I17
I24
I28
I26
I22
I20
I18
I16
tp1023
a(I17
I28
I28
I25
I22
I20
I19
I15
tp1024
aa(lp1025
(I19
I22
I31
I26
I20
I20
I21
I18
tp1026
a(I22
I24
I33
I26
I21
I19
I20
I20
tp1027
a(I21
I26
I32
I25
I19
I22
I19
I19
tp1028
a(I19
I26
I33
I27
I18
I22
I18
I18
tp1029
a(I19
I27
I32
I27
I21
I21
I17
I18
tp1030
a(I19
I29
I30
I27
I21
I20
I16
I18
tp1031
a(I16
I26
I27
I27
I20
I21
I16
I16
tp1032
a(I16
I25
I27
I26
I20
I18
I16
I15
tp1033
a(I16
I25
I27
I23
I20
I18
I16
I17
tp1034
a(I18
I25
I29
I28
I17
I17
I16
I16
tp1035
a(I17
I23
I31
I26
I17
I17
I16
I17
tp1036
a(I16
I27
I31
I27
I18
I17
I16
I17
tp1037
a(I17
I26
I29
I29
I21
I17
I17
I18
tp1038
a(I18
I27
I27
I30
I25
I19
I18
I21
tp1039
a(I17
I29
I26
I26
I25
I19
I18
I22
tp1040
a(I20
I28
I24
I28
I29
I21
I18
I21
tp1041
a(I19
I24
I22
I25
I29
I22
I18
I21
tp1042
a(I21
I25
I22
I23
I27
I21
I19
I22
tp1043
a(I20
I24
I27
I22
I22
I21
I17
I20
tp1044
a(I20
I27
I26
I22
I23
I20
I15
I18
tp1045
a(I18
I27
I25
I20
I19
I21
I14
I18
tp1046
a(I21
I29
I29
I22
I20
I21
I14
I17
tp1047
a(I20
I28
I31
I25
I21
I23
I13
I16
tp1048
a(I19
I26
I27
I25
I21
I22
I12
I14
tp1049
a(I20
I21
I28
I25
I19
I22
I14
I15
tp1050
a(I19
I25
I31
I26
I19
I21
I15
I17
tp1051
a(I16
I23
I27
I25
I18
I20
I15
I17
tp1052
a(I16
I23
I24
I22
I18
I18
I15
I16
tp1053
a(I17
I24
I27
I23
I18
I18
I18
I17
tp1054
a(I16
I25
I31
I25
I19
I20
I18
I16
tp1055
a(I17
I22
I29
I24
I21
I19
I18
I16
tp1056
a(I17
I24
I30
I25
I20
I19
I18
I16
tp1057
a(I16
I24
I32
I24
I21
I19
I20
I17
tp1058
a(I16
I23
I29
I28
I20
I21
I19
I17
tp1059
a(I17
I21
I25
I26
I21
I19
I20
I18
tp1060
a(I17
I21
I24
I26
I19
I18
I19
I17
tp1061
a(I17
I23
I27
I26
I19
I19
I20
I16
tp1062
a(I18
I24
I26
I26
I18
I19
I17
I16
tp1063
a(I17
I25
I27
I21
I18
I18
I18
I18
tp1064
a(I17
I25
I26
I19
I18
I18
I16
I19
tp1065
a(I18
I31
I30
I22
I18
I20
I18
I22
tp1066
a(I20
I28
I27
I22
I18
I18
I17
I22
tp1067
a(I19
I27
I26
I23
I21
I18
I17
I22
tp1068
a(I20
I26
I30
I28
I23
I17
I15
I23
tp1069
a(I20
I30
I30
I29
I23
I16
I16
I22
tp1070
a(I21
I27
I28
I28
I24
I14
I16
I20
tp1071
a(I20
I28
I29
I28
I24
I14
I16
I20
tp1072
a(I21
I29
I31
I28
I22
I17
I17
I19
tp1073
a(I20
I30
I26
I25
I25
I19
I17
I17
tp1074
a(I19
I26
I26
I24
I24
I18
I18
I16
tp1075
a(I19
I27
I24
I25
I24
I19
I16
I15
tp1076
a(I18
I26
I24
I25
I25
I19
I18
I15
tp1077
a(I18
I27
I23
I23
I24
I19
I17
I16
tp1078
a(I18
I28
I25
I24
I20
I17
I17
I17
tp1079
a(I19
I29
I26
I24
I19
I18
I17
I18
tp1080
a(I18
I26
I26
I23
I18
I17
I19
I19
tp1081
a(I17
I29
I24
I22
I18
I17
I17
I20
tp1082
a(I17
I27
I25
I24
I22
I16
I18
I19
tp1083
a(I16
I24
I25
I24
I23
I17
I19
I19
tp1084
a(I17
I24
I24
I25
I24
I18
I18
I18
tp1085
a(I17
I24
I26
I24
I24
I19
I17
I18
tp1086
a(I18
I23
I27
I25
I23
I19
I17
I16
tp1087
a(I18
I22
I25
I22
I19
I19
I17
I16
tp1088
a(I19
I23
I28
I22
I21
I19
I16
I17
tp1089
a(I19
I24
I29
I21
I20
I19
I18
I16
tp1090
a(I20
I25
I28
I21
I20
I19
I17
I16
tp1091
a(I20
I25
I28
I20
I20
I17
I17
I15
tp1092
a(I19
I27
I26
I19
I21
I18
I16
I16
tp1093
a(I19
I27
I28
I26
I19
I17
I18
I15
tp1094
a(I17
I26
I28
I25
I19
I18
I17
I16
tp1095
a(I17
I25
I26
I28
I18
I17
I17
I16
tp1096
a(I17
I23
I29
I29
I18
I18
I17
I17
tp1097
a(I19
I22
I32
I31
I18
I21
I18
I17
tp1098
a(I20
I20
I26
I25
I16
I21
I17
I18
tp1099
a(I20
I20
I25
I25
I17
I20
I18
I17
tp1100
a(I20
I20
I28
I22
I18
I22
I19
I16
tp1101
a(I19
I22
I27
I22
I19
I21
I20
I15
tp1102
a(I17
I21
I23
I21
I18
I17
I19
I16
tp1103
a(I17
I20
I25
I22
I19
I16
I18
I15
tp1104
a(I16
I25
I30
I24
I20
I18
I17
I17
tp1105
a(I17
I26
I28
I25
I19
I16
I16
I18
tp1106
a(I16
I26
I27
I26
I19
I15
I15
I18
tp1107
a(I16
I28
I28
I28
I19
I16
I16
I17
tp1108
a(I17
I29
I27
I28
I18
I16
I16
I17
tp1109
a(I17
I26
I23
I26
I16
I16
I15
I16
tp1110
a(I17
I27
I22
I26
I17
I17
I15
I17
tp1111
a(I19
I26
I25
I26
I18
I17
I15
I16
tp1112
a(I20
I25
I27
I23
I17
I17
I15
I15
tp1113
a(I20
I25
I26
I25
I19
I19
I18
I15
tp1114
a(I20
I25
I25
I28
I19
I18
I20
I16
tp1115
a(I20
I25
I26
I30
I20
I17
I20
I15
tp1116
a(I18
I24
I22
I29
I19
I20
I20
I16
tp1117
a(I18
I24
I23
I28
I20
I21
I20
I17
tp1118
a(I18
I23
I25
I25
I18
I21
I19
I19
tp1119
a(I18
I23
I26
I24
I19
I22
I19
I18
tp1120
a(I18
I21
I24
I20
I17
I21
I18
I19
tp1121
a(I18
I21
I26
I21
I18
I19
I17
I18
tp1122
a(I19
I19
I23
I23
I19
I19
I19
I16
tp1123
a(I20
I19
I22
I27
I20
I18
I16
I15
tp1124
a(I20
I21
I23
I27
I19
I19
I15
I14
tp1125
a(I20
I21
I24
I28
I20
I20
I15
I14
tp1126
a(I19
I21
I23
I26
I19
I20
I17
I16
tp1127
a(I20
I24
I25
I26
I20
I19
I15
I17
tp1128
a(I17
I24
I28
I22
I19
I19
I16
I17
tp1129
a(I17
I23
I28
I22
I19
I19
I18
I18
tp1130
a(I17
I25
I28
I23
I21
I18
I17
I18
tp1131
a(I19
I28
I29
I25
I22
I20
I16
I18
tp1132
a(I18
I27
I29
I27
I21
I19
I16
I16
tp1133
a(I19
I31
I28
I26
I20
I17
I18
I17
tp1134
a(I19
I29
I25
I26
I21
I18
I16
I18
tp1135
a(I20
I30
I26
I25
I18
I19
I17
I19
tp1136
a(I19
I28
I23
I23
I19
I18
I18
I18
tp1137
a(I18
I28
I22
I23
I19
I21
I17
I19
tp1138
a(I19
I24
I22
I26
I19
I20
I17
I18
tp1139
a(I20
I28
I27
I26
I20
I20
I17
I18
tp1140
a(I20
I27
I27
I27
I20
I19
I18
I18
tp1141
a(I20
I27
I28
I26
I16
I18
I17
I18
tp1142
a(I20
I28
I30
I25
I19
I17
I16
I18
tp1143
a(I22
I29
I29
I22
I20
I18
I15
I18
tp1144
a(I21
I25
I26
I22
I19
I17
I14
I17
tp1145
a(I21
I26
I27
I23
I20
I19
I14
I17
tp1146
a(I20
I25
I27
I23
I22
I19
I14
I18
tp1147
a(I21
I27
I26
I23
I20
I18
I17
I18
tp1148
a(I17
I25
I26
I23
I19
I20
I18
I18
tp1149
a(I18
I26
I25
I24
I19
I20
I18
I17
tp1150
a(I19
I24
I25
I22
I18
I20
I20
I18
tp1151
a(I21
I25
I27
I22
I19
I22
I19
I18
tp1152
a(I20
I24
I28
I23
I19
I22
I18
I17
tp1153
a(I21
I23
I27
I23
I21
I20
I17
I18
tp1154
a(I20
I23
I27
I23
I21
I21
I17
I20
tp1155
a(I18
I24
I28
I23
I21
I20
I14
I20
tp1156
a(I17
I21
I25
I22
I21
I17
I15
I20
tp1157
a(I17
I20
I23
I19
I21
I17
I15
I19
tp1158
a(I16
I21
I23
I19
I21
I17
I15
I19
tp1159
a(I16
I24
I26
I23
I22
I19
I16
I20
tp1160
a(I18
I23
I25
I23
I21
I19
I16
I20
tp1161
a(I18
I24
I25
I24
I22
I21
I16
I20
tp1162
a(I17
I23
I24
I24
I21
I20
I16
I19
tp1163
a(I19
I27
I31
I28
I21
I21
I16
I19
tp1164
a(I19
I25
I29
I26
I23
I17
I15
I15
tp1165
a(I17
I25
I28
I26
I22
I19
I16
I14
tp1166
a(I18
I24
I27
I26
I20
I19
I15
I14
tp1167
a(I20
I28
I30
I28
I20
I19
I15
I16
tp1168
a(I21
I26
I25
I26
I20
I18
I14
I17
tp1169
a(I21
I26
I24
I26
I17
I20
I15
I18
tp1170
a(I21
I25
I25
I24
I19
I19
I15
I17
tp1171
a(I22
I26
I26
I24
I16
I17
I15
I17
tp1172
a(I20
I23
I24
I22
I17
I17
I14
I16
tp1173
a(I18
I25
I26
I22
I18
I18
I15
I16
tp1174
a(I17
I24
I24
I22
I18
I18
I14
I15
tp1175
a(I16
I23
I24
I26
I17
I18
I14
I17
tp1176
a(I15
I21
I23
I26
I19
I17
I15
I16
tp1177
a(I14
I26
I26
I27
I18
I17
I15
I16
tp1178
a(I14
I22
I26
I28
I19
I17
I14
I16
tp1179
a(I15
I23
I30
I28
I19
I15
I15
I16
tp1180
a(I15
I24
I30
I29
I24
I16
I14
I14
tp1181
a(I16
I25
I30
I29
I23
I16
I15
I15
tp1182
a(I16
I21
I28
I28
I22
I16
I16
I15
tp1183
a(I18
I21
I29
I28
I21
I16
I17
I16
tp1184
a(I19
I23
I26
I29
I24
I18
I16
I19
tp1185
a(I21
I23
I26
I29
I19
I17
I17
I20
tp1186
a(I22
I23
I28
I30
I19
I19
I16
I20
tp1187
a(I22
I24
I28
I32
I21
I20
I16
I19
tp1188
a(I21
I26
I26
I31
I22
I23
I17
I20
tp1189
a(I21
I27
I27
I29
I21
I22
I17
I18
tp1190
a(I18
I27
I28
I29
I23
I22
I18
I17
tp1191
a(I19
I27
I26
I28
I24
I21
I18
I19
tp1192
a(I18
I26
I25
I28
I23
I20
I16
I21
tp1193
a(I19
I24
I26
I27
I22
I17
I14
I18
tp1194
a(I18
I23
I26
I26
I22
I16
I15
I18
tp1195
a(I20
I24
I27
I27
I20
I18
I15
I20
tp1196
a(I20
I23
I31
I27
I18
I18
I16
I19
tp1197
a(I21
I27
I31
I31
I20
I21
I17
I19
tp1198
a(I20
I26
I29
I30
I20
I21
I17
I19
tp1199
a(I20
I30
I30
I31
I18
I22
I18
I20
tp1200
a(I18
I30
I29
I28
I19
I20
I17
I18
tp1201
a(I16
I30
I25
I28
I19
I20
I16
I18
tp1202
a(I15
I27
I25
I23
I18
I18
I17
I18
tp1203
a(I15
I29
I26
I24
I17
I17
I17
I19
tp1204
a(I17
I21
I23
I23
I18
I15
I17
I18
tp1205
a(I20
I23
I21
I27
I18
I17
I19
I20
tp1206
a(I22
I25
I24
I28
I16
I17
I20
I19
tp1207
a(I22
I26
I25
I27
I15
I16
I19
I18
tp1208
a(I21
I24
I26
I27
I16
I19
I20
I17
tp1209
a(I19
I25
I26
I28
I14
I20
I19
I16
tp1210
a(I17
I23
I26
I26
I16
I20
I18
I15
tp1211
a(I19
I22
I25
I25
I17
I19
I17
I14
tp1212
a(I22
I20
I26
I25
I19
I20
I17
I15
tp1213
a(I23
I20
I23
I23
I19
I17
I16
I14
tp1214
a(I24
I23
I25
I22
I19
I18
I16
I14
tp1215
a(I23
I21
I26
I20
I19
I19
I18
I13
tp1216
a(I19
I20
I24
I21
I17
I20
I18
I14
tp1217
a(I17
I23
I21
I23
I18
I21
I18
I14
tp1218
a(I17
I26
I24
I25
I19
I21
I18
I17
tp1219
a(I15
I24
I22
I25
I20
I20
I18
I18
tp1220
a(I17
I25
I22
I26
I20
I21
I15
I19
tp1221
a(I19
I28
I22
I27
I21
I20
I14
I20
tp1222
a(I21
I26
I23
I25
I20
I18
I14
I20
tp1223
a(I20
I26
I22
I24
I20
I18
I14
I19
tp1224
a(I21
I25
I21
I24
I20
I18
I15
I18
tp1225
a(I20
I27
I21
I22
I21
I16
I15
I20
tp1226
a(I18
I23
I22
I23
I23
I15
I16
I18
tp1227
a(I17
I24
I24
I24
I23
I15
I17
I17
tp1228
a(I17
I22
I23
I25
I21
I16
I17
I17
tp1229
a(I16
I23
I25
I25
I21
I16
I17
I20
tp1230
a(I16
I21
I25
I26
I21
I17
I17
I18
tp1231
a(I17
I22
I26
I23
I20
I17
I17
I18
tp1232
a(I18
I22
I24
I21
I21
I17
I16
I18
tp1233
a(I19
I21
I24
I20
I20
I18
I15
I20
tp1234
a(I20
I21
I23
I23
I20
I17
I14
I17
tp1235
a(I18
I20
I22
I23
I18
I16
I15
I17
tp1236
a(I17
I22
I25
I24
I19
I16
I16
I18
tp1237
a(I18
I22
I27
I26
I18
I17
I15
I18
tp1238
a(I15
I22
I27
I27
I20
I15
I16
I16
tp1239
a(I15
I20
I27
I24
I22
I14
I16
I16
tp1240
a(I16
I22
I27
I24
I23
I16
I16
I17
tp1241
a(I16
I20
I25
I22
I21
I16
I13
I17
tp1242
a(I15
I19
I23
I20
I21
I16
I15
I17
tp1243
a(I15
I19
I25
I20
I22
I16
I13
I17
tp1244
a(I16
I21
I25
I22
I19
I17
I14
I18
tp1245
a(I15
I27
I27
I22
I19
I17
I14
I17
tp1246
a(I16
I27
I25
I22
I20
I16
I16
I16
tp1247
a(I17
I27
I26
I24
I21
I15
I16
I16
tp1248
a(I17
I26
I26
I23
I20
I16
I17
I17
tp1249
a(I18
I26
I26
I22
I21
I16
I16
I18
tp1250
a(I19
I19
I25
I22
I20
I16
I17
I17
tp1251
a(I18
I20
I25
I21
I18
I17
I16
I17
tp1252
a(I19
I25
I26
I25
I17
I20
I16
I18
tp1253
a(I18
I26
I25
I25
I18
I19
I16
I17
tp1254
a(I17
I24
I24
I25
I17
I19
I17
I18
tp1255
a(I18
I25
I23
I25
I18
I19
I16
I17
tp1256
a(I20
I27
I24
I26
I20
I21
I17
I19
tp1257
a(I22
I25
I22
I21
I19
I19
I16
I20
tp1258
a(I22
I26
I22
I24
I18
I21
I17
I21
tp1259
a(I22
I25
I21
I26
I18
I20
I18
I20
tp1260
a(I21
I25
I22
I26
I18
I20
I19
I22
tp1261
a(I19
I23
I22
I26
I18
I20
I17
I22
tp1262
a(I18
I19
I23
I26
I17
I19
I18
I20
tp1263
a(I18
I17
I21
I23
I18
I19
I17
I19
tp1264
a(I19
I24
I26
I23
I21
I20
I18
I19
tp1265
a(I19
I23
I25
I24
I21
I18
I17
I18
tp1266
a(I19
I24
I24
I25
I22
I17
I19
I17
tp1267
a(I18
I26
I24
I25
I24
I16
I18
I17
tp1268
a(I18
I28
I24
I27
I23
I16
I18
I18
tp1269
a(I21
I24
I20
I24
I21
I16
I17
I19
tp1270
a(I21
I25
I24
I23
I21
I15
I17
I19
tp1271
a(I20
I24
I24
I19
I20
I15
I16
I19
tp1272
a(I21
I22
I25
I21
I22
I15
I17
I20
tp1273
a(I21
I23
I25
I18
I22
I16
I17
I20
tp1274
a(I18
I22
I25
I20
I22
I16
I17
I19
tp1275
a(I18
I23
I21
I23
I22
I18
I17
I19
tp1276
a(I19
I23
I23
I26
I21
I19
I17
I19
tp1277
a(I16
I24
I24
I25
I17
I20
I15
I18
tp1278
a(I17
I24
I24
I28
I19
I19
I14
I17
tp1279
a(I16
I24
I24
I26
I19
I19
I13
I17
tp1280
aa(lp1281
(I19
I24
I29
I28
I22
I20
I16
I19
tp1282
a(I20
I25
I27
I27
I21
I21
I16
I18
tp1283
a(I20
I27
I29
I29
I22
I20
I16
I19
tp1284
a(I21
I28
I30
I29
I21
I20
I17
I19
tp1285
a(I21
I25
I31
I25
I21
I18
I17
I19
tp1286
a(I20
I24
I36
I24
I19
I18
I18
I21
tp1287
a(I20
I22
I37
I24
I22
I21
I20
I22
tp1288
a(I21
I23
I38
I25
I26
I76
I36
I24
tp1289
a(I20
I23
I37
I25
I27
I78
I36
I23
tp1290
a(I19
I24
I33
I23
I27
I80
I35
I22
tp1291
a(I21
I23
I27
I25
I28
I81
I36
I20
tp1292
a(I22
I21
I24
I28
I25
I81
I35
I20
tp1293
a(I21
I19
I21
I25
I22
I37
I19
I16
tp1294
a(I21
I19
I20
I26
I21
I35
I18
I16
tp1295
a(I21
I20
I21
I26
I21
I31
I19
I16
tp1296
a(I20
I22
I26
I30
I20
I28
I19
I16
tp1297
a(I18
I22
I25
I27
I19
I23
I18
I14
tp1298
a(I19
I22
I25
I27
I20
I22
I19
I14
tp1299
a(I20
I22
I27
I27
I20
I19
I19
I14
tp1300
a(I19
I22
I26
I28
I19
I19
I18
I15
tp1301
a(I18
I20
I21
I23
I19
I18
I17
I14
tp1302
a(I20
I22
I23
I23
I20
I18
I17
I15
tp1303
a(I19
I23
I24
I25
I18
I19
I17
I18
tp1304
a(I19
I24
I22
I26
I18
I18
I18
I18
tp1305
a(I19
I23
I23
I26
I19
I18
I18
I18
tp1306
a(I21
I26
I26
I27
I19
I20
I18
I20
tp1307
a(I22
I24
I24
I27
I18
I19
I17
I19
tp1308
a(I22
I23
I23
I27
I19
I18
I16
I19
tp1309
a(I21
I21
I24
I28
I22
I18
I16
I21
tp1310
a(I21
I22
I23
I27
I21
I18
I14
I20
tp1311
a(I20
I19
I20
I26
I21
I17
I14
I19
tp1312
a(I20
I22
I21
I28
I21
I18
I15
I21
tp1313
a(I21
I22
I23
I26
I20
I17
I15
I19
tp1314
a(I20
I22
I22
I27
I16
I17
I17
I17
tp1315
a(I21
I24
I22
I26
I16
I16
I18
I18
tp1316
a(I21
I24
I22
I27
I17
I18
I17
I20
tp1317
a(I19
I25
I21
I26
I17
I19
I17
I18
tp1318
a(I19
I28
I20
I26
I17
I19
I17
I19
tp1319
a(I19
I29
I20
I24
I20
I19
I15
I20
tp1320
a(I19
I27
I23
I23
I19
I20
I15
I20
tp1321
a(I18
I29
I24
I23
I18
I17
I16
I20
tp1322
a(I16
I25
I24
I21
I18
I17
I15
I20
tp1323
a(I15
I22
I23
I21
I22
I17
I16
I19
tp1324
a(I16
I20
I23
I20
I19
I16
I16
I18
tp1325
a(I19
I25
I27
I23
I20
I17
I15
I18
tp1326
a(I20
I24
I28
I23
I21
I17
I14
I18
tp1327
a(I21
I25
I28
I23
I21
I16
I14
I18
tp1328
a(I20
I29
I28
I24
I17
I17
I13
I17
tp1329
a(I21
I32
I28
I23
I18
I17
I14
I16
tp1330
a(I17
I28
I24
I21
I17
I16
I14
I16
tp1331
a(I15
I29
I21
I19
I20
I17
I15
I14
tp1332
a(I15
I29
I22
I20
I20
I17
I15
I14
tp1333
a(I18
I28
I29
I22
I22
I17
I17
I16
tp1334
a(I19
I28
I30
I21
I22
I16
I16
I16
tp1335
a(I19
I26
I28
I22
I21
I16
I18
I16
tp1336
a(I22
I25
I29
I21
I20
I17
I17
I18
tp1337
a(I23
I27
I30
I21
I21
I18
I18
I18
tp1338
a(I21
I24
I24
I17
I18
I17
I17
I17
tp1339
a(I20
I22
I25
I18
I19
I19
I18
I20
tp1340
a(I20
I22
I26
I17
I21
I20
I17
I20
tp1341
a(I17
I23
I27
I18
I19
I18
I18
I19
tp1342
a(I19
I25
I26
I21
I20
I17
I18
I20
tp1343
a(I18
I26
I28
I26
I21
I17
I17
I21
tp1344
a(I17
I25
I25
I25
I20
I16
I18
I20
tp1345
a(I18
I27
I25
I24
I19
I15
I17
I19
tp1346
a(I20
I27
I26
I26
I24
I14
I16
I20
tp1347
a(I19
I24
I26
I24
I23
I15
I14
I20
tp1348
a(I19
I24
I24
I21
I22
I18
I14
I19
tp1349
a(I22
I25
I26
I22
I23
I16
I13
I18
tp1350
a(I20
I25
I26
I24
I23
I18
I14
I17
tp1351
a(I21
I23
I24
I22
I21
I19
I13
I17
tp1352
a(I21
I24
I23
I21
I22
I20
I14
I17
tp1353
a(I21
I22
I24
I21
I22
I17
I13
I17
tp1354
a(I19
I22
I24
I21
I23
I20
I13
I16
tp1355
a(I20
I20
I25
I19
I23
I20
I14
I17
tp1356
a(I18
I22
I25
I20
I21
I20
I15
I16
tp1357
a(I17
I22
I25
I21
I20
I17
I17
I15
tp1358
a(I18
I22
I23
I21
I21
I17
I18
I14
tp1359
a(I18
I23
I27
I23
I19
I15
I17
I15
tp1360
a(I20
I23
I25
I23
I19
I16
I17
I15
tp1361
a(I19
I21
I24
I22
I20
I15
I17
I17
tp1362
a(I20
I22
I23
I22
I19
I19
I16
I17
tp1363
a(I20
I25
I25
I19
I18
I19
I16
I18
tp1364
a(I21
I24
I19
I17
I18
I20
I17
I17
tp1365
a(I20
I25
I24
I20
I18
I21
I17
I17
tp1366
a(I22
I27
I26
I20
I20
I22
I17
I18
tp1367
a(I22
I26
I27
I20
I21
I21
I16
I17
tp1368
a(I22
I24
I25
I23
I21
I22
I16
I15
tp1369
a(I20
I25
I25
I23
I21
I21
I16
I15
tp1370
a(I19
I25
I24
I22
I22
I20
I17
I17
tp1371
a(I18
I23
I22
I23
I21
I18
I17
I17
tp1372
a(I18
I22
I22
I23
I20
I16
I17
I17
tp1373
a(I18
I25
I24
I21
I19
I17
I17
I18
tp1374
a(I20
I28
I26
I24
I18
I18
I19
I21
tp1375
a(I20
I28
I24
I24
I19
I18
I18
I20
tp1376
a(I19
I28
I27
I26
I18
I20
I18
I19
tp1377
a(I19
I30
I28
I28
I18
I21
I19
I21
tp1378
a(I18
I28
I27
I30
I17
I19
I19
I20
tp1379
a(I16
I25
I26
I30
I20
I17
I17
I19
tp1380
a(I15
I28
I29
I31
I19
I17
I18
I20
tp1381
a(I16
I27
I28
I30
I19
I15
I19
I19
tp1382
a(I16
I26
I28
I29
I19
I16
I19
I19
tp1383
a(I17
I26
I29
I26
I21
I17
I18
I20
tp1384
a(I18
I28
I29
I25
I18
I17
I19
I19
tp1385
a(I19
I23
I28
I24
I18
I20
I17
I18
tp1386
a(I19
I27
I31
I24
I21
I20
I16
I18
tp1387
a(I18
I27
I30
I24
I20
I18
I17
I17
tp1388
a(I17
I27
I31
I26
I19
I17
I16
I16
tp1389
a(I15
I25
I30
I24
I18
I19
I15
I16
tp1390
a(I16
I27
I29
I24
I18
I15
I15
I16
tp1391
a(I16
I24
I24
I23
I16
I16
I15
I16
tp1392
a(I16
I24
I22
I22
I16
I16
I14
I16
tp1393
a(I18
I23
I23
I23
I15
I17
I15
I15
tp1394
a(I19
I24
I24
I24
I16
I15
I16
I14
tp1395
a(I19
I22
I24
I24
I15
I15
I16
I15
tp1396
a(I18
I21
I26
I23
I16
I15
I15
I17
tp1397
a(I19
I22
I28
I26
I16
I15
I16
I18
tp1398
a(I18
I20
I28
I25
I16
I16
I15
I19
tp1399
a(I18
I19
I27
I26
I18
I16
I14
I19
tp1400
a(I18
I22
I32
I25
I19
I17
I17
I19
tp1401
a(I19
I23
I31
I26
I19
I17
I16
I16
tp1402
a(I18
I23
I30
I23
I20
I18
I16
I16
tp1403
a(I18
I22
I28
I21
I19
I17
I17
I19
tp1404
a(I18
I25
I30
I21
I18
I16
I18
I19
tp1405
a(I17
I25
I24
I22
I16
I18
I17
I19
tp1406
a(I19
I27
I22
I23
I18
I17
I17
I20
tp1407
a(I19
I26
I23
I24
I18
I16
I17
I21
tp1408
a(I20
I28
I25
I26
I19
I19
I16
I18
tp1409
a(I19
I26
I24
I26
I19
I20
I16
I19
tp1410
a(I20
I24
I26
I25
I19
I20
I16
I19
tp1411
a(I19
I24
I29
I25
I19
I21
I17
I20
tp1412
a(I21
I24
I30
I26
I18
I21
I18
I20
tp1413
a(I20
I24
I29
I25
I17
I19
I18
I20
tp1414
a(I20
I23
I29
I24
I18
I19
I17
I20
tp1415
a(I20
I21
I29
I23
I21
I18
I17
I20
tp1416
a(I19
I21
I28
I22
I20
I17
I17
I19
tp1417
a(I16
I23
I26
I21
I20
I16
I16
I18
tp1418
a(I18
I23
I25
I21
I21
I18
I16
I18
tp1419
a(I18
I24
I23
I23
I23
I18
I17
I18
tp1420
a(I19
I25
I21
I22
I20
I17
I17
I16
tp1421
a(I19
I24
I21
I23
I21
I17
I17
I16
tp1422
a(I19
I23
I20
I22
I21
I18
I19
I18
tp1423
a(I19
I21
I19
I24
I22
I16
I18
I17
tp1424
a(I17
I20
I19
I24
I22
I14
I18
I16
tp1425
a(I16
I20
I20
I25
I25
I14
I16
I17
tp1426
a(I17
I21
I20
I27
I23
I14
I16
I17
tp1427
a(I18
I23
I25
I30
I25
I15
I15
I15
tp1428
a(I17
I23
I24
I28
I24
I16
I16
I16
tp1429
a(I18
I25
I26
I28
I23
I15
I15
I16
tp1430
a(I18
I25
I26
I28
I20
I17
I17
I17
tp1431
a(I15
I23
I24
I27
I20
I17
I16
I16
tp1432
a(I16
I21
I21
I23
I18
I19
I15
I18
tp1433
a(I16
I21
I21
I24
I21
I20
I16
I18
tp1434
a(I16
I24
I21
I25
I20
I20
I17
I20
tp1435
a(I18
I23
I22
I23
I22
I20
I16
I20
tp1436
a(I19
I24
I23
I24
I23
I20
I16
I20
tp1437
a(I17
I25
I25
I28
I22
I18
I18
I19
tp1438
a(I19
I29
I28
I30
I24
I15
I16
I18
tp1439
a(I19
I24
I27
I29
I24
I15
I15
I17
tp1440
a(I17
I25
I27
I29
I23
I16
I15
I17
tp1441
a(I20
I28
I29
I27
I24
I16
I16
I18
tp1442
a(I21
I27
I29
I22
I24
I17
I17
I19
tp1443
a(I21
I24
I27
I18
I21
I19
I18
I19
tp1444
a(I21
I25
I27
I19
I20
I19
I19
I18
tp1445
a(I21
I26
I25
I21
I20
I18
I19
I18
tp1446
a(I19
I23
I22
I24
I20
I17
I19
I17
tp1447
a(I21
I27
I22
I28
I21
I19
I16
I17
tp1448
a(I18
I25
I24
I28
I20
I17
I17
I18
tp1449
a(I18
I28
I24
I30
I19
I19
I17
I18
tp1450
a(I20
I28
I25
I29
I20
I18
I17
I20
tp1451
a(I20
I28
I30
I30
I20
I21
I19
I21
tp1452
a(I17
I25
I29
I26
I19
I18
I19
I21
tp1453
a(I19
I27
I28
I28
I21
I21
I18
I21
tp1454
a(I19
I26
I29
I28
I21
I20
I17
I21
tp1455
a(I19
I26
I29
I27
I20
I19
I17
I21
tp1456
a(I20
I26
I24
I25
I22
I18
I14
I20
tp1457
a(I20
I26
I25
I25
I22
I18
I14
I20
tp1458
a(I18
I22
I26
I25
I21
I16
I14
I19
tp1459
a(I18
I19
I24
I24
I21
I15
I14
I19
tp1460
a(I18
I19
I24
I24
I20
I17
I17
I18
tp1461
a(I17
I19
I26
I24
I19
I15
I17
I16
tp1462
a(I17
I21
I23
I27
I19
I15
I16
I15
tp1463
a(I18
I21
I20
I24
I18
I14
I16
I15
tp1464
a(I19
I23
I20
I24
I18
I15
I16
I16
tp1465
a(I19
I22
I21
I26
I20
I14
I11
I17
tp1466
a(I20
I24
I19
I26
I20
I15
I12
I18
tp1467
a(I21
I24
I21
I23
I18
I16
I12
I19
tp1468
a(I22
I30
I22
I24
I21
I16
I14
I19
tp1469
a(I21
I28
I23
I24
I23
I17
I15
I19
tp1470
a(I20
I30
I24
I23
I20
I17
I16
I19
tp1471
a(I19
I28
I24
I23
I22
I17
I17
I19
tp1472
a(I17
I27
I25
I26
I23
I16
I16
I18
tp1473
a(I16
I23
I26
I27
I22
I16
I15
I18
tp1474
a(I18
I26
I25
I27
I19
I14
I16
I17
tp1475
a(I19
I24
I25
I27
I20
I16
I17
I18
tp1476
a(I20
I27
I24
I25
I17
I16
I16
I17
tp1477
a(I21
I27
I25
I25
I16
I18
I16
I18
tp1478
a(I19
I28
I23
I24
I18
I17
I16
I19
tp1479
a(I18
I28
I24
I24
I18
I18
I15
I18
tp1480
a(I19
I28
I23
I24
I17
I17
I14
I20
tp1481
a(I18
I25
I24
I25
I19
I16
I14
I20
tp1482
a(I18
I26
I27
I25
I21
I18
I17
I18
tp1483
a(I18
I23
I26
I23
I20
I19
I18
I17
tp1484
a(I19
I22
I26
I23
I19
I19
I17
I19
tp1485
a(I16
I23
I26
I23
I21
I19
I19
I18
tp1486
a(I18
I26
I31
I23
I21
I19
I21
I19
tp1487
a(I17
I25
I27
I22
I19
I17
I18
I20
tp1488
a(I18
I25
I28
I22
I22
I17
I17
I22
tp1489
a(I17
I25
I29
I22
I22
I17
I18
I21
tp1490
a(I18
I23
I29
I22
I21
I17
I16
I21
tp1491
a(I16
I18
I25
I22
I19
I19
I15
I20
tp1492
a(I17
I20
I25
I23
I21
I18
I15
I18
tp1493
a(I17
I22
I26
I25
I20
I19
I15
I17
tp1494
a(I17
I21
I24
I25
I20
I19
I15
I17
tp1495
a(I18
I21
I25
I23
I21
I20
I16
I15
tp1496
a(I19
I25
I25
I22
I23
I18
I18
I16
tp1497
a(I19
I23
I24
I24
I22
I19
I19
I16
tp1498
a(I18
I23
I24
I24
I20
I17
I19
I15
tp1499
a(I22
I28
I26
I24
I21
I17
I19
I17
tp1500
a(I20
I29
I25
I26
I21
I17
I19
I17
tp1501
a(I21
I27
I27
I27
I20
I16
I17
I17
tp1502
a(I22
I28
I30
I23
I18
I16
I16
I17
tp1503
a(I23
I28
I32
I24
I19
I19
I17
I17
tp1504
a(I21
I24
I31
I25
I20
I18
I17
I16
tp1505
a(I22
I23
I32
I25
I20
I18
I19
I17
tp1506
a(I23
I23
I30
I26
I19
I20
I18
I17
tp1507
a(I23
I27
I31
I28
I21
I20
I19
I18
tp1508
a(I21
I25
I29
I27
I22
I18
I18
I17
tp1509
a(I22
I26
I28
I25
I21
I19
I18
I19
tp1510
a(I19
I28
I28
I26
I19
I18
I16
I17
tp1511
a(I18
I30
I29
I26
I21
I18
I17
I16
tp1512
a(I17
I27
I26
I28
I21
I18
I15
I14
tp1513
a(I19
I28
I27
I27
I21
I17
I16
I15
tp1514
a(I16
I29
I25
I26
I19
I18
I15
I15
tp1515
a(I20
I27
I25
I26
I20
I19
I17
I16
tp1516
a(I20
I30
I24
I25
I22
I18
I17
I19
tp1517
a(I20
I30
I25
I24
I21
I18
I17
I19
tp1518
a(I20
I28
I24
I24
I22
I19
I17
I18
tp1519
a(I20
I29
I28
I26
I22
I18
I17
I17
tp1520
a(I20
I30
I28
I26
I22
I17
I16
I16
tp1521
a(I20
I26
I29
I26
I21
I17
I16
I16
tp1522
a(I20
I27
I27
I24
I21
I16
I15
I15
tp1523
a(I21
I27
I27
I25
I19
I17
I17
I16
tp1524
a(I23
I27
I25
I24
I22
I18
I16
I15
tp1525
a(I21
I27
I27
I24
I22
I20
I15
I17
tp1526
a(I21
I27
I27
I23
I19
I21
I15
I15
tp1527
a(I21
I25
I29
I24
I20
I22
I16
I16
tp1528
a(I21
I31
I30
I23
I21
I22
I16
I17
tp1529
a(I20
I29
I30
I26
I20
I21
I16
I18
tp1530
a(I20
I31
I30
I27
I22
I20
I16
I18
tp1531
a(I21
I32
I28
I26
I22
I18
I17
I19
tp1532
a(I23
I32
I26
I27
I23
I18
I19
I19
tp1533
a(I23
I29
I26
I27
I22
I17
I17
I19
tp1534
a(I23
I31
I26
I27
I21
I18
I17
I18
tp1535
a(I23
I29
I26
I24
I21
I21
I16
I18
tp1536
aasS'spread'
p1537
(lp1538
(lp1539
(I79
I67
I82
I159
I430
I489
I183
I59
tp1540
a(I76
I56
I74
I169
I388
I477
I193
I60
tp1541
a(I76
I58
I68
I190
I455
I497
I189
I61
tp1542
a(I66
I58
I66
I216
I521
I454
I203
I64
tp1543
a(I78
I64
I57
I212
I520
I440
I198
I63
tp1544
a(I71
I57
I54
I208
I518
I377
I176
I59
tp1545
a(I70
I57
I53
I185
I487
I370
I160
I54
tp1546
a(I68
I60
I51
I168
I406
I339
I165
I64
tp1547
a(I69
I64
I67
I138
I319
I369
I161
I64
tp1548
a(I72
I71
I80
I167
I322
I391
I173
I63
tp1549
a(I100
I72
I78
I180
I334
I397
I170
I69
tp1550
a(I101
I72
I81
I203
I409
I393
I169
I68
tp1551
a(I142
I71
I83
I205
I417
I494
I192
I62
tp1552
a(I148
I65
I69
I201
I459
I477
I187
I60
tp1553
a(I173
I62
I64
I175
I432
I475
I183
I61
tp1554
a(I168
I64
I70
I178
I433
I495
I199
I54
tp1555
a(I169
I63
I68
I178
I417
I479
I207
I52
tp1556
a(I150
I62
I71
I211
I473
I391
I183
I47
tp1557
a(I176
I77
I71
I206
I424
I380
I175
I43
tp1558
a(I159
I73
I62
I209
I427
I345
I153
I38
tp1559
a(I153
I70
I51
I188
I411
I288
I158
I39
tp1560
a(I152
I71
I51
I168
I380
I312
I156
I44
tp1561
a(I147
I75
I46
I127
I318
I368
I157
I48
tp1562
a(I145
I73
I45
I155
I393
I383
I155
I51
tp1563
a(I147
I74
I44
I154
I403
I403
I164
I51
tp1564
a(I150
I75
I44
I161
I407
I419
I136
I48
tp1565
a(I151
I74
I55
I171
I385
I406
I167
I49
tp1566
a(I158
I72
I66
I173
I408
I350
I186
I46
tp1567
a(I146
I73
I66
I144
I351
I327
I200
I49
tp1568
a(I170
I83
I64
I141
I341
I318
I201
I47
tp1569
a(I176
I86
I68
I137
I353
I370
I213
I54
tp1570
a(I334
I143
I66
I147
I413
I398
I185
I53
tp1571
a(I367
I158
I63
I169
I408
I452
I235
I51
tp1572
a(I360
I150
I70
I198
I444
I466
I236
I48
tp1573
a(I372
I146
I76
I200
I477
I463
I234
I49
tp1574
a(I382
I152
I78
I206
I469
I407
I231
I59
tp1575
a(I266
I110
I81
I191
I413
I385
I232
I58
tp1576
a(I222
I89
I76
I163
I382
I331
I158
I60
tp1577
a(I228
I88
I71
I134
I341
I345
I141
I61
tp1578
a(I216
I100
I65
I141
I360
I341
I127
I61
tp1579
a(I203
I93
I61
I139
I375
I393
I131
I48
tp1580
a(I214
I87
I51
I137
I427
I389
I149
I43
tp1581
a(I204
I84
I54
I154
I435
I364
I141
I44
tp1582
a(I193
I86
I56
I162
I429
I335
I149
I44
tp1583
a(I185
I79
I59
I152
I378
I355
I162
I47
tp1584
a(I170
I71
I63
I169
I427
I339
I215
I47
tp1585
a(I159
I82
I76
I203
I436
I373
I206
I62
tp1586
a(I194
I89
I73
I189
I431
I389
I207
I59
tp1587
a(I210
I93
I71
I189
I432
I394
I200
I59
tp1588
a(I210
I90
I70
I193
I437
I408
I200
I57
tp1589
a(I210
I95
I67
I175
I366
I375
I133
I57
tp1590
a(I205
I90
I58
I154
I328
I331
I138
I45
tp1591
a(I194
I87
I56
I161
I373
I323
I138
I53
tp1592
a(I177
I82
I57
I154
I421
I315
I149
I52
tp1593
a(I137
I71
I57
I150
I406
I275
I147
I50
tp1594
a(I206
I72
I56
I157
I461
I350
I153
I53
tp1595
a(I214
I72
I53
I161
I478
I377
I174
I53
tp1596
a(I193
I62
I58
I166
I451
I390
I193
I51
tp1597
a(I224
I73
I58
I166
I420
I391
I194
I51
tp1598
a(I338
I90
I61
I164
I441
I396
I191
I53
tp1599
a(I310
I84
I62
I178
I429
I337
I188
I50
tp1600
a(I307
I80
I66
I226
I609
I495
I191
I56
tp1601
a(I325
I85
I75
I234
I665
I490
I191
I58
tp1602
a(I320
I81
I77
I235
I662
I524
I219
I59
tp1603
a(I227
I67
I76
I237
I668
I549
I225
I61
tp1604
a(I217
I76
I81
I235
I646
I548
I220
I60
tp1605
a(I240
I81
I80
I179
I446
I382
I213
I51
tp1606
a(I228
I97
I78
I161
I339
I379
I207
I48
tp1607
a(I210
I95
I78
I174
I390
I375
I207
I63
tp1608
a(I184
I95
I81
I197
I371
I339
I205
I63
tp1609
a(I200
I92
I73
I179
I381
I364
I210
I67
tp1610
a(I176
I94
I74
I174
I386
I365
I186
I70
tp1611
a(I173
I82
I73
I170
I382
I377
I192
I69
tp1612
a(I172
I83
I74
I158
I318
I390
I170
I57
tp1613
a(I199
I101
I70
I143
I389
I449
I173
I70
tp1614
a(I190
I104
I71
I169
I469
I474
I167
I70
tp1615
a(I210
I97
I93
I225
I499
I513
I216
I71
tp1616
a(I201
I90
I91
I241
I509
I539
I217
I74
tp1617
a(I216
I93
I91
I253
I509
I518
I204
I78
tp1618
a(I217
I81
I95
I247
I475
I518
I217
I82
tp1619
a(I219
I75
I104
I268
I454
I501
I222
I82
tp1620
a(I206
I82
I87
I238
I469
I579
I192
I84
tp1621
a(I226
I86
I85
I227
I457
I555
I175
I80
tp1622
a(I217
I79
I83
I214
I488
I584
I172
I74
tp1623
a(I235
I78
I80
I218
I505
I543
I160
I61
tp1624
a(I289
I84
I72
I192
I497
I522
I174
I58
tp1625
a(I292
I83
I69
I172
I493
I418
I164
I61
tp1626
a(I366
I85
I65
I170
I500
I410
I177
I63
tp1627
a(I390
I95
I64
I168
I462
I345
I183
I62
tp1628
a(I373
I102
I64
I156
I425
I365
I173
I57
tp1629
a(I330
I99
I59
I135
I423
I370
I186
I70
tp1630
a(I342
I103
I60
I131
I370
I379
I188
I61
tp1631
a(I298
I101
I60
I127
I363
I401
I173
I59
tp1632
a(I266
I95
I57
I124
I373
I403
I164
I58
tp1633
a(I263
I88
I55
I127
I357
I370
I170
I55
tp1634
a(I287
I89
I71
I136
I298
I362
I157
I44
tp1635
a(I300
I94
I75
I148
I284
I299
I155
I46
tp1636
a(I258
I92
I74
I159
I297
I238
I164
I55
tp1637
a(I267
I95
I74
I154
I341
I287
I170
I58
tp1638
a(I377
I113
I80
I163
I379
I404
I188
I61
tp1639
a(I407
I116
I77
I219
I396
I416
I177
I64
tp1640
a(I392
I102
I73
I226
I437
I446
I183
I63
tp1641
a(I416
I103
I72
I220
I447
I469
I193
I56
tp1642
a(I457
I116
I76
I227
I443
I457
I186
I53
tp1643
a(I409
I102
I74
I239
I486
I418
I175
I61
tp1644
a(I366
I101
I67
I179
I465
I434
I173
I53
tp1645
a(I363
I101
I69
I161
I425
I417
I169
I49
tp1646
a(I397
I109
I78
I191
I441
I436
I153
I49
tp1647
a(I361
I99
I76
I192
I438
I428
I178
I52
tp1648
a(I316
I89
I69
I164
I391
I392
I175
I45
tp1649
a(I314
I83
I67
I212
I419
I391
I192
I66
tp1650
a(I373
I91
I59
I217
I425
I421
I185
I68
tp1651
a(I308
I80
I47
I189
I386
I395
I199
I70
tp1652
a(I349
I104
I52
I202
I399
I381
I198
I72
tp1653
a(I351
I108
I57
I226
I453
I427
I211
I71
tp1654
a(I356
I113
I54
I189
I442
I404
I231
I58
tp1655
a(I320
I116
I53
I180
I439
I372
I238
I54
tp1656
a(I387
I130
I57
I186
I461
I392
I250
I54
tp1657
a(I408
I108
I58
I184
I440
I417
I242
I51
tp1658
a(I450
I119
I71
I171
I399
I467
I219
I56
tp1659
a(I458
I115
I74
I158
I373
I472
I186
I51
tp1660
a(I448
I112
I75
I156
I374
I490
I179
I52
tp1661
a(I404
I97
I78
I176
I400
I494
I146
I50
tp1662
a(I335
I93
I77
I186
I447
I542
I162
I52
tp1663
a(I293
I87
I71
I214
I427
I489
I187
I45
tp1664
a(I297
I88
I74
I217
I446
I547
I193
I51
tp1665
a(I294
I82
I74
I219
I455
I566
I204
I53
tp1666
a(I268
I99
I85
I232
I494
I604
I227
I56
tp1667
a(I264
I101
I84
I230
I551
I562
I217
I56
tp1668
a(I265
I93
I77
I208
I583
I544
I209
I55
tp1669
a(I278
I106
I74
I213
I582
I474
I202
I53
tp1670
a(I314
I123
I74
I213
I575
I436
I216
I63
tp1671
a(I334
I112
I58
I172
I500
I415
I224
I63
tp1672
a(I362
I110
I58
I154
I375
I406
I224
I61
tp1673
a(I342
I106
I61
I140
I369
I384
I226
I62
tp1674
a(I304
I90
I57
I128
I349
I376
I217
I59
tp1675
a(I255
I74
I71
I139
I366
I394
I240
I51
tp1676
a(I264
I82
I72
I179
I435
I365
I223
I49
tp1677
a(I305
I99
I68
I179
I467
I375
I221
I49
tp1678
a(I313
I108
I70
I182
I447
I394
I207
I47
tp1679
a(I312
I109
I69
I185
I469
I443
I217
I47
tp1680
a(I305
I106
I58
I176
I457
I441
I171
I45
tp1681
a(I271
I99
I73
I192
I400
I452
I188
I49
tp1682
a(I198
I96
I90
I222
I392
I488
I207
I63
tp1683
a(I217
I103
I100
I246
I377
I493
I232
I67
tp1684
a(I226
I104
I112
I287
I358
I467
I235
I72
tp1685
a(I256
I103
I117
I288
I353
I454
I226
I72
tp1686
a(I330
I111
I106
I262
I376
I389
I199
I69
tp1687
a(I324
I105
I106
I246
I371
I338
I203
I60
tp1688
a(I310
I95
I97
I228
I336
I335
I185
I64
tp1689
a(I312
I91
I96
I206
I358
I344
I168
I58
tp1690
a(I304
I102
I90
I204
I356
I313
I177
I57
tp1691
a(I226
I92
I93
I196
I353
I433
I179
I61
tp1692
a(I260
I88
I100
I208
I361
I468
I184
I64
tp1693
a(I248
I84
I109
I218
I407
I491
I183
I62
tp1694
a(I285
I96
I98
I193
I399
I482
I204
I73
tp1695
a(I268
I85
I96
I192
I417
I518
I208
I75
tp1696
a(I265
I82
I93
I190
I394
I444
I217
I75
tp1697
a(I233
I82
I79
I160
I400
I476
I204
I70
tp1698
a(I251
I88
I70
I127
I361
I470
I202
I66
tp1699
a(I208
I77
I71
I130
I339
I452
I201
I55
tp1700
a(I241
I79
I78
I135
I340
I462
I214
I52
tp1701
a(I253
I74
I74
I130
I333
I455
I205
I48
tp1702
a(I238
I73
I70
I144
I332
I435
I192
I47
tp1703
a(I303
I76
I75
I159
I396
I412
I193
I50
tp1704
a(I334
I102
I85
I174
I427
I458
I185
I53
tp1705
a(I325
I109
I87
I187
I420
I452
I172
I54
tp1706
a(I320
I115
I90
I188
I423
I457
I169
I53
tp1707
a(I322
I113
I84
I172
I407
I428
I166
I51
tp1708
a(I286
I113
I75
I167
I410
I475
I174
I46
tp1709
a(I250
I98
I66
I155
I440
I554
I169
I48
tp1710
a(I242
I88
I55
I138
I464
I623
I164
I49
tp1711
a(I284
I87
I55
I146
I487
I656
I202
I52
tp1712
a(I296
I90
I57
I141
I457
I654
I216
I50
tp1713
a(I298
I82
I68
I170
I464
I616
I207
I61
tp1714
a(I288
I73
I66
I171
I423
I524
I201
I58
tp1715
a(I314
I81
I91
I216
I403
I474
I227
I57
tp1716
a(I289
I84
I103
I222
I366
I459
I211
I60
tp1717
a(I288
I80
I105
I224
I436
I426
I204
I63
tp1718
a(I262
I87
I98
I194
I368
I493
I211
I57
tp1719
a(I278
I93
I105
I256
I430
I497
I233
I56
tp1720
a(I244
I103
I92
I239
I435
I439
I204
I52
tp1721
a(I231
I98
I78
I237
I452
I433
I185
I48
tp1722
a(I203
I96
I75
I241
I393
I435
I180
I49
tp1723
a(I173
I85
I72
I240
I408
I404
I210
I45
tp1724
a(I140
I75
I62
I163
I356
I397
I200
I48
tp1725
a(I186
I70
I61
I144
I376
I465
I217
I65
tp1726
a(I211
I91
I61
I142
I380
I480
I238
I64
tp1727
a(I220
I95
I59
I151
I455
I559
I246
I69
tp1728
a(I230
I97
I61
I150
I451
I513
I208
I69
tp1729
a(I266
I100
I61
I161
I466
I514
I195
I69
tp1730
a(I239
I85
I60
I184
I450
I466
I247
I64
tp1731
a(I223
I59
I61
I201
I550
I490
I242
I71
tp1732
a(I222
I53
I62
I193
I499
I410
I234
I68
tp1733
a(I281
I81
I61
I194
I506
I426
I240
I71
tp1734
a(I254
I83
I67
I189
I500
I436
I259
I71
tp1735
a(I238
I87
I65
I200
I521
I480
I233
I72
tp1736
a(I247
I97
I69
I182
I412
I427
I215
I68
tp1737
a(I251
I101
I71
I184
I417
I492
I242
I64
tp1738
a(I190
I88
I75
I185
I399
I547
I245
I64
tp1739
a(I199
I85
I69
I181
I365
I591
I227
I61
tp1740
a(I202
I82
I81
I170
I381
I547
I191
I54
tp1741
a(I177
I78
I88
I175
I416
I550
I197
I51
tp1742
a(I255
I93
I91
I184
I407
I500
I167
I58
tp1743
a(I268
I85
I87
I184
I405
I434
I173
I55
tp1744
a(I306
I88
I89
I193
I429
I345
I168
I56
tp1745
a(I316
I87
I81
I180
I417
I388
I173
I55
tp1746
a(I326
I82
I69
I175
I411
I378
I194
I60
tp1747
a(I308
I85
I74
I168
I412
I389
I198
I63
tp1748
a(I291
I89
I78
I175
I450
I411
I186
I60
tp1749
a(I240
I85
I78
I162
I482
I399
I184
I59
tp1750
a(I289
I88
I71
I154
I519
I418
I187
I62
tp1751
a(I282
I90
I75
I160
I499
I426
I179
I60
tp1752
a(I239
I75
I62
I148
I500
I414
I167
I51
tp1753
a(I237
I71
I54
I132
I453
I411
I173
I50
tp1754
a(I242
I68
I59
I142
I387
I454
I185
I55
tp1755
a(I175
I108
I84
I121
I301
I415
I168
I56
tp1756
a(I176
I109
I83
I130
I306
I443
I156
I50
tp1757
a(I176
I105
I83
I146
I378
I475
I158
I60
tp1758
a(I235
I108
I86
I151
I394
I504
I143
I61
tp1759
a(I238
I108
I84
I141
I439
I515
I142
I60
tp1760
a(I222
I66
I60
I177
I471
I501
I170
I54
tp1761
a(I235
I74
I53
I179
I541
I458
I172
I53
tp1762
a(I233
I73
I52
I172
I540
I521
I178
I47
tp1763
a(I213
I77
I51
I172
I536
I476
I191
I45
tp1764
a(I232
I91
I53
I176
I512
I472
I247
I46
tp1765
a(I232
I91
I61
I175
I505
I498
I233
I51
tp1766
a(I218
I90
I65
I173
I474
I515
I238
I56
tp1767
a(I229
I94
I69
I192
I420
I414
I237
I53
tp1768
a(I206
I87
I71
I189
I414
I478
I242
I53
tp1769
a(I176
I74
I67
I188
I397
I528
I181
I52
tp1770
a(I216
I83
I54
I167
I378
I507
I169
I46
tp1771
a(I215
I74
I48
I149
I386
I496
I166
I44
tp1772
a(I200
I71
I48
I141
I434
I505
I168
I45
tp1773
a(I193
I81
I54
I159
I443
I484
I165
I48
tp1774
a(I214
I102
I55
I166
I471
I406
I173
I46
tp1775
a(I245
I101
I57
I156
I452
I410
I190
I55
tp1776
a(I261
I104
I61
I155
I393
I424
I182
I53
tp1777
a(I266
I113
I61
I139
I356
I448
I175
I56
tp1778
a(I266
I108
I55
I140
I385
I405
I204
I56
tp1779
a(I288
I107
I53
I128
I356
I382
I190
I58
tp1780
a(I505
I149
I52
I133
I398
I402
I177
I48
tp1781
a(I541
I163
I46
I143
I417
I407
I185
I51
tp1782
a(I538
I158
I50
I160
I439
I375
I198
I50
tp1783
a(I547
I159
I55
I147
I408
I373
I155
I48
tp1784
a(I551
I159
I63
I216
I508
I388
I167
I47
tp1785
a(I332
I124
I71
I228
I498
I453
I178
I55
tp1786
a(I258
I100
I75
I229
I482
I438
I170
I50
tp1787
a(I268
I100
I86
I234
I469
I429
I200
I56
tp1788
a(I248
I101
I90
I245
I497
I429
I203
I64
tp1789
a(I199
I81
I101
I210
I418
I426
I200
I63
tp1790
a(I193
I64
I98
I231
I423
I345
I189
I57
tp1791
a(I224
I67
I98
I224
I415
I360
I207
I63
tp1792
a(I220
I62
I88
I207
I411
I347
I203
I59
tp1793
a(I282
I98
I89
I222
I415
I357
I214
I52
tp1794
aa(lp1795
(I273
I79
I62
I130
I329
I431
I139
I31
tp1796
a(I266
I82
I56
I145
I310
I466
I143
I38
tp1797
a(I270
I85
I64
I208
I419
I434
I164
I41
tp1798
a(I223
I76
I64
I222
I488
I429
I172
I45
tp1799
a(I261
I83
I62
I226
I492
I396
I170
I56
tp1800
a(I243
I82
I64
I231
I533
I360
I180
I58
tp1801
a(I242
I72
I62
I212
I535
I288
I179
I54
tp1802
a(I296
I83
I54
I159
I498
I253
I178
I53
tp1803
a(I308
I88
I53
I194
I530
I273
I164
I50
tp1804
a(I338
I84
I52
I204
I569
I242
I182
I39
tp1805
a(I375
I102
I51
I205
I528
I278
I172
I45
tp1806
a(I380
I110
I51
I212
I551
I274
I176
I48
tp1807
a(I330
I109
I59
I209
I568
I374
I196
I55
tp1808
a(I334
I112
I65
I172
I536
I424
I213
I54
tp1809
a(I267
I106
I64
I172
I551
I456
I192
I60
tp1810
a(I279
I105
I65
I173
I550
I459
I187
I54
tp1811
a(I279
I103
I65
I165
I526
I501
I180
I55
tp1812
a(I272
I98
I66
I183
I518
I439
I143
I48
tp1813
a(I267
I90
I59
I169
I441
I401
I112
I51
tp1814
a(I271
I94
I64
I161
I364
I394
I110
I44
tp1815
a(I201
I79
I62
I152
I368
I400
I117
I47
tp1816
a(I177
I69
I63
I146
I379
I356
I106
I43
tp1817
a(I182
I74
I48
I133
I436
I359
I103
I43
tp1818
a(I198
I90
I64
I136
I458
I408
I187
I41
tp1819
a(I206
I87
I61
I132
I458
I413
I193
I53
tp1820
a(I226
I93
I60
I149
I467
I414
I196
I55
tp1821
a(I248
I98
I58
I147
I455
I417
I196
I55
tp1822
a(I243
I91
I61
I143
I350
I414
I198
I56
tp1823
a(I302
I97
I61
I177
I344
I376
I145
I55
tp1824
a(I373
I119
I60
I175
I331
I368
I150
I40
tp1825
a(I371
I117
I60
I160
I287
I338
I146
I37
tp1826
a(I370
I130
I62
I166
I311
I406
I171
I42
tp1827
a(I397
I142
I70
I164
I333
I419
I194
I45
tp1828
a(I342
I134
I64
I125
I386
I417
I182
I48
tp1829
a(I251
I115
I64
I120
I382
I422
I218
I56
tp1830
a(I228
I110
I66
I139
I401
I416
I217
I61
tp1831
a(I246
I100
I66
I138
I373
I373
I202
I67
tp1832
a(I261
I82
I55
I165
I396
I369
I191
I77
tp1833
a(I268
I73
I50
I163
I325
I337
I189
I80
tp1834
a(I301
I96
I51
I165
I337
I302
I130
I79
tp1835
a(I321
I98
I55
I152
I319
I361
I162
I74
tp1836
a(I297
I90
I52
I169
I375
I364
I166
I68
tp1837
a(I283
I97
I53
I164
I409
I371
I161
I57
tp1838
a(I338
I115
I51
I182
I480
I410
I166
I59
tp1839
a(I318
I98
I47
I190
I500
I401
I165
I54
tp1840
a(I367
I101
I40
I201
I505
I379
I138
I56
tp1841
a(I434
I125
I43
I202
I474
I352
I139
I54
tp1842
a(I428
I120
I41
I191
I420
I381
I122
I53
tp1843
a(I386
I104
I45
I180
I346
I343
I128
I47
tp1844
a(I412
I114
I48
I170
I297
I342
I141
I49
tp1845
a(I353
I115
I52
I153
I301
I315
I130
I46
tp1846
a(I279
I90
I57
I130
I320
I321
I118
I47
tp1847
a(I261
I94
I65
I178
I478
I361
I133
I52
tp1848
a(I268
I96
I65
I173
I506
I392
I135
I49
tp1849
a(I264
I97
I71
I187
I555
I420
I128
I54
tp1850
a(I284
I94
I68
I190
I554
I417
I146
I58
tp1851
a(I289
I93
I61
I198
I550
I409
I144
I54
tp1852
a(I284
I94
I62
I151
I400
I329
I155
I53
tp1853
a(I289
I90
I71
I164
I365
I392
I159
I56
tp1854
a(I280
I83
I65
I144
I370
I412
I157
I53
tp1855
a(I286
I86
I66
I147
I383
I409
I164
I53
tp1856
a(I293
I96
I67
I130
I376
I401
I167
I53
tp1857
a(I309
I92
I61
I158
I463
I412
I149
I48
tp1858
a(I305
I110
I50
I145
I472
I328
I145
I42
tp1859
a(I299
I104
I51
I153
I445
I311
I174
I50
tp1860
a(I316
I106
I49
I166
I453
I350
I168
I54
tp1861
a(I292
I98
I49
I170
I461
I374
I165
I54
tp1862
a(I270
I97
I46
I135
I408
I391
I178
I57
tp1863
a(I247
I81
I49
I165
I471
I433
I184
I65
tp1864
a(I305
I107
I58
I210
I521
I422
I165
I59
tp1865
a(I265
I98
I64
I203
I502
I394
I165
I53
tp1866
a(I268
I99
I63
I201
I502
I387
I166
I55
tp1867
a(I276
I103
I68
I233
I551
I364
I161
I53
tp1868
a(I277
I97
I62
I218
I525
I317
I148
I41
tp1869
a(I218
I70
I59
I179
I467
I295
I142
I38
tp1870
a(I256
I78
I59
I173
I478
I328
I188
I44
tp1871
a(I382
I90
I65
I181
I475
I311
I202
I45
tp1872
a(I406
I101
I67
I150
I396
I327
I201
I51
tp1873
a(I406
I103
I69
I157
I375
I324
I201
I52
tp1874
a(I396
I108
I67
I155
I388
I319
I196
I52
tp1875
a(I408
I109
I67
I154
I364
I277
I138
I46
tp1876
a(I373
I111
I65
I153
I377
I282
I124
I43
tp1877
a(I353
I97
I59
I170
I418
I299
I124
I40
tp1878
a(I360
I96
I65
I180
I421
I333
I128
I44
tp1879
a(I384
I110
I61
I182
I393
I348
I156
I47
tp1880
a(I361
I105
I57
I179
I384
I364
I157
I50
tp1881
a(I305
I92
I55
I173
I360
I385
I165
I54
tp1882
a(I297
I96
I55
I140
I282
I393
I163
I57
tp1883
a(I308
I107
I72
I247
I461
I413
I176
I58
tp1884
a(I306
I92
I74
I259
I482
I414
I175
I60
tp1885
a(I363
I106
I75
I265
I499
I425
I180
I63
tp1886
a(I423
I117
I81
I274
I524
I407
I166
I60
tp1887
a(I418
I117
I87
I289
I544
I395
I167
I57
tp1888
a(I408
I108
I74
I204
I398
I345
I151
I68
tp1889
a(I377
I100
I77
I199
I426
I337
I134
I67
tp1890
a(I310
I83
I75
I197
I441
I307
I137
I61
tp1891
a(I185
I67
I72
I192
I423
I305
I148
I60
tp1892
a(I199
I70
I63
I167
I440
I328
I161
I60
tp1893
a(I241
I84
I64
I139
I421
I328
I168
I43
tp1894
a(I265
I91
I62
I120
I381
I329
I156
I41
tp1895
a(I256
I97
I66
I120
I369
I340
I169
I52
tp1896
a(I259
I98
I65
I116
I382
I354
I186
I53
tp1897
a(I247
I87
I68
I122
I337
I337
I171
I50
tp1898
a(I217
I78
I58
I139
I340
I334
I165
I50
tp1899
a(I173
I73
I59
I178
I383
I345
I179
I50
tp1900
a(I175
I68
I60
I196
I442
I374
I178
I42
tp1901
a(I195
I72
I70
I203
I427
I365
I160
I47
tp1902
a(I196
I75
I70
I203
I441
I364
I195
I54
tp1903
a(I177
I75
I77
I232
I457
I363
I197
I56
tp1904
a(I180
I71
I75
I210
I408
I349
I186
I55
tp1905
a(I215
I82
I71
I208
I363
I308
I183
I53
tp1906
a(I189
I76
I62
I222
I399
I340
I202
I51
tp1907
a(I286
I104
I63
I221
I392
I380
I174
I49
tp1908
a(I282
I105
I56
I182
I375
I430
I172
I51
tp1909
a(I303
I113
I53
I174
I377
I431
I175
I53
tp1910
a(I287
I118
I58
I160
I367
I453
I159
I56
tp1911
a(I299
I121
I57
I139
I345
I488
I141
I58
tp1912
a(I227
I101
I54
I144
I350
I444
I140
I55
tp1913
a(I230
I97
I58
I183
I489
I408
I152
I51
tp1914
a(I227
I93
I62
I191
I504
I414
I159
I53
tp1915
a(I243
I82
I57
I179
I484
I419
I164
I49
tp1916
a(I252
I80
I56
I178
I482
I383
I152
I47
tp1917
a(I253
I80
I59
I175
I467
I373
I145
I44
tp1918
a(I305
I91
I55
I131
I313
I359
I120
I42
tp1919
a(I311
I93
I53
I131
I334
I361
I110
I41
tp1920
a(I325
I93
I50
I132
I334
I343
I105
I41
tp1921
a(I319
I100
I49
I121
I347
I328
I101
I42
tp1922
a(I302
I98
I44
I121
I353
I333
I97
I41
tp1923
a(I342
I93
I42
I122
I374
I328
I105
I42
tp1924
a(I357
I98
I43
I118
I361
I363
I124
I45
tp1925
a(I329
I94
I44
I117
I357
I350
I122
I45
tp1926
a(I317
I90
I46
I117
I334
I324
I126
I40
tp1927
a(I339
I94
I47
I145
I356
I322
I123
I39
tp1928
a(I273
I99
I47
I159
I352
I385
I185
I40
tp1929
a(I229
I90
I48
I154
I340
I391
I186
I38
tp1930
a(I236
I93
I60
I175
I421
I381
I189
I47
tp1931
a(I277
I89
I59
I174
I417
I396
I190
I48
tp1932
a(I257
I82
I59
I152
I389
I384
I190
I48
tp1933
a(I231
I68
I60
I158
I365
I354
I127
I49
tp1934
a(I241
I61
I55
I163
I381
I317
I136
I47
tp1935
a(I251
I62
I47
I151
I290
I326
I130
I38
tp1936
a(I219
I57
I47
I167
I333
I321
I144
I40
tp1937
a(I214
I55
I47
I163
I379
I333
I145
I43
tp1938
a(I252
I76
I44
I140
I395
I329
I145
I43
tp1939
a(I251
I76
I45
I138
I379
I332
I123
I41
tp1940
a(I257
I69
I43
I131
I410
I350
I136
I43
tp1941
a(I257
I70
I41
I107
I365
I345
I127
I43
tp1942
a(I278
I81
I41
I105
I341
I357
I128
I42
tp1943
a(I424
I84
I44
I111
I328
I351
I138
I41
tp1944
a(I446
I100
I48
I107
I319
I335
I148
I45
tp1945
a(I436
I99
I46
I107
I315
I371
I157
I50
tp1946
a(I437
I99
I47
I107
I346
I433
I171
I49
tp1947
a(I463
I90
I50
I121
I369
I413
I177
I49
tp1948
a(I327
I70
I48
I122
I363
I422
I175
I47
tp1949
a(I355
I62
I52
I145
I391
I425
I182
I50
tp1950
a(I377
I81
I54
I158
I383
I383
I181
I47
tp1951
a(I371
I83
I53
I155
I356
I294
I160
I44
tp1952
a(I372
I90
I51
I149
I316
I309
I159
I44
tp1953
a(I363
I89
I51
I154
I349
I290
I150
I47
tp1954
a(I302
I82
I43
I130
I311
I265
I134
I40
tp1955
a(I265
I65
I39
I119
I301
I302
I112
I36
tp1956
a(I275
I67
I42
I129
I323
I300
I106
I34
tp1957
a(I308
I76
I42
I126
I311
I289
I99
I32
tp1958
a(I296
I78
I48
I161
I369
I304
I149
I35
tp1959
a(I407
I108
I50
I164
I378
I321
I167
I35
tp1960
a(I547
I134
I59
I166
I379
I388
I171
I36
tp1961
a(I578
I145
I58
I163
I374
I414
I186
I52
tp1962
a(I553
I139
I58
I169
I393
I458
I198
I55
tp1963
a(I552
I140
I53
I137
I337
I453
I168
I54
tp1964
a(I489
I127
I55
I147
I375
I447
I154
I59
tp1965
a(I330
I100
I56
I145
I408
I458
I147
I61
tp1966
a(I338
I108
I65
I145
I396
I460
I136
I50
tp1967
a(I310
I105
I68
I157
I423
I428
I128
I54
tp1968
a(I323
I104
I70
I146
I396
I406
I138
I52
tp1969
a(I318
I91
I68
I133
I351
I411
I123
I50
tp1970
a(I384
I113
I61
I132
I328
I313
I124
I45
tp1971
a(I354
I100
I54
I146
I373
I307
I132
I44
tp1972
a(I338
I101
I55
I127
I337
I314
I129
I37
tp1973
a(I375
I115
I49
I126
I330
I335
I136
I37
tp1974
a(I373
I118
I55
I135
I400
I439
I145
I46
tp1975
a(I298
I104
I62
I128
I403
I428
I143
I49
tp1976
a(I309
I91
I58
I108
I371
I433
I146
I49
tp1977
a(I326
I98
I56
I107
I373
I427
I138
I48
tp1978
a(I278
I85
I57
I108
I380
I431
I152
I49
tp1979
a(I316
I88
I55
I100
I298
I317
I147
I37
tp1980
a(I331
I90
I50
I116
I327
I381
I160
I35
tp1981
a(I282
I94
I52
I121
I319
I386
I158
I36
tp1982
a(I285
I87
I48
I125
I309
I378
I160
I33
tp1983
a(I279
I84
I54
I132
I304
I365
I134
I34
tp1984
a(I230
I81
I57
I147
I431
I368
I161
I36
tp1985
a(I209
I67
I56
I141
I394
I289
I183
I42
tp1986
a(I227
I71
I54
I142
I393
I258
I207
I46
tp1987
a(I205
I68
I57
I139
I395
I302
I208
I47
tp1988
a(I204
I70
I54
I135
I399
I321
I203
I47
tp1989
a(I237
I63
I45
I112
I299
I306
I212
I45
tp1990
a(I265
I92
I43
I113
I319
I358
I198
I44
tp1991
a(I277
I93
I45
I108
I314
I362
I164
I38
tp1992
a(I308
I96
I49
I105
I314
I319
I162
I37
tp1993
a(I462
I131
I55
I109
I317
I291
I172
I39
tp1994
a(I485
I144
I58
I114
I296
I302
I154
I43
tp1995
a(I483
I129
I57
I107
I276
I263
I147
I37
tp1996
a(I485
I140
I62
I120
I334
I303
I152
I42
tp1997
a(I476
I140
I57
I118
I329
I312
I148
I44
tp1998
a(I365
I116
I52
I118
I343
I323
I148
I43
tp1999
a(I342
I113
I55
I116
I351
I323
I129
I41
tp2000
a(I336
I121
I56
I114
I344
I319
I124
I46
tp2001
a(I347
I105
I55
I99
I308
I275
I134
I44
tp2002
a(I355
I117
I61
I101
I386
I284
I147
I55
tp2003
a(I358
I114
I58
I100
I445
I344
I142
I56
tp2004
a(I317
I104
I57
I94
I435
I366
I145
I55
tp2005
a(I315
I93
I63
I129
I455
I374
I147
I53
tp2006
a(I275
I91
I58
I131
I440
I388
I128
I53
tp2007
a(I257
I73
I53
I130
I376
I403
I119
I40
tp2008
a(I198
I63
I52
I124
I305
I455
I123
I41
tp2009
a(I206
I64
I52
I159
I437
I477
I119
I41
tp2010
a(I270
I76
I48
I150
I439
I496
I119
I43
tp2011
a(I287
I71
I55
I161
I449
I498
I129
I48
tp2012
a(I286
I72
I64
I175
I473
I484
I139
I51
tp2013
a(I322
I77
I62
I179
I454
I389
I137
I46
tp2014
a(I325
I81
I57
I155
I397
I357
I143
I46
tp2015
a(I269
I76
I55
I142
I374
I343
I147
I47
tp2016
a(I239
I76
I48
I122
I366
I345
I144
I43
tp2017
a(I227
I75
I37
I105
I374
I369
I136
I40
tp2018
a(I217
I74
I46
I117
I393
I407
I132
I44
tp2019
a(I278
I71
I49
I114
I341
I403
I126
I45
tp2020
a(I287
I71
I53
I116
I353
I406
I132
I42
tp2021
a(I324
I85
I52
I119
I344
I395
I125
I38
tp2022
a(I349
I86
I60
I119
I321
I417
I128
I45
tp2023
a(I338
I84
I54
I105
I310
I380
I132
I43
tp2024
a(I313
I84
I55
I102
I285
I381
I138
I45
tp2025
a(I307
I86
I52
I95
I254
I352
I147
I44
tp2026
a(I276
I71
I56
I95
I247
I377
I159
I45
tp2027
a(I268
I77
I51
I112
I275
I354
I148
I38
tp2028
a(I316
I87
I58
I112
I270
I362
I170
I38
tp2029
a(I299
I93
I58
I107
I327
I393
I179
I37
tp2030
a(I292
I88
I57
I109
I355
I398
I171
I50
tp2031
a(I295
I92
I53
I110
I366
I377
I164
I51
tp2032
a(I296
I96
I56
I102
I334
I351
I168
I50
tp2033
a(I300
I110
I61
I122
I392
I374
I142
I51
tp2034
a(I280
I102
I63
I136
I340
I339
I137
I51
tp2035
a(I307
I103
I61
I136
I336
I330
I118
I38
tp2036
a(I318
I111
I63
I136
I335
I345
I154
I44
tp2037
a(I305
I104
I58
I140
I388
I410
I156
I47
tp2038
a(I272
I83
I46
I135
I392
I430
I155
I51
tp2039
a(I276
I80
I38
I144
I470
I415
I167
I50
tp2040
a(I256
I94
I42
I147
I522
I411
I170
I51
tp2041
a(I230
I79
I43
I183
I566
I389
I144
I48
tp2042
a(I232
I81
I44
I172
I528
I332
I158
I49
tp2043
a(I190
I74
I51
I160
I476
I288
I163
I51
tp2044
a(I192
I74
I56
I145
I407
I370
I174
I54
tp2045
a(I168
I52
I55
I150
I332
I382
I173
I54
tp2046
a(I186
I49
I52
I99
I280
I386
I171
I54
tp2047
aa(lp2048
(I204
I63
I42
I110
I342
I284
I108
I40
tp2049
a(I281
I94
I42
I130
I330
I272
I125
I39
tp2050
a(I302
I100
I45
I121
I335
I363
I163
I43
tp2051
a(I310
I100
I49
I135
I371
I342
I159
I44
tp2052
a(I318
I104
I50
I148
I434
I347
I167
I43
tp2053
a(I299
I102
I56
I153
I447
I369
I169
I39
tp2054
a(I260
I82
I62
I141
I426
I366
I199
I45
tp2055
a(I264
I78
I63
I154
I392
I305
I173
I42
tp2056
a(I275
I80
I63
I143
I348
I314
I165
I42
tp2057
a(I267
I76
I66
I140
I335
I304
I162
I42
tp2058
a(I251
I73
I62
I138
I346
I317
I161
I41
tp2059
a(I245
I73
I58
I145
I342
I324
I107
I35
tp2060
a(I212
I73
I58
I128
I337
I321
I108
I36
tp2061
a(I187
I74
I57
I128
I345
I323
I121
I40
tp2062
a(I189
I74
I55
I130
I309
I328
I118
I43
tp2063
a(I234
I85
I55
I134
I328
I299
I111
I43
tp2064
a(I225
I78
I51
I115
I321
I322
I124
I41
tp2065
a(I229
I77
I50
I121
I338
I345
I148
I41
tp2066
a(I241
I79
I52
I130
I370
I366
I151
I40
tp2067
a(I275
I88
I48
I119
I350
I352
I160
I40
tp2068
a(I238
I73
I46
I125
I367
I372
I173
I52
tp2069
a(I243
I82
I50
I142
I370
I350
I162
I53
tp2070
a(I281
I100
I45
I149
I412
I308
I140
I54
tp2071
a(I278
I105
I42
I140
I368
I302
I154
I54
tp2072
a(I244
I96
I40
I147
I395
I310
I155
I51
tp2073
a(I258
I104
I49
I136
I366
I283
I148
I40
tp2074
a(I274
I108
I47
I117
I369
I299
I146
I50
tp2075
a(I249
I97
I54
I131
I410
I295
I154
I50
tp2076
a(I257
I90
I63
I141
I431
I262
I143
I51
tp2077
a(I292
I102
I72
I135
I413
I334
I168
I55
tp2078
a(I302
I96
I69
I133
I394
I334
I167
I57
tp2079
a(I262
I87
I76
I159
I387
I335
I164
I48
tp2080
a(I270
I92
I73
I150
I303
I335
I152
I43
tp2081
a(I282
I92
I67
I143
I285
I338
I138
I44
tp2082
a(I249
I78
I57
I143
I296
I309
I122
I39
tp2083
a(I225
I75
I54
I144
I308
I305
I118
I35
tp2084
a(I244
I86
I43
I124
I346
I285
I115
I34
tp2085
a(I219
I76
I40
I108
I339
I322
I118
I34
tp2086
a(I186
I75
I43
I108
I349
I328
I117
I31
tp2087
a(I177
I76
I51
I130
I346
I294
I99
I33
tp2088
a(I187
I90
I60
I127
I332
I328
I124
I42
tp2089
a(I169
I77
I64
I120
I275
I322
I125
I43
tp2090
a(I190
I73
I65
I126
I258
I269
I129
I43
tp2091
a(I198
I74
I66
I122
I288
I314
I143
I46
tp2092
a(I285
I89
I69
I112
I274
I314
I142
I45
tp2093
a(I275
I75
I68
I133
I338
I316
I135
I39
tp2094
a(I279
I79
I64
I140
I376
I339
I149
I40
tp2095
a(I266
I79
I66
I138
I368
I369
I154
I49
tp2096
a(I287
I86
I63
I151
I374
I341
I154
I45
tp2097
a(I238
I80
I62
I159
I397
I352
I143
I45
tp2098
a(I253
I78
I59
I153
I383
I315
I128
I43
tp2099
a(I267
I82
I64
I157
I368
I304
I119
I43
tp2100
a(I268
I84
I62
I153
I372
I261
I105
I33
tp2101
a(I243
I85
I64
I140
I336
I257
I112
I31
tp2102
a(I200
I76
I58
I126
I338
I279
I121
I30
tp2103
a(I213
I86
I55
I140
I392
I280
I135
I32
tp2104
a(I193
I82
I54
I145
I428
I314
I138
I45
tp2105
a(I215
I81
I55
I152
I475
I330
I158
I46
tp2106
a(I222
I67
I53
I153
I468
I339
I155
I47
tp2107
a(I230
I72
I51
I141
I447
I308
I151
I47
tp2108
a(I187
I60
I52
I114
I386
I364
I142
I46
tp2109
a(I172
I57
I47
I109
I379
I348
I145
I37
tp2110
a(I155
I58
I51
I98
I335
I375
I159
I35
tp2111
a(I173
I78
I50
I94
I343
I389
I146
I42
tp2112
a(I168
I76
I51
I102
I354
I406
I149
I45
tp2113
a(I187
I80
I50
I102
I351
I360
I154
I45
tp2114
a(I209
I78
I49
I79
I287
I351
I143
I42
tp2115
a(I225
I82
I46
I85
I260
I332
I127
I45
tp2116
a(I227
I72
I58
I154
I321
I311
I142
I43
tp2117
a(I229
I69
I59
I176
I369
I321
I143
I41
tp2118
a(I222
I74
I56
I182
I382
I344
I137
I45
tp2119
a(I258
I77
I62
I192
I420
I356
I155
I46
tp2120
a(I252
I74
I61
I190
I433
I341
I138
I46
tp2121
a(I229
I69
I51
I154
I411
I319
I135
I48
tp2122
a(I251
I78
I48
I135
I422
I278
I132
I46
tp2123
a(I257
I80
I51
I137
I425
I319
I167
I41
tp2124
a(I269
I88
I48
I124
I393
I295
I156
I55
tp2125
a(I257
I88
I46
I128
I387
I316
I161
I56
tp2126
a(I266
I88
I41
I115
I374
I318
I146
I51
tp2127
a(I241
I80
I43
I107
I329
I318
I154
I52
tp2128
a(I275
I78
I38
I107
I316
I275
I134
I52
tp2129
a(I223
I66
I41
I139
I411
I295
I139
I43
tp2130
a(I247
I67
I41
I147
I446
I367
I133
I39
tp2131
a(I261
I68
I42
I150
I431
I386
I136
I39
tp2132
a(I302
I87
I44
I161
I432
I388
I129
I39
tp2133
a(I270
I84
I53
I176
I411
I360
I118
I41
tp2134
a(I283
I83
I51
I154
I329
I356
I123
I37
tp2135
a(I263
I90
I54
I147
I313
I289
I127
I38
tp2136
a(I240
I87
I58
I162
I380
I336
I149
I46
tp2137
a(I183
I67
I57
I158
I372
I359
I148
I45
tp2138
a(I176
I62
I55
I142
I384
I374
I152
I45
tp2139
a(I155
I62
I63
I164
I408
I384
I150
I45
tp2140
a(I150
I51
I71
I167
I378
I428
I151
I53
tp2141
a(I175
I60
I68
I154
I334
I407
I130
I52
tp2142
a(I193
I66
I68
I146
I322
I396
I134
I52
tp2143
a(I195
I66
I65
I134
I306
I405
I126
I52
tp2144
a(I241
I79
I59
I117
I308
I388
I130
I49
tp2145
a(I240
I84
I49
I117
I325
I331
I120
I39
tp2146
a(I235
I81
I48
I111
I312
I308
I154
I31
tp2147
a(I236
I76
I46
I113
I323
I284
I151
I36
tp2148
a(I235
I88
I47
I114
I334
I262
I153
I39
tp2149
a(I195
I74
I47
I109
I319
I253
I144
I39
tp2150
a(I242
I68
I46
I101
I300
I264
I147
I42
tp2151
a(I232
I67
I48
I115
I322
I276
I112
I40
tp2152
a(I221
I71
I48
I111
I323
I314
I141
I35
tp2153
a(I222
I57
I47
I107
I315
I348
I142
I33
tp2154
a(I234
I64
I40
I104
I282
I366
I142
I36
tp2155
a(I191
I66
I43
I125
I316
I353
I146
I37
tp2156
a(I227
I66
I39
I109
I273
I335
I144
I39
tp2157
a(I235
I62
I47
I106
I244
I325
I111
I38
tp2158
a(I248
I79
I55
I166
I293
I423
I174
I43
tp2159
a(I234
I79
I59
I168
I292
I410
I177
I42
tp2160
a(I283
I73
I63
I171
I277
I438
I173
I38
tp2161
a(I255
I74
I64
I184
I323
I432
I173
I39
tp2162
a(I249
I75
I61
I188
I347
I420
I186
I40
tp2163
a(I243
I58
I54
I143
I302
I324
I148
I39
tp2164
a(I240
I52
I58
I163
I339
I327
I142
I36
tp2165
a(I204
I64
I54
I151
I344
I345
I148
I39
tp2166
a(I212
I65
I56
I135
I307
I400
I146
I37
tp2167
a(I264
I79
I52
I134
I314
I405
I137
I36
tp2168
a(I257
I77
I55
I144
I363
I400
I119
I33
tp2169
a(I255
I79
I56
I129
I355
I419
I137
I50
tp2170
a(I229
I76
I61
I124
I384
I380
I140
I50
tp2171
a(I251
I77
I59
I128
I385
I317
I139
I51
tp2172
a(I206
I74
I59
I127
I358
I307
I148
I53
tp2173
a(I199
I74
I55
I120
I332
I260
I142
I53
tp2174
a(I191
I68
I46
I135
I363
I215
I123
I39
tp2175
a(I231
I67
I36
I138
I304
I189
I117
I37
tp2176
a(I238
I83
I40
I143
I310
I219
I123
I37
tp2177
a(I233
I72
I43
I139
I317
I248
I116
I34
tp2178
a(I233
I74
I44
I142
I342
I266
I111
I35
tp2179
a(I234
I89
I57
I144
I318
I274
I164
I37
tp2180
a(I201
I86
I58
I152
I342
I299
I176
I38
tp2181
a(I195
I76
I55
I149
I345
I277
I185
I36
tp2182
a(I216
I81
I56
I153
I348
I298
I176
I38
tp2183
a(I223
I85
I57
I144
I302
I302
I184
I51
tp2184
a(I253
I77
I47
I136
I289
I341
I172
I57
tp2185
a(I258
I82
I48
I117
I295
I340
I163
I56
tp2186
a(I230
I74
I49
I112
I288
I357
I160
I57
tp2187
a(I205
I69
I45
I109
I286
I337
I162
I56
tp2188
a(I196
I63
I47
I117
I312
I340
I168
I46
tp2189
a(I157
I56
I46
I102
I303
I295
I144
I40
tp2190
a(I136
I52
I47
I119
I282
I304
I166
I45
tp2191
a(I135
I51
I48
I138
I349
I290
I157
I51
tp2192
a(I217
I73
I49
I137
I346
I287
I163
I56
tp2193
a(I221
I72
I47
I129
I325
I267
I172
I53
tp2194
a(I217
I74
I51
I124
I303
I295
I179
I53
tp2195
a(I219
I77
I47
I134
I363
I267
I157
I48
tp2196
a(I218
I81
I43
I119
I312
I284
I172
I45
tp2197
a(I144
I59
I46
I123
I322
I264
I165
I40
tp2198
a(I174
I63
I47
I125
I339
I262
I138
I39
tp2199
a(I174
I61
I41
I119
I339
I273
I127
I38
tp2200
a(I180
I56
I44
I97
I261
I271
I123
I37
tp2201
a(I193
I53
I53
I108
I259
I273
I119
I31
tp2202
a(I180
I51
I51
I105
I239
I321
I132
I32
tp2203
a(I155
I47
I49
I112
I239
I330
I137
I43
tp2204
a(I158
I52
I54
I134
I277
I310
I143
I43
tp2205
a(I155
I63
I61
I148
I281
I301
I146
I45
tp2206
a(I137
I62
I59
I137
I266
I281
I137
I46
tp2207
a(I141
I62
I58
I135
I256
I229
I123
I48
tp2208
a(I266
I90
I57
I123
I231
I223
I114
I41
tp2209
a(I276
I86
I54
I112
I199
I231
I97
I39
tp2210
a(I291
I80
I47
I90
I219
I241
I97
I37
tp2211
a(I310
I79
I53
I109
I252
I253
I95
I39
tp2212
a(I353
I108
I60
I130
I314
I247
I103
I50
tp2213
a(I271
I86
I65
I141
I326
I282
I111
I48
tp2214
a(I273
I87
I64
I139
I331
I322
I122
I51
tp2215
a(I270
I85
I64
I152
I360
I320
I137
I52
tp2216
a(I303
I107
I54
I141
I372
I330
I140
I54
tp2217
a(I259
I81
I48
I126
I326
I356
I139
I43
tp2218
a(I259
I79
I41
I118
I326
I347
I140
I44
tp2219
a(I245
I83
I43
I128
I368
I307
I125
I41
tp2220
a(I240
I88
I38
I117
I346
I301
I112
I41
tp2221
a(I193
I74
I44
I124
I342
I310
I102
I36
tp2222
a(I201
I72
I46
I127
I357
I348
I111
I39
tp2223
a(I209
I71
I47
I135
I360
I339
I102
I38
tp2224
a(I252
I79
I45
I122
I313
I347
I105
I39
tp2225
a(I287
I77
I46
I125
I300
I370
I107
I37
tp2226
a(I286
I69
I42
I114
I283
I414
I111
I35
tp2227
a(I294
I81
I44
I111
I288
I380
I131
I47
tp2228
a(I282
I85
I54
I112
I279
I388
I135
I50
tp2229
a(I250
I75
I55
I109
I275
I451
I137
I50
tp2230
a(I230
I86
I61
I97
I351
I473
I134
I51
tp2231
a(I232
I87
I61
I96
I360
I441
I146
I51
tp2232
a(I232
I92
I59
I100
I382
I459
I129
I40
tp2233
a(I259
I90
I56
I90
I387
I454
I130
I41
tp2234
a(I310
I100
I58
I87
I373
I380
I123
I40
tp2235
a(I353
I103
I62
I106
I313
I325
I118
I41
tp2236
a(I348
I101
I62
I137
I343
I318
I120
I53
tp2237
a(I363
I101
I63
I137
I308
I258
I117
I49
tp2238
a(I357
I103
I58
I137
I292
I249
I148
I48
tp2239
a(I311
I96
I55
I136
I314
I276
I152
I48
tp2240
a(I258
I88
I48
I144
I342
I280
I157
I45
tp2241
a(I253
I86
I50
I131
I327
I267
I144
I30
tp2242
a(I212
I69
I51
I137
I341
I320
I150
I31
tp2243
a(I219
I76
I52
I136
I365
I333
I119
I35
tp2244
a(I260
I74
I67
I143
I418
I325
I117
I39
tp2245
a(I299
I81
I66
I133
I433
I328
I140
I43
tp2246
a(I298
I86
I75
I130
I437
I398
I175
I55
tp2247
a(I298
I85
I76
I120
I429
I374
I173
I56
tp2248
a(I306
I80
I80
I133
I412
I375
I195
I55
tp2249
a(I313
I89
I73
I158
I412
I393
I197
I53
tp2250
a(I280
I81
I74
I163
I472
I436
I192
I50
tp2251
a(I279
I81
I80
I198
I491
I404
I186
I51
tp2252
a(I307
I92
I82
I205
I496
I425
I181
I56
tp2253
a(I311
I92
I78
I196
I501
I417
I159
I57
tp2254
a(I277
I85
I73
I177
I461
I393
I168
I56
tp2255
a(I269
I100
I73
I172
I353
I401
I159
I56
tp2256
a(I263
I103
I72
I145
I283
I374
I128
I43
tp2257
a(I224
I97
I71
I138
I287
I347
I131
I37
tp2258
a(I184
I91
I70
I147
I290
I352
I169
I42
tp2259
a(I209
I96
I71
I142
I293
I349
I158
I44
tp2260
a(I173
I73
I67
I135
I306
I279
I154
I44
tp2261
a(I185
I62
I49
I138
I321
I349
I181
I44
tp2262
a(I194
I72
I45
I135
I309
I358
I179
I41
tp2263
a(I194
I83
I45
I128
I315
I347
I156
I32
tp2264
a(I160
I80
I50
I124
I304
I352
I159
I34
tp2265
a(I175
I82
I53
I131
I325
I354
I162
I41
tp2266
a(I196
I82
I50
I100
I323
I276
I142
I44
tp2267
a(I212
I80
I53
I94
I311
I275
I141
I46
tp2268
a(I228
I83
I53
I94
I305
I313
I131
I47
tp2269
a(I234
I81
I49
I106
I331
I319
I132
I49
tp2270
a(I252
I93
I49
I96
I295
I320
I145
I45
tp2271
a(I227
I94
I50
I90
I286
I307
I136
I43
tp2272
a(I208
I87
I47
I102
I306
I347
I152
I42
tp2273
a(I238
I92
I52
I103
I318
I345
I183
I45
tp2274
a(I244
I93
I52
I93
I287
I395
I189
I39
tp2275
a(I221
I79
I48
I108
I294
I396
I176
I38
tp2276
a(I245
I83
I48
I108
I276
I407
I172
I36
tp2277
a(I255
I87
I56
I134
I301
I360
I170
I43
tp2278
a(I264
I76
I57
I143
I288
I344
I132
I44
tp2279
a(I261
I72
I58
I149
I300
I285
I136
I47
tp2280
a(I264
I72
I62
I142
I314
I285
I135
I48
tp2281
a(I248
I65
I67
I158
I316
I277
I138
I49
tp2282
a(I235
I61
I61
I133
I302
I277
I127
I44
tp2283
a(I184
I67
I54
I125
I296
I277
I127
I41
tp2284
a(I160
I66
I59
I121
I293
I286
I104
I38
tp2285
a(I159
I71
I56
I119
I269
I287
I115
I34
tp2286
a(I182
I74
I49
I102
I316
I316
I111
I35
tp2287
a(I201
I75
I48
I104
I294
I323
I131
I34
tp2288
a(I200
I67
I49
I99
I300
I339
I127
I33
tp2289
a(I202
I70
I45
I100
I277
I311
I133
I36
tp2290
a(I234
I67
I46
I103
I293
I310
I121
I39
tp2291
a(I211
I72
I48
I107
I260
I280
I137
I37
tp2292
a(I199
I68
I51
I108
I272
I282
I111
I46
tp2293
a(I201
I72
I54
I113
I265
I305
I152
I48
tp2294
a(I215
I71
I52
I127
I324
I324
I162
I48
tp2295
a(I174
I71
I51
I126
I315
I316
I169
I48
tp2296
a(I201
I64
I48
I124
I297
I320
I154
I47
tp2297
a(I192
I66
I46
I122
I281
I309
I164
I39
tp2298
a(I186
I66
I40
I118
I293
I285
I157
I52
tp2299
a(I171
I68
I37
I103
I243
I278
I144
I53
tp2300
aasS'slap-left'
p2301
(lp2302
(lp2303
(I17
I20
I19
I29
I22
I26
I81
I24
tp2304
a(I18
I20
I16
I27
I22
I26
I85
I25
tp2305
a(I18
I21
I16
I30
I23
I29
I88
I27
tp2306
a(I18
I21
I17
I32
I25
I35
I82
I26
tp2307
a(I18
I23
I21
I34
I32
I35
I75
I23
tp2308
a(I17
I21
I22
I29
I34
I34
I71
I23
tp2309
a(I18
I21
I27
I37
I37
I35
I61
I23
tp2310
a(I18
I19
I28
I47
I42
I38
I58
I21
tp2311
a(I18
I22
I29
I47
I43
I39
I59
I25
tp2312
a(I18
I22
I29
I47
I39
I40
I62
I25
tp2313
a(I19
I24
I32
I49
I39
I41
I77
I25
tp2314
a(I17
I24
I30
I52
I45
I41
I80
I24
tp2315
a(I17
I23
I33
I74
I47
I36
I72
I24
tp2316
a(I17
I25
I44
I88
I70
I33
I75
I19
tp2317
a(I19
I26
I45
I90
I103
I36
I71
I21
tp2318
a(I19
I26
I44
I91
I123
I49
I53
I21
tp2319
a(I19
I27
I48
I138
I195
I61
I49
I22
tp2320
a(I19
I27
I47
I140
I212
I75
I70
I24
tp2321
a(I19
I25
I40
I141
I219
I84
I105
I28
tp2322
a(I21
I29
I44
I146
I235
I99
I113
I28
tp2323
a(I20
I31
I46
I155
I252
I107
I114
I27
tp2324
a(I21
I34
I52
I124
I260
I118
I120
I28
tp2325
a(I23
I37
I68
I183
I270
I121
I116
I27
tp2326
a(I24
I39
I74
I195
I271
I127
I91
I25
tp2327
a(I27
I38
I75
I211
I286
I125
I82
I25
tp2328
a(I29
I39
I79
I216
I291
I124
I80
I27
tp2329
a(I28
I36
I75
I214
I265
I113
I73
I25
tp2330
a(I27
I34
I60
I160
I249
I126
I66
I24
tp2331
a(I26
I32
I60
I141
I245
I118
I53
I22
tp2332
a(I25
I40
I67
I121
I265
I123
I51
I20
tp2333
a(I28
I51
I77
I108
I250
I120
I49
I20
tp2334
a(I36
I67
I102
I113
I310
I124
I48
I23
tp2335
a(I36
I68
I108
I105
I323
I104
I39
I25
tp2336
a(I37
I69
I106
I104
I330
I100
I32
I24
tp2337
a(I39
I76
I117
I90
I280
I81
I28
I27
tp2338
a(I38
I75
I119
I107
I266
I72
I30
I24
tp2339
a(I34
I65
I102
I120
I213
I59
I38
I23
tp2340
a(I36
I69
I113
I126
I196
I68
I71
I23
tp2341
a(I40
I72
I129
I139
I206
I72
I82
I26
tp2342
a(I35
I59
I115
I157
I315
I76
I82
I23
tp2343
a(I33
I51
I104
I152
I349
I85
I80
I25
tp2344
a(I30
I47
I102
I147
I388
I95
I77
I24
tp2345
a(I27
I38
I85
I154
I424
I101
I50
I23
tp2346
a(I20
I32
I71
I151
I433
I111
I33
I21
tp2347
a(I22
I34
I75
I136
I365
I112
I36
I21
tp2348
a(I24
I39
I85
I149
I356
I191
I52
I23
tp2349
a(I23
I38
I84
I146
I333
I191
I52
I23
tp2350
a(I24
I40
I86
I141
I297
I210
I53
I23
tp2351
a(I23
I37
I74
I137
I279
I233
I58
I25
tp2352
a(I25
I41
I77
I146
I285
I243
I60
I29
tp2353
a(I23
I34
I65
I123
I290
I290
I61
I30
tp2354
a(I26
I36
I70
I139
I256
I310
I66
I33
tp2355
a(I26
I35
I70
I153
I243
I304
I64
I32
tp2356
a(I30
I37
I71
I155
I279
I349
I63
I30
tp2357
a(I28
I31
I62
I151
I287
I353
I61
I28
tp2358
a(I30
I38
I81
I170
I288
I285
I54
I28
tp2359
a(I29
I40
I80
I146
I273
I276
I47
I26
tp2360
a(I31
I45
I79
I125
I278
I279
I50
I25
tp2361
a(I28
I46
I79
I125
I256
I204
I52
I25
tp2362
a(I30
I46
I78
I126
I261
I195
I59
I26
tp2363
a(I30
I51
I67
I114
I307
I237
I74
I30
tp2364
a(I40
I70
I63
I117
I306
I226
I90
I35
tp2365
a(I42
I74
I63
I124
I310
I214
I97
I38
tp2366
a(I43
I73
I66
I126
I310
I212
I101
I40
tp2367
a(I43
I78
I76
I118
I296
I209
I103
I40
tp2368
a(I48
I92
I77
I131
I309
I154
I97
I37
tp2369
a(I41
I85
I79
I134
I319
I166
I86
I33
tp2370
a(I40
I84
I82
I133
I310
I161
I78
I34
tp2371
a(I38
I85
I77
I141
I327
I161
I70
I31
tp2372
a(I40
I86
I68
I149
I352
I163
I70
I33
tp2373
a(I34
I69
I64
I141
I333
I206
I84
I39
tp2374
a(I36
I66
I77
I190
I416
I289
I105
I48
tp2375
a(I42
I75
I85
I191
I435
I300
I112
I49
tp2376
a(I46
I75
I89
I193
I415
I316
I122
I50
tp2377
a(I55
I109
I101
I187
I410
I313
I118
I53
tp2378
a(I62
I123
I119
I252
I486
I291
I114
I54
tp2379
a(I61
I121
I115
I234
I452
I198
I94
I47
tp2380
a(I60
I118
I104
I237
I443
I217
I88
I47
tp2381
a(I60
I120
I103
I226
I433
I198
I76
I46
tp2382
a(I49
I108
I88
I232
I445
I201
I76
I41
tp2383
a(I256
I99
I61
I152
I352
I186
I102
I186
tp2384
a(I309
I97
I55
I121
I324
I180
I129
I248
tp2385
a(I338
I98
I63
I106
I315
I139
I130
I267
tp2386
a(I340
I106
I75
I138
I371
I120
I131
I270
tp2387
a(I353
I95
I108
I319
I648
I232
I152
I280
tp2388
a(I262
I88
I110
I331
I672
I241
I130
I222
tp2389
a(I209
I90
I108
I334
I667
I243
I105
I155
tp2390
a(I158
I83
I104
I334
I668
I242
I100
I121
tp2391
a(I153
I68
I93
I325
I646
I246
I103
I115
tp2392
a(I129
I55
I55
I163
I383
I164
I103
I96
tp2393
a(I115
I66
I45
I137
I306
I190
I142
I98
tp2394
a(I139
I73
I42
I130
I289
I257
I157
I111
tp2395
a(I147
I72
I46
I131
I292
I260
I165
I114
tp2396
a(I914
I173
I45
I96
I263
I198
I91
I105
tp2397
a(I1051
I191
I51
I102
I272
I208
I83
I123
tp2398
a(I974
I185
I48
I110
I286
I153
I70
I117
tp2399
a(I905
I178
I51
I148
I302
I169
I123
I110
tp2400
a(I959
I191
I50
I161
I307
I182
I124
I119
tp2401
a(I853
I156
I45
I156
I266
I181
I138
I106
tp2402
a(I755
I124
I39
I153
I248
I227
I153
I90
tp2403
a(I851
I174
I43
I145
I238
I226
I159
I122
tp2404
a(I915
I201
I43
I96
I233
I218
I144
I133
tp2405
a(I802
I184
I43
I60
I220
I216
I155
I123
tp2406
a(I856
I191
I47
I67
I240
I210
I142
I134
tp2407
a(I810
I208
I48
I82
I294
I166
I125
I136
tp2408
a(I808
I200
I51
I101
I348
I218
I125
I126
tp2409
a(I848
I205
I54
I111
I355
I214
I117
I132
tp2410
a(I886
I209
I55
I120
I357
I217
I128
I135
tp2411
a(I811
I202
I50
I124
I376
I214
I131
I122
tp2412
a(I959
I213
I48
I130
I377
I203
I131
I145
tp2413
a(I922
I192
I44
I117
I323
I163
I155
I139
tp2414
a(I870
I165
I36
I113
I301
I159
I151
I126
tp2415
a(I980
I191
I37
I126
I359
I180
I150
I145
tp2416
a(I1014
I206
I40
I128
I332
I182
I151
I151
tp2417
a(I1068
I206
I41
I123
I309
I184
I160
I148
tp2418
a(I1158
I219
I43
I125
I334
I165
I143
I170
tp2419
a(I1180
I231
I48
I129
I330
I171
I166
I183
tp2420
a(I1124
I221
I47
I151
I335
I140
I152
I177
tp2421
a(I1191
I225
I50
I175
I407
I175
I162
I184
tp2422
a(I1074
I218
I56
I177
I401
I182
I167
I180
tp2423
a(I1089
I233
I53
I178
I393
I258
I159
I191
tp2424
a(I1158
I227
I48
I174
I435
I253
I127
I188
tp2425
a(I1164
I226
I48
I139
I380
I261
I125
I186
tp2426
a(I1148
I236
I45
I97
I342
I306
I115
I192
tp2427
a(I1135
I235
I42
I113
I376
I311
I110
I192
tp2428
a(I1101
I241
I41
I114
I364
I259
I111
I185
tp2429
a(I983
I236
I43
I119
I357
I261
I121
I180
tp2430
a(I1069
I262
I47
I131
I367
I246
I119
I199
tp2431
a(I1165
I279
I48
I147
I371
I162
I156
I199
tp2432
a(I1136
I265
I53
I131
I345
I168
I158
I190
tp2433
a(I1039
I231
I52
I132
I351
I154
I159
I160
tp2434
a(I1086
I233
I51
I149
I382
I220
I156
I159
tp2435
a(I1030
I207
I45
I155
I404
I222
I162
I143
tp2436
a(I926
I217
I43
I142
I371
I228
I142
I132
tp2437
a(I942
I232
I30
I138
I356
I217
I134
I137
tp2438
a(I1008
I237
I29
I133
I353
I219
I142
I143
tp2439
a(I1015
I236
I30
I109
I298
I157
I152
I141
tp2440
a(I1036
I237
I32
I92
I279
I152
I148
I146
tp2441
a(I1077
I204
I31
I95
I301
I135
I131
I153
tp2442
a(I1069
I218
I29
I87
I294
I113
I137
I155
tp2443
a(I1114
I236
I31
I85
I289
I192
I132
I171
tp2444
a(I1113
I263
I40
I116
I282
I184
I112
I176
tp2445
a(I1042
I257
I55
I147
I295
I196
I109
I161
tp2446
a(I1048
I257
I58
I152
I272
I202
I106
I157
tp2447
a(I990
I228
I61
I155
I269
I203
I94
I146
tp2448
a(I934
I230
I70
I177
I294
I149
I94
I134
tp2449
a(I926
I199
I68
I157
I275
I156
I109
I121
tp2450
a(I1033
I225
I61
I134
I260
I163
I130
I149
tp2451
a(I894
I209
I59
I121
I246
I195
I136
I136
tp2452
a(I972
I218
I57
I130
I323
I205
I133
I137
tp2453
a(I1071
I258
I50
I118
I328
I196
I134
I176
tp2454
a(I1074
I286
I49
I119
I332
I195
I122
I195
tp2455
a(I987
I286
I47
I113
I332
I225
I103
I189
tp2456
a(I1084
I317
I46
I129
I358
I251
I94
I202
tp2457
a(I1079
I318
I53
I159
I374
I257
I105
I208
tp2458
a(I996
I277
I50
I151
I364
I255
I106
I178
tp2459
a(I1080
I269
I46
I148
I353
I259
I112
I174
tp2460
a(I1154
I249
I42
I153
I351
I221
I104
I168
tp2461
a(I1132
I212
I49
I150
I335
I149
I100
I168
tp2462
a(I1151
I220
I48
I116
I250
I127
I98
I168
tp2463
a(I1189
I255
I52
I124
I251
I139
I104
I168
tp2464
a(I1102
I237
I55
I127
I264
I130
I104
I151
tp2465
a(I986
I230
I55
I127
I249
I127
I122
I141
tp2466
a(I1108
I280
I53
I120
I245
I123
I123
I164
tp2467
a(I1061
I282
I51
I111
I247
I203
I122
I163
tp2468
a(I1000
I259
I48
I96
I229
I264
I128
I165
tp2469
a(I1071
I270
I45
I91
I242
I277
I123
I181
tp2470
a(I1071
I267
I45
I80
I229
I283
I105
I180
tp2471
a(I882
I215
I43
I91
I302
I334
I124
I151
tp2472
a(I850
I196
I44
I89
I302
I300
I130
I146
tp2473
a(I782
I159
I44
I95
I314
I259
I118
I128
tp2474
a(I670
I137
I49
I122
I351
I251
I124
I109
tp2475
a(I808
I164
I49
I118
I357
I250
I127
I112
tp2476
a(I853
I221
I49
I109
I300
I182
I108
I131
tp2477
a(I883
I236
I44
I121
I305
I176
I110
I140
tp2478
a(I995
I269
I44
I118
I289
I187
I105
I162
tp2479
a(I1051
I282
I46
I102
I256
I177
I97
I175
tp2480
a(I1064
I282
I55
I127
I273
I175
I101
I184
tp2481
a(I1079
I251
I53
I131
I301
I183
I112
I179
tp2482
a(I1126
I250
I55
I120
I286
I172
I100
I179
tp2483
a(I1147
I235
I53
I118
I287
I124
I90
I176
tp2484
a(I1095
I226
I49
I137
I280
I139
I133
I178
tp2485
a(I1076
I238
I42
I118
I252
I133
I126
I190
tp2486
a(I1030
I229
I44
I108
I207
I118
I116
I178
tp2487
a(I1004
I217
I45
I110
I226
I118
I116
I184
tp2488
a(I997
I238
I48
I113
I244
I118
I117
I191
tp2489
a(I1020
I236
I49
I93
I213
I99
I67
I183
tp2490
a(I975
I213
I47
I107
I220
I161
I71
I164
tp2491
a(I1105
I242
I48
I128
I313
I173
I84
I179
tp2492
a(I1109
I257
I46
I129
I306
I182
I96
I167
tp2493
a(I1022
I229
I44
I128
I310
I188
I94
I153
tp2494
a(I975
I218
I44
I116
I306
I197
I95
I147
tp2495
a(I978
I223
I43
I102
I301
I213
I95
I142
tp2496
a(I905
I210
I42
I82
I206
I233
I122
I137
tp2497
a(I910
I198
I53
I127
I339
I239
I138
I147
tp2498
a(I941
I188
I51
I133
I346
I239
I147
I136
tp2499
a(I1000
I202
I49
I131
I351
I230
I145
I142
tp2500
a(I996
I206
I51
I135
I365
I174
I143
I153
tp2501
a(I926
I181
I49
I132
I368
I251
I119
I138
tp2502
a(I886
I176
I47
I112
I265
I244
I107
I126
tp2503
a(I922
I237
I47
I108
I243
I246
I103
I168
tp2504
a(I864
I235
I49
I109
I235
I249
I105
I159
tp2505
a(I812
I221
I46
I101
I216
I262
I116
I143
tp2506
a(I833
I224
I45
I110
I216
I221
I119
I148
tp2507
a(I944
I260
I33
I81
I183
I217
I108
I173
tp2508
a(I864
I206
I34
I100
I259
I212
I102
I134
tp2509
a(I856
I246
I43
I111
I270
I214
I108
I177
tp2510
a(I947
I272
I44
I120
I313
I199
I100
I189
tp2511
a(I957
I275
I50
I121
I339
I207
I94
I189
tp2512
a(I962
I259
I50
I124
I353
I206
I90
I177
tp2513
a(I1062
I274
I54
I116
I321
I203
I90
I187
tp2514
a(I1165
I256
I47
I118
I345
I204
I99
I165
tp2515
a(I1141
I238
I47
I115
I318
I325
I114
I158
tp2516
a(I1198
I265
I43
I106
I286
I283
I112
I180
tp2517
a(I1097
I244
I45
I113
I305
I289
I127
I168
tp2518
a(I994
I222
I39
I100
I292
I292
I126
I157
tp2519
a(I920
I216
I39
I91
I273
I350
I128
I158
tp2520
a(I892
I212
I37
I96
I282
I262
I113
I165
tp2521
a(I839
I170
I38
I99
I280
I262
I111
I147
tp2522
a(I820
I166
I35
I90
I268
I270
I99
I145
tp2523
a(I834
I186
I37
I92
I262
I303
I105
I154
tp2524
a(I847
I176
I36
I85
I243
I247
I85
I152
tp2525
a(I856
I172
I37
I74
I216
I239
I90
I147
tp2526
a(I911
I171
I38
I82
I235
I267
I94
I156
tp2527
a(I953
I172
I40
I87
I232
I263
I95
I157
tp2528
a(I934
I160
I41
I88
I216
I224
I97
I147
tp2529
a(I901
I142
I44
I107
I247
I232
I101
I135
tp2530
a(I848
I134
I47
I110
I246
I259
I106
I123
tp2531
a(I711
I122
I47
I101
I234
I236
I101
I94
tp2532
a(I742
I151
I44
I98
I245
I228
I93
I109
tp2533
a(I854
I172
I42
I92
I255
I252
I90
I142
tp2534
a(I810
I169
I37
I74
I225
I273
I95
I134
tp2535
a(I917
I192
I34
I70
I234
I249
I94
I155
tp2536
a(I944
I191
I36
I80
I248
I243
I92
I160
tp2537
a(I871
I167
I39
I76
I213
I241
I93
I147
tp2538
a(I815
I155
I43
I100
I257
I255
I95
I125
tp2539
a(I834
I162
I46
I107
I269
I232
I90
I129
tp2540
a(I710
I130
I49
I114
I276
I220
I79
I109
tp2541
a(I687
I131
I46
I105
I246
I210
I82
I106
tp2542
a(I937
I180
I45
I106
I263
I259
I80
I134
tp2543
a(I893
I172
I40
I90
I208
I223
I74
I133
tp2544
a(I878
I170
I34
I82
I205
I199
I71
I135
tp2545
a(I958
I180
I29
I75
I242
I194
I75
I136
tp2546
a(I990
I191
I29
I76
I239
I193
I76
I137
tp2547
a(I907
I163
I27
I71
I215
I113
I78
I126
tp2548
a(I930
I156
I28
I67
I219
I192
I93
I119
tp2549
a(I957
I160
I32
I67
I257
I193
I108
I119
tp2550
a(I890
I152
I30
I76
I276
I199
I109
I116
tp2551
a(I915
I141
I31
I79
I298
I200
I119
I114
tp2552
a(I946
I143
I35
I79
I297
I200
I118
I121
tp2553
a(I903
I141
I46
I87
I293
I199
I121
I119
tp2554
a(I951
I141
I48
I98
I305
I214
I111
I117
tp2555
a(I1003
I143
I50
I87
I243
I214
I121
I123
tp2556
a(I920
I136
I49
I103
I275
I219
I111
I121
tp2557
a(I771
I113
I50
I109
I285
I231
I116
I98
tp2558
a(I818
I146
I39
I101
I295
I230
I107
I102
tp2559
a(I808
I157
I35
I90
I247
I216
I99
I104
tp2560
a(I774
I161
I38
I105
I264
I216
I95
I96
tp2561
a(I779
I161
I39
I95
I271
I232
I101
I92
tp2562
a(I760
I161
I41
I90
I266
I256
I106
I96
tp2563
a(I702
I132
I47
I98
I264
I206
I100
I91
tp2564
a(I670
I134
I47
I98
I275
I202
I104
I90
tp2565
a(I703
I127
I45
I88
I271
I201
I95
I89
tp2566
a(I738
I130
I47
I94
I228
I179
I93
I91
tp2567
a(I807
I135
I43
I99
I250
I170
I95
I91
tp2568
a(I828
I146
I41
I91
I243
I199
I95
I96
tp2569
a(I786
I134
I45
I88
I238
I206
I97
I90
tp2570
a(I803
I134
I43
I107
I272
I210
I94
I98
tp2571
a(I823
I132
I43
I98
I266
I300
I105
I98
tp2572
a(I748
I121
I46
I106
I285
I299
I95
I91
tp2573
a(I803
I125
I42
I111
I311
I286
I104
I91
tp2574
a(I898
I128
I39
I109
I297
I289
I113
I119
tp2575
a(I901
I129
I38
I85
I262
I290
I118
I128
tp2576
a(I911
I136
I36
I80
I249
I196
I104
I140
tp2577
a(I946
I146
I33
I69
I252
I166
I100
I147
tp2578
a(I925
I140
I33
I71
I231
I215
I91
I147
tp2579
a(I866
I145
I30
I71
I230
I229
I87
I124
tp2580
a(I777
I144
I30
I73
I230
I221
I84
I105
tp2581
a(I702
I131
I31
I81
I279
I222
I90
I93
tp2582
a(I854
I159
I28
I78
I248
I225
I103
I104
tp2583
a(I837
I162
I37
I79
I251
I181
I109
I108
tp2584
a(I773
I148
I40
I83
I264
I181
I103
I109
tp2585
a(I779
I153
I41
I84
I262
I207
I109
I113
tp2586
a(I818
I159
I41
I76
I224
I203
I107
I112
tp2587
a(I652
I131
I47
I84
I241
I241
I98
I100
tp2588
a(I616
I116
I42
I78
I233
I231
I93
I93
tp2589
a(I735
I135
I41
I75
I220
I205
I86
I102
tp2590
a(I769
I124
I42
I72
I229
I178
I74
I108
tp2591
a(I845
I137
I46
I84
I247
I199
I93
I111
tp2592
a(I935
I160
I48
I85
I245
I246
I107
I128
tp2593
a(I1025
I188
I47
I82
I255
I243
I105
I136
tp2594
a(I963
I179
I47
I85
I257
I246
I106
I130
tp2595
a(I1018
I192
I45
I84
I247
I251
I112
I130
tp2596
a(I979
I185
I41
I76
I227
I324
I128
I129
tp2597
a(I857
I162
I36
I76
I235
I260
I122
I103
tp2598
a(I833
I140
I41
I80
I230
I300
I135
I104
tp2599
a(I891
I137
I39
I81
I254
I312
I134
I111
tp2600
a(I811
I119
I40
I83
I261
I313
I132
I104
tp2601
a(I874
I161
I40
I84
I299
I233
I113
I127
tp2602
a(I889
I165
I40
I74
I275
I276
I137
I132
tp2603
a(I836
I158
I34
I81
I274
I231
I125
I126
tp2604
a(I825
I162
I36
I80
I253
I217
I128
I121
tp2605
a(I798
I165
I38
I82
I244
I210
I124
I117
tp2606
a(I718
I119
I39
I79
I186
I195
I121
I87
tp2607
a(I757
I126
I40
I76
I169
I187
I86
I89
tp2608
a(I723
I124
I40
I97
I253
I198
I92
I80
tp2609
a(I671
I114
I40
I109
I280
I207
I93
I76
tp2610
a(I817
I156
I37
I107
I278
I212
I95
I105
tp2611
a(I821
I169
I35
I111
I288
I213
I82
I112
tp2612
a(I801
I162
I30
I120
I315
I159
I86
I125
tp2613
a(I890
I168
I32
I94
I243
I199
I86
I136
tp2614
a(I959
I183
I33
I87
I222
I207
I97
I146
tp2615
a(I892
I167
I40
I91
I223
I200
I100
I135
tp2616
a(I856
I153
I40
I87
I211
I203
I100
I126
tp2617
a(I884
I150
I41
I92
I211
I218
I96
I115
tp2618
a(I859
I159
I43
I103
I238
I189
I92
I110
tp2619
a(I773
I142
I42
I96
I229
I178
I88
I99
tp2620
a(I823
I136
I39
I95
I234
I186
I87
I97
tp2621
a(I802
I140
I37
I93
I232
I181
I88
I97
tp2622
a(I783
I143
I37
I77
I203
I166
I84
I108
tp2623
a(I702
I123
I33
I79
I202
I146
I73
I100
tp2624
a(I696
I122
I35
I78
I210
I178
I77
I97
tp2625
a(I616
I108
I34
I73
I196
I173
I75
I96
tp2626
a(I591
I99
I34
I75
I208
I176
I73
I95
tp2627
a(I596
I99
I35
I74
I212
I163
I80
I83
tp2628
a(I721
I114
I34
I54
I174
I165
I85
I92
tp2629
a(I690
I109
I29
I51
I164
I112
I69
I88
tp2630
a(I659
I105
I28
I88
I325
I259
I79
I83
tp2631
a(I712
I112
I30
I93
I332
I268
I82
I85
tp2632
a(I684
I122
I30
I91
I329
I269
I78
I84
tp2633
a(I549
I112
I32
I94
I344
I270
I76
I70
tp2634
a(I567
I111
I33
I94
I348
I275
I73
I74
tp2635
a(I647
I116
I36
I71
I222
I252
I92
I78
tp2636
a(I696
I121
I38
I85
I265
I242
I94
I82
tp2637
a(I811
I111
I39
I95
I296
I254
I104
I88
tp2638
a(I877
I109
I41
I92
I287
I254
I103
I97
tp2639
a(I907
I117
I43
I92
I282
I256
I118
I98
tp2640
a(I838
I111
I46
I93
I274
I193
I124
I96
tp2641
a(I761
I100
I43
I71
I213
I205
I126
I92
tp2642
a(I619
I89
I44
I65
I192
I198
I117
I77
tp2643
a(I539
I96
I41
I81
I217
I273
I123
I70
tp2644
a(I589
I114
I42
I85
I222
I267
I119
I77
tp2645
a(I710
I125
I40
I81
I224
I248
I113
I87
tp2646
a(I773
I130
I40
I88
I233
I246
I111
I90
tp2647
a(I884
I146
I39
I93
I229
I239
I107
I105
tp2648
a(I924
I152
I39
I93
I242
I223
I104
I109
tp2649
a(I970
I158
I37
I95
I235
I221
I102
I110
tp2650
a(I921
I179
I33
I90
I228
I210
I84
I115
tp2651
a(I943
I203
I36
I85
I215
I222
I95
I123
tp2652
aa(lp2653
(I856
I149
I36
I133
I197
I259
I137
I97
tp2654
a(I742
I141
I32
I133
I197
I221
I133
I84
tp2655
a(I761
I141
I27
I128
I189
I175
I101
I85
tp2656
a(I737
I171
I38
I169
I210
I162
I99
I94
tp2657
a(I715
I185
I45
I173
I271
I173
I88
I96
tp2658
a(I627
I169
I47
I181
I293
I166
I94
I85
tp2659
a(I716
I177
I65
I211
I309
I161
I85
I96
tp2660
a(I720
I180
I67
I208
I315
I284
I98
I98
tp2661
a(I662
I146
I64
I184
I284
I292
I114
I85
tp2662
a(I593
I114
I61
I192
I241
I286
I117
I72
tp2663
a(I672
I120
I60
I181
I213
I303
I110
I79
tp2664
a(I643
I108
I47
I160
I185
I302
I108
I71
tp2665
a(I633
I118
I45
I176
I174
I195
I94
I76
tp2666
a(I682
I127
I45
I169
I190
I197
I107
I83
tp2667
a(I668
I127
I42
I147
I184
I190
I101
I81
tp2668
a(I599
I125
I43
I150
I231
I162
I103
I78
tp2669
a(I529
I117
I42
I130
I236
I166
I101
I74
tp2670
a(I492
I96
I38
I109
I236
I158
I103
I63
tp2671
a(I561
I97
I37
I112
I218
I128
I64
I63
tp2672
a(I671
I126
I37
I158
I203
I112
I68
I78
tp2673
a(I721
I135
I39
I183
I164
I144
I90
I90
tp2674
a(I882
I158
I33
I203
I167
I133
I94
I100
tp2675
a(I923
I166
I35
I218
I202
I148
I110
I105
tp2676
a(I905
I173
I41
I238
I263
I203
I125
I109
tp2677
a(I918
I157
I45
I229
I339
I225
I126
I113
tp2678
a(I897
I155
I48
I209
I341
I207
I109
I104
tp2679
a(I813
I135
I50
I210
I340
I218
I125
I97
tp2680
a(I859
I153
I55
I210
I363
I299
I120
I99
tp2681
a(I810
I138
I51
I182
I322
I274
I106
I88
tp2682
a(I729
I141
I49
I160
I256
I269
I102
I74
tp2683
a(I771
I144
I42
I161
I250
I276
I105
I81
tp2684
a(I806
I165
I44
I147
I254
I268
I81
I97
tp2685
a(I752
I163
I45
I145
I285
I189
I63
I94
tp2686
a(I861
I178
I46
I151
I292
I180
I80
I107
tp2687
a(I959
I185
I48
I153
I288
I178
I79
I117
tp2688
a(I1028
I192
I54
I178
I302
I160
I75
I121
tp2689
a(I964
I175
I54
I180
I320
I160
I84
I107
tp2690
a(I984
I168
I49
I169
I236
I127
I85
I113
tp2691
a(I947
I155
I49
I184
I230
I144
I71
I102
tp2692
a(I912
I148
I46
I183
I210
I127
I68
I91
tp2693
a(I821
I133
I40
I187
I194
I127
I91
I88
tp2694
a(I813
I127
I39
I213
I187
I141
I93
I88
tp2695
a(I754
I109
I46
I219
I263
I150
I100
I75
tp2696
a(I741
I108
I55
I206
I293
I156
I103
I85
tp2697
a(I626
I92
I57
I220
I305
I158
I102
I80
tp2698
a(I551
I78
I55
I193
I310
I161
I82
I67
tp2699
a(I593
I94
I57
I149
I322
I160
I74
I71
tp2700
a(I628
I98
I54
I141
I295
I168
I71
I75
tp2701
a(I526
I87
I45
I186
I268
I149
I70
I62
tp2702
a(I549
I83
I41
I175
I257
I146
I77
I65
tp2703
a(I691
I112
I44
I171
I297
I148
I84
I79
tp2704
a(I667
I113
I41
I170
I274
I142
I84
I85
tp2705
a(I617
I105
I38
I180
I255
I172
I89
I84
tp2706
a(I676
I113
I35
I140
I259
I175
I89
I86
tp2707
a(I702
I128
I37
I132
I265
I177
I95
I85
tp2708
a(I633
I121
I40
I143
I258
I195
I92
I83
tp2709
a(I692
I127
I46
I166
I245
I198
I99
I78
tp2710
a(I757
I134
I47
I160
I244
I162
I92
I77
tp2711
a(I859
I147
I48
I157
I259
I168
I93
I87
tp2712
a(I816
I138
I50
I166
I262
I163
I87
I91
tp2713
a(I822
I127
I55
I174
I207
I142
I86
I86
tp2714
a(I806
I119
I54
I174
I207
I131
I87
I93
tp2715
a(I801
I125
I52
I171
I260
I131
I87
I94
tp2716
a(I701
I111
I52
I184
I282
I137
I87
I87
tp2717
a(I694
I107
I52
I198
I286
I139
I84
I83
tp2718
a(I660
I105
I44
I183
I300
I145
I86
I81
tp2719
a(I705
I130
I38
I161
I294
I140
I80
I79
tp2720
a(I669
I119
I42
I151
I234
I248
I124
I74
tp2721
a(I614
I115
I41
I124
I182
I355
I141
I82
tp2722
a(I618
I119
I37
I101
I168
I372
I151
I82
tp2723
a(I572
I119
I39
I98
I165
I397
I155
I82
tp2724
a(I431
I79
I41
I110
I225
I409
I157
I71
tp2725
a(I373
I78
I38
I108
I227
I364
I129
I69
tp2726
a(I412
I79
I41
I123
I254
I268
I107
I59
tp2727
a(I478
I97
I40
I152
I313
I257
I99
I76
tp2728
a(I550
I105
I41
I163
I309
I231
I96
I75
tp2729
a(I577
I116
I42
I157
I270
I210
I89
I83
tp2730
a(I615
I119
I45
I158
I265
I201
I82
I85
tp2731
a(I606
I117
I40
I160
I237
I180
I84
I83
tp2732
a(I630
I121
I41
I129
I182
I225
I77
I79
tp2733
a(I599
I117
I37
I122
I195
I202
I71
I81
tp2734
a(I545
I103
I32
I134
I193
I207
I68
I71
tp2735
a(I518
I99
I27
I153
I204
I200
I78
I72
tp2736
a(I483
I96
I31
I141
I198
I196
I77
I68
tp2737
a(I425
I73
I30
I139
I172
I124
I80
I55
tp2738
a(I496
I92
I32
I134
I146
I127
I75
I64
tp2739
a(I589
I108
I32
I141
I177
I123
I81
I68
tp2740
a(I578
I104
I36
I125
I182
I133
I92
I69
tp2741
a(I597
I111
I40
I132
I202
I202
I104
I70
tp2742
a(I592
I111
I40
I138
I197
I207
I101
I77
tp2743
a(I531
I98
I39
I155
I198
I212
I108
I65
tp2744
a(I470
I87
I41
I141
I172
I221
I106
I63
tp2745
a(I486
I90
I39
I139
I193
I332
I135
I61
tp2746
a(I462
I81
I37
I136
I170
I309
I130
I60
tp2747
a(I456
I81
I39
I123
I165
I317
I136
I51
tp2748
a(I481
I83
I43
I110
I169
I324
I135
I57
tp2749
a(I535
I85
I40
I104
I180
I323
I138
I63
tp2750
a(I549
I86
I40
I107
I152
I208
I98
I62
tp2751
a(I597
I97
I38
I109
I166
I192
I94
I69
tp2752
a(I590
I101
I41
I115
I167
I172
I91
I76
tp2753
a(I642
I104
I37
I123
I176
I146
I83
I72
tp2754
a(I562
I97
I37
I126
I162
I133
I77
I63
tp2755
a(I529
I93
I37
I116
I168
I134
I66
I61
tp2756
a(I479
I82
I42
I115
I173
I151
I89
I55
tp2757
a(I460
I81
I37
I119
I174
I148
I87
I65
tp2758
a(I448
I97
I36
I101
I162
I150
I85
I74
tp2759
a(I612
I156
I35
I98
I168
I146
I93
I102
tp2760
a(I655
I165
I42
I134
I178
I145
I94
I105
tp2761
a(I638
I165
I44
I125
I219
I123
I68
I103
tp2762
a(I738
I176
I46
I132
I228
I122
I69
I98
tp2763
a(I659
I160
I45
I151
I219
I140
I74
I89
tp2764
a(I512
I102
I48
I173
I221
I155
I66
I56
tp2765
a(I530
I100
I43
I157
I198
I139
I72
I63
tp2766
a(I662
I121
I35
I160
I136
I154
I79
I72
tp2767
a(I561
I103
I33
I156
I150
I159
I77
I67
tp2768
a(I557
I101
I35
I144
I164
I147
I76
I69
tp2769
a(I598
I110
I36
I118
I169
I130
I75
I75
tp2770
a(I550
I98
I37
I110
I173
I139
I77
I68
tp2771
a(I460
I91
I39
I114
I178
I127
I89
I78
tp2772
a(I456
I94
I42
I127
I161
I119
I97
I76
tp2773
a(I452
I93
I41
I134
I204
I138
I101
I72
tp2774
a(I429
I86
I41
I143
I232
I155
I107
I70
tp2775
a(I421
I89
I42
I143
I229
I149
I103
I67
tp2776
a(I461
I83
I40
I141
I232
I143
I100
I55
tp2777
a(I453
I77
I40
I126
I228
I140
I88
I57
tp2778
a(I465
I76
I41
I140
I194
I122
I88
I62
tp2779
a(I531
I88
I39
I147
I150
I105
I83
I64
tp2780
a(I535
I89
I38
I149
I148
I106
I81
I64
tp2781
a(I428
I74
I36
I146
I131
I120
I64
I55
tp2782
a(I423
I79
I33
I137
I126
I117
I61
I53
tp2783
a(I436
I85
I32
I161
I143
I125
I57
I50
tp2784
a(I332
I74
I32
I165
I158
I120
I56
I45
tp2785
a(I359
I82
I31
I171
I190
I145
I59
I48
tp2786
a(I416
I92
I33
I187
I206
I142
I61
I52
tp2787
a(I399
I83
I34
I196
I218
I148
I64
I53
tp2788
a(I376
I78
I36
I157
I202
I140
I63
I49
tp2789
a(I399
I76
I38
I143
I209
I160
I72
I60
tp2790
a(I460
I75
I39
I136
I190
I141
I70
I58
tp2791
a(I413
I64
I40
I108
I193
I138
I74
I55
tp2792
a(I441
I68
I44
I98
I202
I136
I76
I52
tp2793
a(I464
I68
I45
I122
I228
I137
I74
I63
tp2794
a(I482
I79
I44
I124
I221
I117
I65
I63
tp2795
a(I468
I91
I42
I129
I263
I138
I66
I65
tp2796
a(I488
I96
I40
I142
I269
I142
I72
I67
tp2797
a(I495
I100
I37
I140
I251
I140
I71
I70
tp2798
a(I532
I114
I32
I120
I224
I135
I73
I67
tp2799
a(I495
I108
I33
I112
I222
I142
I76
I55
tp2800
a(I429
I89
I32
I115
I199
I137
I81
I51
tp2801
a(I409
I83
I35
I122
I179
I144
I72
I49
tp2802
a(I409
I84
I35
I125
I179
I142
I68
I47
tp2803
a(I318
I62
I33
I132
I175
I147
I64
I39
tp2804
a(I317
I55
I29
I131
I166
I144
I61
I38
tp2805
a(I370
I65
I32
I120
I112
I136
I49
I51
tp2806
a(I434
I78
I31
I95
I107
I128
I53
I58
tp2807
a(I414
I78
I28
I111
I107
I130
I51
I57
tp2808
a(I431
I82
I32
I108
I118
I132
I54
I57
tp2809
a(I417
I80
I35
I107
I123
I124
I57
I59
tp2810
a(I411
I75
I37
I140
I181
I116
I59
I51
tp2811
a(I548
I101
I37
I165
I196
I109
I55
I56
tp2812
a(I538
I97
I38
I161
I200
I112
I55
I55
tp2813
a(I533
I94
I37
I155
I192
I121
I58
I63
tp2814
a(I559
I97
I36
I160
I188
I127
I57
I62
tp2815
a(I562
I97
I35
I131
I138
I119
I54
I62
tp2816
a(I375
I58
I33
I101
I123
I122
I52
I53
tp2817
a(I364
I53
I33
I101
I127
I116
I53
I58
tp2818
a(I400
I71
I30
I97
I129
I133
I57
I56
tp2819
a(I399
I72
I28
I90
I128
I139
I63
I54
tp2820
a(I361
I73
I25
I91
I129
I144
I69
I58
tp2821
a(I342
I70
I30
I91
I116
I144
I70
I55
tp2822
a(I430
I88
I31
I75
I107
I147
I69
I55
tp2823
a(I410
I77
I33
I70
I102
I124
I62
I55
tp2824
a(I381
I75
I34
I78
I134
I121
I61
I55
tp2825
a(I355
I71
I33
I87
I135
I116
I61
I50
tp2826
a(I367
I74
I32
I109
I143
I113
I58
I48
tp2827
a(I267
I52
I32
I122
I144
I104
I61
I44
tp2828
a(I258
I52
I32
I127
I150
I95
I59
I42
tp2829
a(I323
I67
I31
I121
I119
I92
I51
I45
tp2830
a(I350
I73
I35
I119
I113
I101
I53
I46
tp2831
a(I343
I72
I35
I122
I104
I117
I53
I51
tp2832
a(I337
I73
I32
I124
I102
I122
I53
I50
tp2833
a(I443
I89
I32
I121
I124
I129
I54
I55
tp2834
a(I405
I79
I33
I123
I137
I127
I58
I54
tp2835
a(I383
I72
I33
I127
I151
I138
I57
I54
tp2836
a(I434
I78
I33
I108
I145
I127
I61
I53
tp2837
a(I548
I89
I34
I94
I142
I153
I64
I57
tp2838
a(I479
I76
I34
I92
I120
I145
I67
I54
tp2839
a(I499
I80
I35
I89
I105
I154
I66
I55
tp2840
a(I527
I82
I36
I91
I86
I154
I62
I58
tp2841
a(I500
I82
I38
I99
I89
I156
I58
I58
tp2842
a(I379
I68
I40
I96
I83
I133
I58
I55
tp2843
a(I345
I65
I42
I100
I92
I145
I55
I47
tp2844
a(I302
I61
I41
I103
I86
I138
I59
I46
tp2845
a(I300
I65
I37
I91
I81
I123
I60
I45
tp2846
a(I273
I63
I40
I77
I82
I134
I69
I42
tp2847
a(I278
I63
I41
I106
I90
I141
I67
I41
tp2848
a(I284
I62
I40
I125
I107
I149
I69
I50
tp2849
a(I305
I63
I39
I128
I117
I156
I63
I54
tp2850
a(I287
I62
I38
I133
I117
I160
I65
I54
tp2851
a(I324
I69
I33
I149
I130
I173
I70
I65
tp2852
a(I311
I67
I28
I133
I127
I177
I74
I67
tp2853
a(I334
I67
I27
I151
I111
I159
I76
I62
tp2854
a(I399
I86
I33
I153
I108
I149
I90
I66
tp2855
a(I382
I83
I33
I160
I110
I141
I98
I62
tp2856
a(I385
I74
I32
I147
I95
I133
I89
I53
tp2857
a(I420
I84
I35
I144
I100
I120
I87
I56
tp2858
a(I404
I87
I34
I116
I95
I133
I88
I54
tp2859
a(I330
I68
I31
I132
I98
I131
I85
I48
tp2860
a(I386
I74
I35
I133
I106
I137
I75
I52
tp2861
a(I352
I75
I36
I131
I107
I118
I76
I49
tp2862
a(I351
I73
I38
I149
I118
I147
I76
I47
tp2863
a(I467
I90
I42
I159
I127
I152
I77
I56
tp2864
a(I500
I93
I42
I177
I146
I185
I70
I56
tp2865
a(I486
I95
I41
I171
I150
I190
I78
I57
tp2866
a(I492
I94
I41
I175
I154
I192
I77
I58
tp2867
a(I521
I106
I38
I188
I175
I168
I75
I63
tp2868
a(I410
I84
I34
I179
I177
I160
I96
I57
tp2869
a(I375
I80
I33
I152
I163
I124
I94
I58
tp2870
a(I383
I86
I30
I152
I163
I141
I87
I62
tp2871
a(I409
I93
I28
I152
I161
I135
I84
I62
tp2872
a(I338
I76
I36
I119
I136
I145
I89
I55
tp2873
a(I351
I82
I37
I141
I125
I152
I73
I54
tp2874
a(I369
I91
I35
I134
I121
I154
I77
I60
tp2875
a(I351
I85
I37
I132
I107
I125
I78
I57
tp2876
a(I325
I79
I40
I128
I105
I134
I81
I55
tp2877
a(I354
I77
I33
I134
I92
I130
I74
I56
tp2878
a(I362
I82
I34
I102
I88
I115
I59
I58
tp2879
a(I331
I70
I37
I105
I81
I127
I57
I54
tp2880
a(I334
I67
I35
I101
I89
I132
I56
I52
tp2881
a(I331
I66
I33
I123
I89
I121
I51
I51
tp2882
a(I336
I69
I34
I118
I91
I116
I57
I50
tp2883
a(I318
I57
I35
I121
I89
I113
I61
I50
tp2884
a(I349
I63
I36
I119
I91
I92
I60
I48
tp2885
a(I333
I60
I36
I120
I84
I110
I61
I46
tp2886
a(I444
I78
I34
I96
I79
I122
I66
I56
tp2887
a(I426
I78
I33
I104
I75
I120
I60
I55
tp2888
a(I438
I80
I31
I103
I87
I147
I61
I52
tp2889
a(I423
I77
I30
I93
I89
I160
I65
I50
tp2890
a(I436
I88
I32
I89
I88
I151
I62
I53
tp2891
a(I325
I75
I34
I94
I87
I148
I57
I48
tp2892
a(I310
I71
I36
I83
I96
I150
I60
I49
tp2893
a(I311
I73
I35
I77
I88
I125
I55
I51
tp2894
a(I321
I80
I32
I81
I82
I108
I49
I53
tp2895
a(I290
I66
I31
I86
I88
I105
I56
I50
tp2896
a(I289
I66
I34
I139
I107
I107
I57
I46
tp2897
a(I338
I71
I34
I142
I103
I116
I58
I45
tp2898
a(I312
I64
I35
I145
I104
I126
I60
I43
tp2899
a(I324
I67
I38
I150
I108
I134
I68
I44
tp2900
a(I336
I72
I39
I149
I107
I146
I64
I46
tp2901
a(I419
I87
I35
I107
I94
I141
I63
I53
tp2902
a(I376
I82
I37
I102
I90
I137
I60
I53
tp2903
a(I446
I95
I39
I102
I86
I129
I57
I51
tp2904
a(I424
I86
I35
I114
I87
I120
I45
I54
tp2905
a(I433
I84
I34
I125
I84
I121
I47
I54
tp2906
a(I361
I70
I33
I122
I84
I124
I50
I49
tp2907
a(I404
I75
I29
I118
I82
I125
I50
I50
tp2908
aa(lp2909
(I282
I66
I36
I84
I88
I126
I55
I41
tp2910
a(I219
I56
I36
I88
I97
I136
I55
I33
tp2911
a(I394
I80
I39
I88
I100
I144
I59
I47
tp2912
a(I411
I74
I37
I102
I102
I144
I63
I47
tp2913
a(I410
I74
I33
I100
I89
I122
I61
I45
tp2914
a(I427
I72
I32
I102
I94
I124
I60
I48
tp2915
a(I434
I75
I33
I102
I90
I106
I60
I51
tp2916
a(I300
I51
I35
I101
I87
I100
I61
I39
tp2917
a(I265
I48
I41
I91
I99
I124
I64
I40
tp2918
a(I295
I52
I44
I98
I97
I122
I60
I41
tp2919
a(I281
I51
I49
I99
I92
I125
I61
I35
tp2920
a(I338
I56
I51
I100
I99
I142
I64
I38
tp2921
a(I311
I56
I50
I105
I101
I143
I63
I39
tp2922
a(I323
I65
I45
I111
I91
I126
I58
I39
tp2923
a(I288
I58
I43
I111
I92
I121
I57
I37
tp2924
a(I296
I60
I37
I112
I98
I114
I55
I49
tp2925
a(I372
I82
I34
I110
I90
I112
I54
I55
tp2926
a(I388
I82
I31
I115
I87
I114
I50
I54
tp2927
a(I404
I77
I29
I108
I87
I113
I50
I54
tp2928
a(I410
I80
I35
I90
I86
I119
I56
I57
tp2929
a(I436
I91
I30
I83
I81
I120
I57
I50
tp2930
a(I347
I72
I30
I80
I79
I113
I58
I41
tp2931
a(I359
I75
I30
I72
I80
I117
I62
I45
tp2932
a(I323
I73
I31
I77
I80
I112
I61
I53
tp2933
a(I412
I87
I28
I99
I80
I101
I54
I58
tp2934
a(I403
I79
I32
I97
I81
I107
I52
I62
tp2935
a(I385
I73
I33
I117
I85
I103
I47
I65
tp2936
a(I370
I69
I35
I120
I90
I106
I50
I65
tp2937
a(I399
I74
I36
I120
I87
I113
I53
I58
tp2938
a(I330
I59
I36
I107
I82
I118
I55
I54
tp2939
a(I320
I60
I31
I108
I79
I124
I59
I50
tp2940
a(I350
I66
I32
I99
I78
I133
I62
I51
tp2941
a(I369
I74
I29
I89
I68
I125
I59
I46
tp2942
a(I377
I75
I34
I82
I71
I126
I60
I46
tp2943
a(I354
I72
I31
I80
I80
I141
I63
I45
tp2944
a(I331
I67
I32
I91
I81
I139
I63
I45
tp2945
a(I301
I63
I32
I84
I82
I136
I65
I44
tp2946
a(I306
I61
I33
I87
I81
I130
I65
I48
tp2947
a(I253
I51
I29
I85
I77
I132
I61
I47
tp2948
a(I289
I63
I31
I82
I73
I119
I56
I45
tp2949
a(I313
I67
I34
I66
I74
I112
I59
I46
tp2950
a(I352
I70
I32
I67
I82
I113
I56
I44
tp2951
a(I322
I64
I32
I75
I86
I116
I59
I40
tp2952
a(I337
I66
I33
I85
I88
I109
I59
I44
tp2953
a(I326
I56
I31
I84
I86
I105
I58
I41
tp2954
a(I306
I53
I27
I85
I86
I108
I53
I36
tp2955
a(I256
I44
I29
I75
I74
I91
I50
I36
tp2956
a(I295
I49
I31
I77
I73
I94
I49
I38
tp2957
a(I291
I52
I28
I69
I77
I101
I48
I34
tp2958
a(I291
I56
I27
I68
I77
I100
I48
I37
tp2959
a(I287
I54
I30
I70
I77
I94
I44
I41
tp2960
a(I279
I55
I29
I72
I79
I97
I46
I39
tp2961
a(I230
I46
I28
I61
I81
I118
I44
I36
tp2962
a(I268
I52
I30
I72
I75
I111
I53
I41
tp2963
a(I240
I47
I31
I80
I74
I121
I62
I38
tp2964
a(I248
I49
I28
I79
I69
I120
I65
I34
tp2965
a(I302
I60
I29
I82
I70
I125
I65
I40
tp2966
a(I293
I60
I27
I81
I76
I107
I68
I52
tp2967
a(I261
I51
I28
I75
I80
I108
I65
I54
tp2968
a(I267
I52
I27
I86
I81
I97
I61
I57
tp2969
a(I299
I56
I30
I86
I81
I98
I61
I57
tp2970
a(I260
I47
I29
I93
I88
I113
I60
I55
tp2971
a(I280
I52
I30
I107
I93
I126
I58
I45
tp2972
a(I271
I52
I28
I110
I89
I130
I56
I39
tp2973
a(I292
I57
I31
I103
I101
I143
I57
I36
tp2974
a(I267
I54
I28
I110
I108
I147
I60
I36
tp2975
a(I286
I64
I31
I107
I102
I141
I60
I35
tp2976
a(I304
I64
I35
I95
I93
I131
I58
I37
tp2977
a(I356
I74
I36
I100
I99
I138
I59
I43
tp2978
a(I345
I71
I38
I94
I87
I124
I52
I43
tp2979
a(I324
I68
I40
I87
I83
I118
I47
I42
tp2980
a(I317
I59
I38
I81
I84
I121
I52
I41
tp2981
a(I310
I65
I32
I91
I90
I118
I52
I42
tp2982
a(I307
I58
I30
I77
I91
I104
I48
I35
tp2983
a(I297
I57
I26
I81
I97
I108
I48
I34
tp2984
a(I313
I59
I24
I81
I93
I106
I48
I36
tp2985
a(I375
I72
I26
I79
I88
I100
I45
I43
tp2986
a(I364
I67
I28
I68
I82
I106
I50
I41
tp2987
a(I367
I71
I31
I72
I94
I110
I56
I48
tp2988
a(I410
I75
I30
I74
I107
I116
I66
I55
tp2989
a(I417
I80
I34
I82
I131
I128
I69
I54
tp2990
a(I439
I85
I33
I112
I153
I145
I82
I55
tp2991
a(I455
I92
I37
I113
I154
I141
I80
I59
tp2992
a(I446
I89
I36
I111
I144
I139
I83
I62
tp2993
a(I410
I85
I37
I106
I129
I128
I76
I57
tp2994
a(I402
I81
I34
I101
I113
I136
I74
I57
tp2995
a(I297
I62
I33
I84
I93
I110
I66
I50
tp2996
a(I291
I57
I33
I89
I106
I120
I69
I48
tp2997
a(I256
I52
I30
I88
I105
I131
I64
I38
tp2998
a(I245
I53
I32
I100
I114
I144
I67
I39
tp2999
a(I264
I61
I33
I100
I103
I142
I68
I41
tp3000
a(I274
I64
I32
I87
I93
I150
I62
I46
tp3001
a(I246
I56
I36
I85
I84
I159
I61
I44
tp3002
a(I246
I57
I37
I98
I91
I159
I63
I44
tp3003
a(I271
I62
I36
I86
I81
I151
I64
I45
tp3004
a(I269
I62
I36
I83
I82
I142
I64
I47
tp3005
a(I321
I63
I37
I84
I91
I159
I64
I43
tp3006
a(I369
I71
I28
I89
I112
I144
I62
I55
tp3007
a(I376
I70
I30
I84
I112
I137
I64
I57
tp3008
a(I442
I77
I30
I87
I122
I157
I65
I64
tp3009
a(I431
I76
I30
I91
I122
I153
I62
I64
tp3010
a(I405
I74
I30
I90
I119
I129
I63
I64
tp3011
a(I375
I69
I30
I81
I91
I132
I59
I52
tp3012
a(I365
I68
I31
I77
I87
I143
I51
I50
tp3013
a(I289
I60
I34
I76
I78
I129
I44
I40
tp3014
a(I286
I53
I33
I70
I81
I131
I43
I36
tp3015
a(I260
I52
I32
I87
I82
I136
I43
I35
tp3016
a(I335
I61
I36
I84
I82
I126
I52
I45
tp3017
a(I337
I62
I33
I80
I81
I139
I56
I44
tp3018
a(I336
I65
I32
I90
I78
I130
I56
I49
tp3019
a(I330
I62
I33
I99
I76
I133
I65
I48
tp3020
a(I349
I63
I35
I91
I77
I123
I63
I51
tp3021
a(I265
I55
I32
I91
I85
I136
I59
I43
tp3022
a(I253
I53
I34
I109
I83
I109
I55
I42
tp3023
a(I219
I46
I34
I106
I85
I115
I67
I35
tp3024
a(I259
I50
I33
I102
I84
I112
I67
I38
tp3025
a(I263
I50
I33
I97
I76
I110
I68
I42
tp3026
a(I267
I48
I35
I99
I77
I113
I68
I42
tp3027
a(I324
I60
I33
I77
I73
I117
I68
I48
tp3028
a(I336
I58
I35
I82
I74
I121
I57
I50
tp3029
a(I312
I58
I35
I79
I74
I122
I52
I48
tp3030
a(I279
I56
I33
I76
I76
I128
I48
I43
tp3031
a(I264
I57
I31
I74
I74
I116
I44
I42
tp3032
a(I204
I45
I32
I75
I76
I123
I46
I35
tp3033
a(I237
I50
I33
I64
I70
I126
I47
I35
tp3034
a(I224
I45
I34
I71
I75
I124
I47
I38
tp3035
a(I228
I47
I37
I68
I76
I124
I57
I39
tp3036
a(I257
I50
I37
I71
I71
I134
I59
I40
tp3037
a(I311
I53
I36
I73
I77
I122
I59
I42
tp3038
a(I286
I56
I32
I78
I91
I113
I60
I44
tp3039
a(I285
I57
I32
I70
I85
I114
I57
I41
tp3040
a(I284
I55
I28
I73
I88
I116
I49
I39
tp3041
a(I267
I52
I29
I80
I104
I119
I54
I42
tp3042
a(I213
I58
I30
I79
I107
I131
I56
I43
tp3043
a(I255
I56
I31
I72
I100
I131
I57
I43
tp3044
a(I254
I57
I31
I73
I101
I147
I62
I46
tp3045
a(I248
I57
I30
I74
I108
I146
I63
I45
tp3046
a(I275
I64
I33
I67
I102
I139
I60
I44
tp3047
a(I304
I60
I31
I82
I99
I148
I64
I46
tp3048
a(I251
I54
I35
I90
I99
I148
I63
I43
tp3049
a(I260
I54
I36
I95
I105
I131
I58
I40
tp3050
a(I261
I54
I37
I94
I95
I130
I59
I42
tp3051
a(I212
I40
I36
I89
I90
I144
I79
I41
tp3052
a(I150
I37
I40
I79
I89
I276
I105
I42
tp3053
a(I181
I40
I39
I90
I95
I283
I117
I46
tp3054
a(I167
I38
I39
I91
I90
I290
I118
I46
tp3055
a(I167
I38
I38
I94
I90
I298
I116
I46
tp3056
a(I186
I38
I38
I96
I88
I294
I107
I45
tp3057
a(I204
I41
I37
I95
I91
I179
I90
I39
tp3058
a(I211
I41
I32
I73
I80
I169
I80
I42
tp3059
a(I297
I58
I31
I61
I80
I154
I81
I43
tp3060
a(I354
I68
I30
I63
I84
I145
I87
I45
tp3061
a(I363
I72
I29
I67
I86
I142
I88
I47
tp3062
a(I390
I71
I26
I65
I89
I118
I76
I49
tp3063
a(I421
I82
I25
I70
I88
I124
I71
I49
tp3064
a(I400
I78
I33
I76
I98
I146
I83
I56
tp3065
a(I492
I101
I35
I85
I96
I145
I89
I61
tp3066
a(I554
I108
I33
I81
I91
I138
I85
I63
tp3067
a(I543
I107
I34
I81
I83
I145
I84
I62
tp3068
a(I517
I99
I38
I85
I94
I141
I86
I58
tp3069
a(I516
I96
I30
I111
I104
I147
I94
I55
tp3070
a(I426
I68
I32
I106
I110
I149
I92
I50
tp3071
a(I330
I53
I34
I111
I109
I147
I91
I48
tp3072
a(I348
I65
I33
I112
I104
I136
I89
I48
tp3073
a(I365
I66
I31
I110
I97
I137
I85
I47
tp3074
a(I347
I64
I35
I81
I72
I115
I59
I40
tp3075
a(I348
I72
I34
I75
I63
I101
I49
I38
tp3076
a(I491
I95
I36
I76
I63
I121
I59
I56
tp3077
a(I508
I97
I39
I87
I81
I135
I61
I61
tp3078
a(I495
I97
I39
I99
I85
I130
I62
I61
tp3079
a(I513
I96
I39
I104
I90
I134
I67
I61
tp3080
a(I497
I93
I39
I104
I84
I136
I61
I62
tp3081
a(I379
I73
I38
I99
I86
I114
I50
I52
tp3082
a(I484
I80
I37
I127
I93
I105
I50
I53
tp3083
a(I520
I85
I40
I130
I94
I109
I51
I54
tp3084
a(I497
I87
I42
I128
I93
I104
I51
I56
tp3085
a(I597
I102
I42
I128
I95
I102
I55
I66
tp3086
a(I632
I110
I41
I128
I95
I105
I56
I67
tp3087
a(I511
I94
I42
I99
I80
I109
I55
I61
tp3088
a(I470
I90
I39
I77
I84
I130
I61
I60
tp3089
a(I524
I100
I36
I73
I89
I136
I60
I62
tp3090
a(I420
I81
I36
I72
I91
I146
I58
I52
tp3091
a(I357
I70
I35
I74
I93
I148
I59
I45
tp3092
a(I376
I76
I34
I67
I92
I145
I65
I47
tp3093
a(I384
I76
I33
I67
I81
I123
I54
I45
tp3094
a(I389
I67
I32
I81
I91
I126
I53
I51
tp3095
a(I394
I75
I30
I89
I92
I126
I61
I54
tp3096
a(I412
I77
I29
I91
I93
I135
I60
I53
tp3097
a(I417
I81
I34
I89
I89
I139
I57
I57
tp3098
a(I400
I79
I32
I96
I93
I147
I70
I56
tp3099
a(I318
I74
I33
I85
I80
I131
I67
I45
tp3100
a(I289
I64
I33
I78
I82
I128
I75
I43
tp3101
a(I310
I61
I34
I86
I83
I125
I76
I43
tp3102
a(I314
I55
I28
I86
I85
I123
I77
I39
tp3103
a(I364
I66
I33
I84
I80
I121
I73
I45
tp3104
a(I385
I70
I31
I81
I74
I119
I76
I44
tp3105
a(I395
I73
I32
I85
I75
I105
I63
I41
tp3106
a(I339
I71
I34
I81
I78
I118
I67
I41
tp3107
a(I387
I73
I34
I79
I84
I125
I64
I44
tp3108
a(I380
I73
I34
I74
I87
I127
I56
I44
tp3109
a(I369
I69
I34
I79
I88
I130
I53
I48
tp3110
a(I384
I80
I36
I77
I85
I131
I52
I52
tp3111
a(I414
I83
I34
I66
I79
I114
I50
I53
tp3112
a(I372
I86
I34
I72
I70
I113
I49
I56
tp3113
a(I353
I86
I34
I74
I76
I103
I55
I55
tp3114
a(I339
I83
I34
I78
I82
I107
I58
I54
tp3115
a(I358
I79
I33
I75
I85
I120
I67
I54
tp3116
a(I343
I74
I32
I77
I85
I116
I63
I56
tp3117
a(I329
I69
I29
I77
I87
I105
I63
I48
tp3118
a(I386
I69
I30
I74
I78
I110
I61
I46
tp3119
a(I421
I79
I33
I76
I79
I112
I59
I45
tp3120
a(I373
I69
I31
I75
I77
I100
I48
I38
tp3121
a(I360
I66
I31
I85
I76
I109
I47
I32
tp3122
a(I366
I64
I34
I94
I80
I113
I46
I32
tp3123
a(I320
I58
I33
I93
I87
I111
I50
I41
tp3124
a(I286
I48
I30
I86
I84
I129
I66
I45
tp3125
a(I374
I62
I29
I92
I89
I142
I68
I49
tp3126
a(I415
I80
I34
I89
I88
I144
I73
I57
tp3127
a(I420
I81
I33
I77
I87
I144
I79
I57
tp3128
a(I436
I89
I32
I80
I85
I145
I72
I57
tp3129
a(I461
I90
I34
I91
I91
I126
I60
I55
tp3130
a(I391
I84
I33
I92
I84
I112
I63
I54
tp3131
a(I380
I74
I33
I92
I85
I108
I56
I49
tp3132
a(I367
I72
I39
I104
I88
I102
I53
I50
tp3133
a(I361
I67
I39
I108
I98
I110
I56
I47
tp3134
a(I327
I62
I39
I102
I100
I118
I57
I45
tp3135
a(I324
I62
I40
I100
I101
I114
I52
I42
tp3136
a(I295
I54
I38
I94
I101
I117
I61
I44
tp3137
a(I336
I66
I30
I81
I94
I115
I59
I44
tp3138
a(I315
I66
I29
I88
I91
I121
I78
I47
tp3139
a(I350
I67
I27
I85
I85
I128
I79
I47
tp3140
a(I407
I76
I27
I89
I88
I131
I80
I53
tp3141
a(I412
I80
I27
I98
I88
I127
I96
I48
tp3142
a(I376
I72
I31
I106
I88
I131
I95
I48
tp3143
a(I365
I68
I31
I97
I83
I122
I83
I44
tp3144
a(I426
I84
I34
I100
I85
I118
I82
I57
tp3145
a(I385
I80
I35
I101
I89
I120
I85
I55
tp3146
a(I389
I82
I35
I98
I90
I125
I59
I56
tp3147
a(I399
I81
I33
I84
I88
I137
I64
I55
tp3148
a(I451
I87
I34
I90
I95
I152
I73
I58
tp3149
a(I389
I84
I33
I93
I95
I151
I75
I48
tp3150
a(I376
I79
I32
I87
I94
I146
I69
I50
tp3151
a(I489
I97
I30
I85
I93
I155
I77
I58
tp3152
a(I493
I102
I31
I88
I104
I150
I73
I59
tp3153
a(I437
I95
I29
I78
I102
I131
I84
I54
tp3154
a(I424
I86
I26
I72
I98
I126
I93
I54
tp3155
a(I456
I96
I28
I74
I109
I133
I94
I51
tp3156
a(I356
I76
I28
I71
I111
I120
I89
I44
tp3157
a(I322
I67
I29
I70
I105
I117
I96
I40
tp3158
a(I396
I80
I29
I77
I103
I122
I80
I44
tp3159
a(I409
I84
I36
I74
I101
I126
I72
I44
tp3160
a(I374
I72
I34
I73
I82
I122
I74
I45
tp3161
a(I379
I70
I38
I77
I87
I116
I72
I45
tp3162
a(I398
I78
I36
I84
I93
I123
I62
I46
tp3163
a(I343
I68
I34
I86
I102
I132
I59
I43
tp3164
aasS'clench'
p3165
(lp3166
(lp3167
(I52
I90
I57
I46
I82
I420
I270
I83
tp3168
a(I52
I84
I55
I47
I62
I311
I242
I75
tp3169
a(I51
I80
I47
I46
I60
I310
I247
I70
tp3170
a(I48
I78
I45
I44
I60
I315
I212
I65
tp3171
a(I46
I82
I51
I43
I69
I339
I227
I55
tp3172
a(I49
I66
I53
I44
I70
I349
I223
I57
tp3173
a(I50
I68
I54
I42
I73
I359
I222
I58
tp3174
a(I48
I68
I57
I42
I75
I377
I209
I60
tp3175
a(I50
I78
I57
I47
I77
I370
I198
I59
tp3176
a(I47
I72
I55
I45
I75
I371
I177
I63
tp3177
a(I44
I68
I50
I41
I68
I354
I173
I65
tp3178
a(I42
I71
I51
I39
I67
I352
I210
I68
tp3179
a(I44
I81
I51
I40
I67
I337
I212
I65
tp3180
a(I43
I77
I53
I38
I67
I347
I209
I62
tp3181
a(I45
I84
I60
I48
I60
I311
I220
I60
tp3182
a(I48
I102
I60
I50
I66
I324
I225
I53
tp3183
a(I55
I97
I59
I51
I68
I338
I190
I52
tp3184
a(I52
I91
I57
I49
I71
I376
I200
I53
tp3185
a(I52
I86
I53
I48
I66
I361
I199
I53
tp3186
a(I50
I84
I38
I36
I58
I332
I177
I47
tp3187
a(I47
I60
I41
I36
I54
I311
I200
I55
tp3188
a(I40
I62
I42
I38
I62
I332
I292
I59
tp3189
a(I39
I57
I42
I39
I58
I309
I302
I64
tp3190
a(I37
I68
I41
I39
I61
I321
I317
I66
tp3191
a(I36
I64
I41
I39
I58
I292
I320
I67
tp3192
a(I35
I72
I41
I40
I56
I280
I304
I62
tp3193
a(I33
I72
I44
I38
I61
I338
I212
I65
tp3194
a(I36
I76
I43
I37
I59
I315
I198
I61
tp3195
a(I39
I68
I44
I37
I61
I325
I193
I70
tp3196
a(I41
I67
I53
I46
I83
I396
I216
I72
tp3197
a(I51
I77
I56
I45
I85
I412
I215
I73
tp3198
a(I55
I78
I59
I50
I81
I346
I239
I65
tp3199
a(I54
I74
I59
I50
I82
I345
I230
I61
tp3200
a(I52
I73
I59
I52
I82
I340
I221
I51
tp3201
a(I50
I87
I56
I48
I61
I251
I208
I52
tp3202
a(I38
I76
I52
I47
I58
I247
I201
I48
tp3203
a(I38
I79
I42
I43
I47
I216
I220
I61
tp3204
a(I43
I92
I44
I45
I47
I222
I227
I80
tp3205
a(I50
I92
I53
I44
I49
I231
I226
I79
tp3206
a(I50
I77
I54
I42
I52
I245
I223
I80
tp3207
a(I52
I81
I53
I41
I50
I226
I225
I82
tp3208
a(I49
I76
I59
I46
I55
I243
I199
I71
tp3209
a(I45
I62
I62
I46
I57
I237
I206
I53
tp3210
a(I40
I64
I55
I44
I51
I206
I205
I55
tp3211
a(I48
I71
I59
I47
I63
I302
I207
I50
tp3212
a(I44
I59
I58
I46
I63
I300
I211
I56
tp3213
a(I42
I65
I54
I40
I58
I275
I222
I63
tp3214
a(I41
I65
I49
I37
I55
I272
I202
I59
tp3215
a(I38
I67
I54
I45
I59
I299
I194
I56
tp3216
a(I37
I66
I48
I44
I45
I201
I199
I57
tp3217
a(I39
I64
I53
I47
I48
I217
I210
I50
tp3218
a(I38
I57
I51
I45
I49
I224
I201
I55
tp3219
a(I39
I58
I52
I48
I53
I259
I215
I66
tp3220
a(I40
I58
I53
I42
I51
I274
I230
I75
tp3221
a(I35
I60
I53
I40
I53
I274
I228
I75
tp3222
a(I38
I67
I49
I38
I52
I266
I213
I79
tp3223
a(I41
I68
I54
I42
I57
I303
I198
I76
tp3224
a(I42
I69
I53
I41
I52
I272
I191
I66
tp3225
a(I46
I77
I52
I41
I66
I304
I183
I71
tp3226
a(I45
I82
I49
I41
I63
I303
I160
I70
tp3227
a(I44
I80
I52
I42
I63
I303
I176
I71
tp3228
a(I41
I85
I50
I37
I58
I265
I175
I67
tp3229
a(I40
I83
I52
I39
I67
I321
I174
I70
tp3230
a(I37
I81
I47
I36
I51
I250
I177
I55
tp3231
a(I41
I68
I46
I32
I49
I239
I186
I54
tp3232
a(I43
I69
I45
I35
I48
I230
I202
I52
tp3233
a(I44
I59
I42
I36
I54
I270
I202
I52
tp3234
a(I43
I64
I43
I34
I48
I230
I212
I52
tp3235
a(I42
I58
I41
I34
I45
I215
I224
I62
tp3236
a(I37
I61
I43
I35
I47
I217
I230
I63
tp3237
a(I39
I58
I39
I34
I50
I236
I220
I59
tp3238
a(I40
I63
I43
I36
I49
I228
I233
I64
tp3239
a(I41
I59
I44
I38
I48
I206
I221
I66
tp3240
a(I43
I57
I50
I43
I53
I233
I217
I64
tp3241
a(I46
I54
I51
I44
I52
I225
I205
I65
tp3242
a(I42
I52
I52
I46
I52
I235
I199
I65
tp3243
a(I43
I59
I50
I47
I51
I222
I191
I61
tp3244
a(I46
I58
I46
I44
I47
I224
I192
I58
tp3245
a(I48
I58
I43
I40
I44
I223
I174
I51
tp3246
a(I48
I63
I41
I40
I45
I225
I217
I55
tp3247
a(I49
I63
I44
I37
I45
I224
I225
I56
tp3248
a(I48
I51
I42
I34
I47
I257
I225
I58
tp3249
a(I45
I55
I43
I36
I49
I262
I218
I54
tp3250
a(I45
I62
I45
I35
I51
I271
I225
I53
tp3251
a(I43
I61
I46
I37
I58
I320
I222
I51
tp3252
a(I46
I61
I42
I36
I59
I312
I233
I49
tp3253
a(I43
I61
I42
I38
I59
I314
I245
I53
tp3254
a(I43
I63
I45
I38
I59
I304
I260
I57
tp3255
a(I42
I72
I43
I37
I59
I284
I258
I60
tp3256
a(I45
I73
I50
I44
I58
I256
I226
I59
tp3257
a(I42
I80
I56
I46
I60
I261
I219
I58
tp3258
a(I46
I84
I58
I44
I54
I198
I205
I57
tp3259
a(I49
I79
I54
I44
I58
I243
I206
I55
tp3260
a(I46
I71
I53
I43
I60
I241
I227
I56
tp3261
a(I44
I68
I47
I36
I55
I211
I232
I53
tp3262
a(I44
I67
I44
I40
I62
I263
I220
I55
tp3263
a(I42
I64
I43
I39
I65
I280
I216
I54
tp3264
a(I40
I72
I46
I40
I64
I272
I204
I53
tp3265
a(I37
I65
I48
I42
I64
I306
I170
I50
tp3266
a(I37
I65
I45
I41
I65
I314
I178
I53
tp3267
a(I35
I57
I43
I36
I52
I263
I173
I49
tp3268
a(I35
I70
I48
I40
I49
I272
I172
I47
tp3269
a(I40
I68
I49
I40
I44
I242
I171
I48
tp3270
a(I44
I68
I49
I43
I50
I285
I172
I51
tp3271
a(I43
I68
I50
I41
I49
I278
I167
I49
tp3272
a(I43
I70
I51
I46
I48
I268
I158
I51
tp3273
a(I53
I58
I50
I43
I49
I276
I170
I52
tp3274
a(I49
I56
I48
I42
I49
I274
I180
I50
tp3275
a(I51
I70
I54
I44
I59
I296
I208
I50
tp3276
a(I49
I68
I53
I43
I57
I295
I197
I51
tp3277
a(I51
I72
I49
I42
I61
I308
I202
I56
tp3278
a(I44
I72
I43
I42
I64
I321
I207
I53
tp3279
a(I42
I70
I43
I42
I68
I337
I199
I54
tp3280
a(I37
I68
I39
I36
I55
I247
I167
I49
tp3281
a(I39
I71
I42
I39
I56
I263
I169
I49
tp3282
a(I36
I70
I42
I34
I56
I275
I166
I41
tp3283
a(I36
I74
I41
I31
I53
I275
I150
I47
tp3284
a(I47
I76
I43
I31
I51
I272
I148
I45
tp3285
a(I45
I63
I40
I28
I47
I270
I153
I46
tp3286
a(I47
I63
I40
I28
I61
I329
I168
I46
tp3287
a(I47
I66
I42
I31
I61
I320
I182
I49
tp3288
a(I57
I63
I49
I36
I59
I282
I196
I49
tp3289
a(I53
I65
I48
I39
I60
I278
I200
I54
tp3290
a(I54
I64
I48
I42
I65
I330
I197
I56
tp3291
a(I53
I70
I46
I41
I55
I260
I196
I56
tp3292
a(I56
I71
I51
I41
I55
I250
I191
I54
tp3293
a(I43
I68
I44
I40
I56
I280
I175
I50
tp3294
a(I39
I71
I45
I41
I56
I287
I164
I50
tp3295
a(I39
I90
I51
I44
I55
I247
I176
I54
tp3296
a(I39
I83
I50
I44
I51
I245
I179
I56
tp3297
a(I37
I82
I45
I43
I56
I274
I192
I61
tp3298
a(I41
I84
I49
I43
I54
I251
I200
I61
tp3299
a(I44
I80
I51
I45
I58
I260
I256
I68
tp3300
a(I46
I64
I51
I44
I52
I232
I268
I74
tp3301
a(I46
I70
I56
I47
I61
I278
I266
I74
tp3302
a(I44
I64
I54
I48
I54
I282
I251
I72
tp3303
a(I39
I61
I53
I48
I55
I271
I272
I72
tp3304
a(I36
I68
I54
I45
I59
I279
I227
I68
tp3305
a(I31
I63
I49
I43
I61
I292
I202
I56
tp3306
a(I36
I55
I48
I40
I56
I250
I216
I60
tp3307
a(I44
I57
I50
I37
I60
I241
I218
I56
tp3308
a(I47
I67
I48
I40
I67
I314
I211
I66
tp3309
a(I47
I67
I50
I47
I66
I318
I218
I61
tp3310
a(I54
I69
I51
I47
I64
I321
I218
I62
tp3311
a(I56
I71
I49
I50
I66
I336
I215
I56
tp3312
a(I51
I71
I48
I51
I69
I362
I241
I62
tp3313
a(I50
I66
I49
I49
I63
I308
I240
I52
tp3314
a(I49
I55
I46
I42
I56
I274
I278
I58
tp3315
a(I42
I54
I49
I42
I68
I357
I297
I64
tp3316
a(I44
I53
I52
I41
I67
I349
I286
I64
tp3317
a(I43
I69
I55
I46
I65
I331
I276
I64
tp3318
a(I44
I67
I54
I48
I67
I347
I255
I63
tp3319
a(I46
I70
I49
I46
I70
I394
I228
I62
tp3320
a(I46
I77
I46
I44
I58
I320
I217
I57
tp3321
a(I46
I78
I44
I44
I58
I316
I220
I57
tp3322
a(I49
I72
I44
I41
I53
I301
I220
I61
tp3323
a(I46
I73
I45
I42
I66
I375
I325
I76
tp3324
a(I51
I71
I49
I45
I66
I357
I374
I80
tp3325
a(I52
I73
I48
I46
I67
I365
I363
I80
tp3326
a(I45
I72
I45
I44
I66
I370
I382
I84
tp3327
a(I44
I67
I41
I42
I67
I384
I411
I86
tp3328
a(I49
I69
I45
I39
I52
I290
I350
I78
tp3329
a(I44
I71
I43
I36
I57
I302
I308
I77
tp3330
a(I42
I65
I49
I39
I67
I326
I354
I78
tp3331
a(I46
I73
I52
I44
I66
I318
I349
I76
tp3332
a(I51
I73
I51
I43
I65
I294
I340
I74
tp3333
a(I57
I76
I47
I44
I71
I343
I350
I76
tp3334
a(I57
I76
I47
I45
I69
I319
I400
I76
tp3335
a(I58
I72
I48
I45
I68
I329
I386
I77
tp3336
a(I58
I73
I48
I44
I84
I390
I372
I81
tp3337
a(I59
I74
I52
I48
I87
I390
I365
I85
tp3338
a(I51
I67
I52
I47
I84
I375
I429
I85
tp3339
a(I57
I69
I55
I50
I83
I392
I438
I114
tp3340
a(I55
I75
I56
I55
I77
I355
I420
I115
tp3341
a(I56
I71
I53
I55
I59
I305
I433
I115
tp3342
a(I53
I73
I51
I54
I55
I296
I438
I107
tp3343
a(I55
I77
I54
I54
I67
I309
I376
I109
tp3344
a(I49
I78
I47
I49
I64
I288
I287
I76
tp3345
a(I53
I75
I45
I44
I73
I344
I324
I85
tp3346
a(I52
I72
I50
I49
I79
I378
I350
I84
tp3347
a(I50
I63
I56
I46
I81
I391
I320
I91
tp3348
a(I48
I61
I56
I46
I68
I350
I297
I88
tp3349
a(I50
I57
I58
I44
I68
I362
I323
I95
tp3350
a(I48
I51
I54
I39
I59
I321
I320
I98
tp3351
a(I51
I54
I49
I30
I53
I280
I371
I111
tp3352
a(I50
I60
I38
I30
I50
I264
I376
I108
tp3353
a(I50
I57
I44
I34
I54
I291
I411
I113
tp3354
a(I51
I58
I44
I38
I62
I330
I400
I104
tp3355
a(I52
I58
I46
I41
I58
I312
I392
I96
tp3356
a(I47
I60
I50
I44
I56
I292
I332
I81
tp3357
a(I46
I57
I56
I46
I63
I310
I344
I86
tp3358
a(I50
I59
I53
I46
I62
I331
I312
I83
tp3359
a(I44
I58
I52
I51
I58
I275
I299
I87
tp3360
a(I47
I60
I53
I50
I61
I283
I328
I88
tp3361
a(I118
I61
I59
I55
I66
I301
I321
I110
tp3362
a(I125
I62
I56
I52
I69
I365
I363
I132
tp3363
a(I124
I72
I62
I54
I71
I342
I369
I132
tp3364
a(I126
I76
I66
I51
I66
I332
I380
I144
tp3365
a(I133
I75
I67
I52
I66
I359
I356
I152
tp3366
a(I79
I75
I58
I44
I61
I348
I334
I139
tp3367
a(I69
I72
I60
I50
I60
I332
I311
I118
tp3368
a(I73
I58
I60
I49
I63
I385
I312
I128
tp3369
a(I72
I57
I58
I48
I62
I381
I305
I112
tp3370
a(I52
I77
I67
I55
I62
I354
I284
I93
tp3371
a(I53
I72
I66
I53
I64
I364
I283
I93
tp3372
a(I50
I73
I65
I49
I67
I385
I286
I93
tp3373
a(I52
I73
I61
I52
I70
I403
I327
I101
tp3374
a(I58
I85
I61
I52
I75
I424
I360
I107
tp3375
a(I58
I70
I57
I48
I74
I427
I366
I113
tp3376
a(I56
I68
I58
I47
I71
I417
I387
I108
tp3377
a(I64
I69
I59
I49
I62
I341
I370
I113
tp3378
a(I55
I74
I55
I45
I66
I348
I348
I101
tp3379
a(I53
I60
I56
I46
I68
I366
I328
I98
tp3380
a(I54
I59
I47
I43
I70
I367
I339
I98
tp3381
a(I57
I70
I46
I46
I73
I378
I329
I99
tp3382
a(I50
I69
I47
I45
I77
I405
I379
I105
tp3383
a(I52
I62
I52
I43
I66
I326
I363
I95
tp3384
a(I44
I58
I48
I41
I59
I278
I352
I93
tp3385
a(I45
I69
I48
I39
I54
I257
I348
I95
tp3386
a(I47
I69
I52
I39
I56
I267
I357
I103
tp3387
a(I56
I72
I57
I41
I51
I258
I290
I84
tp3388
a(I58
I78
I51
I42
I64
I339
I272
I85
tp3389
a(I58
I77
I51
I39
I66
I336
I280
I81
tp3390
a(I62
I67
I53
I40
I71
I356
I270
I79
tp3391
a(I59
I56
I51
I36
I70
I351
I256
I68
tp3392
a(I50
I65
I47
I41
I72
I348
I288
I69
tp3393
a(I51
I60
I47
I40
I63
I303
I357
I70
tp3394
a(I60
I72
I51
I42
I67
I354
I371
I69
tp3395
a(I59
I75
I50
I45
I65
I360
I390
I64
tp3396
a(I63
I83
I51
I49
I64
I353
I383
I70
tp3397
a(I62
I74
I47
I44
I63
I331
I368
I72
tp3398
a(I59
I79
I48
I45
I67
I349
I313
I75
tp3399
a(I52
I69
I44
I45
I63
I316
I297
I75
tp3400
a(I47
I70
I45
I43
I58
I289
I259
I71
tp3401
a(I55
I77
I45
I43
I57
I284
I277
I75
tp3402
a(I54
I74
I47
I41
I54
I297
I258
I75
tp3403
a(I55
I70
I46
I39
I52
I285
I264
I83
tp3404
a(I57
I75
I45
I38
I49
I266
I258
I83
tp3405
a(I58
I74
I44
I37
I52
I264
I269
I84
tp3406
a(I47
I61
I46
I33
I51
I262
I275
I79
tp3407
a(I48
I65
I46
I38
I56
I266
I283
I79
tp3408
a(I45
I74
I48
I38
I55
I245
I271
I64
tp3409
a(I51
I72
I54
I43
I58
I242
I261
I67
tp3410
a(I51
I72
I57
I47
I58
I239
I268
I68
tp3411
a(I54
I67
I52
I46
I60
I280
I271
I67
tp3412
a(I61
I75
I53
I45
I55
I267
I301
I72
tp3413
a(I60
I78
I56
I49
I48
I229
I303
I73
tp3414
a(I54
I75
I48
I44
I43
I219
I340
I76
tp3415
a(I53
I80
I51
I44
I58
I309
I345
I78
tp3416
a(I53
I89
I51
I44
I53
I271
I318
I75
tp3417
a(I42
I92
I48
I41
I58
I290
I276
I68
tp3418
a(I44
I82
I45
I41
I59
I288
I286
I71
tp3419
a(I47
I81
I50
I46
I63
I313
I247
I71
tp3420
a(I48
I88
I52
I45
I62
I294
I292
I71
tp3421
a(I46
I83
I56
I47
I65
I293
I292
I70
tp3422
a(I48
I79
I57
I51
I66
I286
I303
I79
tp3423
aa(lp3424
(I62
I86
I67
I81
I105
I486
I506
I122
tp3425
a(I62
I93
I76
I82
I106
I494
I536
I130
tp3426
a(I60
I90
I73
I75
I99
I454
I472
I130
tp3427
a(I62
I89
I71
I68
I87
I439
I509
I143
tp3428
a(I58
I80
I74
I73
I95
I429
I503
I141
tp3429
a(I58
I78
I76
I76
I89
I415
I401
I122
tp3430
a(I53
I70
I69
I73
I90
I424
I386
I122
tp3431
a(I61
I72
I71
I74
I91
I426
I423
I119
tp3432
a(I60
I83
I68
I71
I94
I432
I369
I110
tp3433
a(I60
I89
I65
I63
I85
I431
I362
I109
tp3434
a(I66
I87
I63
I88
I93
I505
I539
I135
tp3435
a(I70
I85
I65
I90
I94
I507
I545
I135
tp3436
a(I66
I83
I67
I89
I87
I480
I514
I132
tp3437
a(I64
I67
I69
I90
I83
I430
I525
I123
tp3438
a(I64
I61
I59
I87
I86
I462
I566
I131
tp3439
a(I55
I60
I57
I58
I81
I384
I426
I111
tp3440
a(I51
I68
I63
I59
I93
I431
I421
I101
tp3441
a(I53
I73
I60
I59
I94
I454
I482
I124
tp3442
a(I55
I78
I58
I57
I85
I401
I452
I131
tp3443
a(I60
I75
I59
I57
I86
I402
I448
I124
tp3444
a(I65
I82
I64
I57
I89
I454
I528
I147
tp3445
a(I62
I81
I54
I59
I97
I519
I536
I157
tp3446
a(I55
I80
I58
I72
I97
I510
I502
I139
tp3447
a(I51
I80
I57
I75
I97
I530
I521
I137
tp3448
a(I46
I81
I58
I75
I95
I506
I482
I137
tp3449
a(I42
I75
I63
I76
I96
I504
I382
I109
tp3450
a(I42
I72
I65
I71
I74
I359
I350
I102
tp3451
a(I43
I70
I63
I64
I77
I405
I358
I105
tp3452
a(I47
I65
I68
I66
I85
I413
I334
I103
tp3453
a(I51
I71
I71
I67
I88
I453
I347
I98
tp3454
a(I48
I66
I60
I63
I81
I392
I358
I99
tp3455
a(I50
I77
I70
I66
I98
I474
I351
I90
tp3456
a(I54
I91
I75
I67
I110
I497
I440
I116
tp3457
a(I52
I91
I72
I59
I107
I490
I438
I119
tp3458
a(I51
I88
I71
I58
I106
I442
I428
I117
tp3459
a(I55
I90
I69
I55
I109
I483
I422
I123
tp3460
a(I54
I76
I64
I55
I95
I429
I455
I130
tp3461
a(I57
I58
I53
I47
I78
I363
I379
I108
tp3462
a(I58
I58
I53
I48
I74
I342
I380
I105
tp3463
a(I55
I61
I52
I46
I71
I373
I369
I107
tp3464
a(I52
I67
I58
I52
I73
I355
I358
I96
tp3465
a(I55
I76
I53
I49
I77
I323
I340
I92
tp3466
a(I62
I91
I81
I69
I86
I345
I308
I91
tp3467
a(I61
I90
I79
I69
I88
I346
I282
I84
tp3468
a(I72
I103
I92
I89
I96
I334
I345
I96
tp3469
a(I73
I107
I90
I86
I101
I357
I342
I99
tp3470
a(I71
I107
I89
I86
I105
I407
I342
I94
tp3471
a(I60
I94
I68
I77
I102
I411
I379
I95
tp3472
a(I64
I95
I70
I79
I102
I413
I421
I103
tp3473
a(I51
I87
I52
I57
I92
I394
I410
I98
tp3474
a(I51
I86
I48
I59
I79
I357
I447
I96
tp3475
a(I53
I81
I47
I59
I74
I321
I448
I98
tp3476
a(I51
I81
I49
I52
I63
I273
I419
I96
tp3477
a(I48
I87
I51
I57
I67
I296
I395
I90
tp3478
a(I48
I86
I50
I58
I78
I351
I361
I81
tp3479
a(I45
I79
I52
I54
I76
I324
I304
I75
tp3480
a(I43
I74
I51
I52
I72
I312
I300
I71
tp3481
a(I48
I84
I52
I58
I75
I340
I312
I70
tp3482
a(I46
I75
I49
I49
I69
I316
I345
I72
tp3483
a(I57
I65
I58
I55
I66
I314
I337
I75
tp3484
a(I57
I75
I58
I58
I75
I331
I331
I73
tp3485
a(I62
I80
I61
I59
I75
I335
I318
I73
tp3486
a(I63
I70
I56
I55
I70
I294
I317
I67
tp3487
a(I66
I71
I55
I56
I77
I344
I261
I63
tp3488
a(I56
I80
I52
I51
I83
I346
I311
I72
tp3489
a(I61
I69
I53
I51
I82
I384
I336
I89
tp3490
a(I53
I80
I59
I53
I81
I372
I324
I87
tp3491
a(I50
I85
I63
I52
I86
I390
I359
I100
tp3492
a(I48
I84
I64
I50
I87
I361
I380
I102
tp3493
a(I48
I79
I64
I53
I79
I333
I339
I91
tp3494
a(I54
I85
I68
I53
I77
I332
I420
I103
tp3495
a(I57
I73
I69
I56
I95
I430
I427
I105
tp3496
a(I57
I73
I65
I52
I98
I421
I387
I92
tp3497
a(I58
I71
I63
I51
I93
I416
I450
I99
tp3498
a(I60
I82
I63
I49
I87
I409
I468
I106
tp3499
a(I51
I75
I58
I49
I84
I374
I396
I82
tp3500
a(I49
I71
I48
I40
I73
I327
I398
I82
tp3501
a(I52
I64
I54
I46
I68
I337
I402
I95
tp3502
a(I63
I71
I56
I47
I67
I339
I319
I96
tp3503
a(I59
I51
I50
I44
I68
I334
I310
I95
tp3504
a(I63
I65
I56
I48
I80
I411
I291
I100
tp3505
a(I67
I84
I65
I54
I83
I410
I303
I104
tp3506
a(I65
I93
I67
I53
I88
I440
I310
I104
tp3507
a(I54
I94
I69
I59
I90
I438
I316
I100
tp3508
a(I61
I105
I71
I60
I95
I451
I301
I98
tp3509
a(I56
I108
I68
I57
I88
I407
I307
I91
tp3510
a(I54
I95
I63
I52
I75
I362
I276
I84
tp3511
a(I60
I90
I59
I52
I65
I310
I306
I81
tp3512
a(I64
I95
I60
I48
I62
I301
I280
I76
tp3513
a(I69
I91
I57
I51
I64
I326
I348
I112
tp3514
a(I69
I80
I54
I51
I66
I296
I350
I116
tp3515
a(I71
I81
I51
I54
I67
I314
I373
I123
tp3516
a(I66
I94
I56
I53
I70
I356
I335
I116
tp3517
a(I65
I92
I53
I52
I71
I358
I352
I124
tp3518
a(I56
I88
I55
I47
I62
I311
I310
I95
tp3519
a(I54
I86
I55
I45
I58
I319
I304
I95
tp3520
a(I50
I84
I56
I45
I64
I350
I275
I90
tp3521
a(I51
I68
I46
I44
I75
I395
I305
I99
tp3522
a(I45
I53
I43
I44
I75
I413
I284
I90
tp3523
a(I45
I58
I43
I46
I79
I434
I264
I89
tp3524
a(I50
I65
I44
I49
I81
I435
I257
I84
tp3525
a(I52
I73
I54
I54
I90
I443
I312
I87
tp3526
a(I48
I78
I57
I54
I80
I388
I316
I84
tp3527
a(I52
I78
I56
I54
I82
I391
I356
I92
tp3528
a(I52
I83
I63
I57
I78
I376
I348
I93
tp3529
a(I51
I78
I62
I56
I80
I398
I357
I100
tp3530
a(I45
I71
I51
I49
I68
I348
I331
I96
tp3531
a(I77
I78
I60
I52
I66
I324
I311
I91
tp3532
a(I76
I77
I59
I51
I63
I293
I311
I94
tp3533
a(I73
I65
I49
I44
I66
I316
I319
I89
tp3534
a(I111
I74
I57
I46
I61
I293
I389
I108
tp3535
a(I115
I89
I63
I46
I66
I322
I398
I114
tp3536
a(I96
I80
I53
I39
I62
I317
I383
I112
tp3537
a(I97
I81
I53
I41
I63
I313
I352
I102
tp3538
a(I100
I82
I53
I46
I73
I375
I395
I110
tp3539
a(I59
I87
I52
I45
I70
I351
I321
I88
tp3540
a(I50
I74
I48
I46
I66
I332
I287
I79
tp3541
a(I51
I68
I44
I48
I66
I330
I300
I84
tp3542
a(I57
I75
I51
I52
I73
I380
I320
I82
tp3543
a(I58
I78
I55
I48
I58
I286
I267
I73
tp3544
a(I52
I66
I51
I44
I60
I285
I320
I96
tp3545
a(I53
I64
I50
I39
I57
I305
I361
I106
tp3546
a(I52
I65
I52
I42
I67
I353
I364
I112
tp3547
a(I47
I63
I50
I39
I65
I333
I344
I117
tp3548
a(I43
I60
I50
I41
I64
I337
I331
I114
tp3549
a(I45
I61
I60
I53
I66
I332
I284
I99
tp3550
a(I45
I67
I59
I56
I68
I330
I253
I95
tp3551
a(I52
I72
I59
I56
I68
I360
I297
I96
tp3552
a(I50
I67
I61
I56
I69
I359
I310
I96
tp3553
a(I48
I86
I65
I60
I78
I389
I328
I98
tp3554
a(I49
I82
I57
I55
I79
I397
I337
I100
tp3555
a(I50
I85
I60
I55
I78
I368
I326
I89
tp3556
a(I46
I80
I60
I56
I69
I307
I261
I73
tp3557
a(I49
I86
I56
I52
I63
I288
I254
I72
tp3558
a(I48
I68
I51
I46
I50
I260
I274
I76
tp3559
a(I45
I70
I47
I40
I50
I283
I266
I63
tp3560
a(I52
I72
I47
I41
I66
I342
I300
I83
tp3561
a(I52
I73
I50
I40
I83
I405
I321
I89
tp3562
a(I47
I63
I47
I39
I82
I397
I311
I87
tp3563
a(I50
I68
I46
I42
I83
I379
I276
I79
tp3564
a(I54
I66
I47
I42
I87
I409
I303
I86
tp3565
a(I47
I64
I47
I41
I73
I363
I264
I74
tp3566
a(I45
I64
I47
I39
I56
I294
I257
I82
tp3567
a(I49
I67
I48
I41
I59
I300
I285
I84
tp3568
a(I46
I71
I51
I44
I66
I330
I286
I89
tp3569
a(I44
I71
I55
I51
I68
I324
I244
I87
tp3570
a(I43
I65
I52
I48
I72
I342
I240
I86
tp3571
a(I44
I63
I52
I52
I72
I326
I234
I75
tp3572
a(I41
I66
I50
I50
I71
I336
I219
I70
tp3573
a(I41
I62
I45
I50
I72
I370
I298
I90
tp3574
a(I41
I56
I37
I43
I63
I339
I311
I103
tp3575
a(I49
I63
I35
I43
I60
I328
I363
I116
tp3576
a(I53
I74
I30
I40
I68
I397
I379
I116
tp3577
a(I54
I72
I41
I44
I72
I417
I398
I122
tp3578
a(I55
I67
I43
I40
I70
I382
I359
I112
tp3579
a(I55
I77
I48
I45
I82
I451
I353
I116
tp3580
a(I50
I71
I53
I49
I83
I443
I328
I104
tp3581
a(I61
I59
I52
I46
I76
I382
I331
I105
tp3582
a(I63
I58
I47
I46
I71
I367
I321
I106
tp3583
a(I65
I76
I54
I51
I76
I381
I350
I112
tp3584
a(I79
I74
I54
I50
I71
I346
I358
I107
tp3585
a(I81
I80
I53
I48
I71
I353
I335
I103
tp3586
a(I71
I93
I57
I53
I71
I348
I309
I100
tp3587
a(I71
I99
I61
I57
I80
I408
I347
I111
tp3588
a(I71
I89
I55
I53
I74
I421
I323
I112
tp3589
a(I59
I82
I54
I54
I68
I380
I339
I116
tp3590
a(I57
I85
I60
I55
I66
I379
I368
I115
tp3591
a(I54
I75
I59
I52
I68
I397
I379
I117
tp3592
a(I51
I65
I58
I50
I58
I325
I352
I107
tp3593
a(I52
I69
I64
I52
I61
I302
I334
I95
tp3594
a(I46
I74
I61
I51
I58
I297
I303
I72
tp3595
a(I46
I64
I58
I50
I59
I286
I276
I76
tp3596
a(I45
I62
I58
I47
I59
I280
I263
I83
tp3597
a(I56
I74
I55
I47
I66
I361
I231
I79
tp3598
a(I52
I71
I47
I44
I61
I337
I229
I75
tp3599
a(I50
I69
I48
I41
I62
I342
I304
I94
tp3600
a(I54
I77
I48
I43
I60
I340
I300
I100
tp3601
a(I56
I86
I49
I46
I59
I328
I302
I96
tp3602
a(I52
I76
I48
I48
I86
I423
I331
I97
tp3603
a(I55
I72
I46
I48
I90
I439
I333
I102
tp3604
a(I56
I82
I51
I48
I89
I433
I261
I86
tp3605
a(I51
I83
I54
I53
I95
I464
I268
I82
tp3606
a(I49
I72
I55
I53
I98
I473
I279
I87
tp3607
a(I43
I81
I58
I52
I70
I312
I291
I87
tp3608
a(I46
I85
I61
I56
I70
I294
I297
I86
tp3609
a(I49
I92
I61
I55
I74
I327
I297
I87
tp3610
a(I55
I89
I59
I53
I78
I328
I321
I95
tp3611
a(I56
I90
I57
I51
I73
I319
I341
I104
tp3612
a(I53
I81
I56
I49
I74
I319
I295
I98
tp3613
a(I49
I79
I55
I43
I68
I312
I327
I101
tp3614
a(I49
I67
I56
I49
I78
I345
I338
I104
tp3615
a(I41
I64
I49
I44
I66
I310
I307
I91
tp3616
a(I44
I61
I54
I43
I73
I369
I315
I87
tp3617
a(I44
I63
I54
I41
I75
I407
I347
I98
tp3618
a(I47
I64
I59
I49
I77
I411
I311
I94
tp3619
a(I44
I61
I59
I45
I67
I386
I307
I94
tp3620
a(I45
I68
I67
I51
I73
I392
I321
I107
tp3621
a(I42
I72
I64
I54
I74
I404
I296
I100
tp3622
a(I53
I72
I63
I56
I68
I357
I258
I85
tp3623
a(I53
I72
I61
I54
I69
I366
I268
I86
tp3624
a(I55
I81
I57
I51
I65
I341
I258
I84
tp3625
a(I56
I75
I49
I46
I59
I327
I239
I67
tp3626
a(I56
I75
I50
I45
I57
I288
I217
I64
tp3627
a(I50
I78
I51
I44
I59
I317
I285
I80
tp3628
a(I47
I79
I51
I41
I57
I307
I290
I79
tp3629
a(I49
I61
I53
I43
I60
I309
I335
I83
tp3630
a(I56
I61
I58
I48
I70
I372
I387
I96
tp3631
a(I61
I80
I56
I53
I66
I335
I388
I97
tp3632
a(I57
I82
I52
I50
I64
I311
I345
I88
tp3633
a(I58
I80
I47
I47
I63
I293
I329
I84
tp3634
a(I52
I81
I41
I48
I75
I357
I286
I81
tp3635
a(I48
I86
I36
I48
I80
I400
I211
I70
tp3636
a(I41
I68
I34
I44
I80
I410
I231
I76
tp3637
a(I48
I61
I34
I46
I80
I410
I222
I72
tp3638
a(I48
I64
I38
I49
I80
I415
I242
I75
tp3639
a(I55
I78
I48
I49
I70
I384
I268
I76
tp3640
a(I52
I76
I50
I47
I53
I268
I293
I79
tp3641
a(I62
I79
I57
I46
I57
I278
I291
I77
tp3642
a(I58
I81
I61
I47
I56
I278
I301
I78
tp3643
a(I58
I79
I58
I46
I56
I276
I327
I97
tp3644
a(I61
I67
I55
I41
I67
I327
I307
I100
tp3645
a(I66
I70
I58
I44
I68
I345
I299
I96
tp3646
a(I63
I65
I53
I42
I66
I362
I286
I96
tp3647
a(I67
I65
I53
I43
I86
I445
I302
I96
tp3648
a(I69
I71
I61
I52
I96
I466
I259
I79
tp3649
a(I63
I75
I59
I52
I84
I396
I277
I74
tp3650
a(I57
I65
I53
I46
I84
I423
I306
I89
tp3651
a(I49
I79
I54
I45
I84
I404
I307
I88
tp3652
a(I47
I86
I51
I44
I76
I393
I288
I92
tp3653
a(I44
I81
I47
I34
I62
I365
I298
I95
tp3654
a(I41
I77
I55
I42
I70
I397
I299
I97
tp3655
a(I45
I86
I58
I47
I79
I405
I242
I82
tp3656
a(I50
I90
I60
I48
I81
I419
I232
I83
tp3657
a(I48
I83
I61
I49
I73
I345
I241
I82
tp3658
a(I50
I84
I65
I57
I76
I347
I256
I79
tp3659
a(I54
I88
I62
I55
I84
I405
I226
I79
tp3660
a(I69
I90
I63
I54
I80
I396
I236
I79
tp3661
a(I67
I77
I63
I56
I75
I370
I259
I81
tp3662
a(I68
I77
I62
I54
I73
I373
I261
I81
tp3663
a(I66
I74
I53
I47
I81
I432
I236
I81
tp3664
a(I64
I74
I67
I54
I73
I376
I245
I73
tp3665
a(I47
I72
I66
I54
I70
I331
I257
I79
tp3666
a(I48
I75
I63
I49
I73
I339
I290
I79
tp3667
a(I48
I70
I63
I49
I81
I406
I309
I84
tp3668
a(I48
I75
I67
I51
I71
I347
I361
I93
tp3669
a(I49
I77
I54
I43
I63
I326
I371
I98
tp3670
a(I48
I69
I50
I41
I62
I332
I370
I94
tp3671
a(I49
I65
I52
I44
I61
I343
I340
I87
tp3672
a(I49
I77
I57
I46
I61
I342
I305
I79
tp3673
a(I49
I70
I51
I43
I60
I333
I333
I90
tp3674
a(I46
I64
I51
I38
I59
I320
I325
I86
tp3675
a(I46
I64
I51
I40
I61
I335
I337
I90
tp3676
a(I47
I65
I49
I37
I64
I363
I331
I94
tp3677
a(I42
I51
I49
I38
I57
I338
I339
I95
tp3678
a(I49
I55
I53
I42
I57
I338
I256
I78
tp3679
aa(lp3680
(I36
I57
I39
I37
I43
I214
I221
I68
tp3681
a(I35
I54
I42
I39
I60
I325
I234
I77
tp3682
a(I42
I64
I47
I41
I63
I340
I227
I75
tp3683
a(I42
I65
I47
I40
I64
I335
I198
I58
tp3684
a(I46
I60
I48
I40
I66
I340
I185
I57
tp3685
a(I49
I62
I46
I38
I72
I405
I259
I67
tp3686
a(I54
I74
I49
I43
I63
I331
I284
I71
tp3687
a(I53
I74
I48
I47
I62
I326
I294
I74
tp3688
a(I54
I70
I50
I47
I64
I336
I321
I80
tp3689
a(I54
I94
I57
I48
I65
I359
I347
I87
tp3690
a(I55
I94
I59
I49
I58
I268
I302
I76
tp3691
a(I56
I88
I59
I44
I61
I307
I275
I73
tp3692
a(I51
I84
I56
I40
I62
I303
I272
I70
tp3693
a(I52
I85
I55
I43
I67
I346
I250
I72
tp3694
a(I49
I58
I47
I41
I64
I321
I218
I67
tp3695
a(I46
I61
I53
I49
I70
I336
I259
I81
tp3696
a(I45
I69
I55
I50
I69
I303
I261
I74
tp3697
a(I48
I69
I55
I52
I73
I346
I271
I75
tp3698
a(I54
I68
I57
I52
I68
I316
I289
I74
tp3699
a(I54
I68
I59
I51
I68
I314
I291
I76
tp3700
a(I54
I69
I51
I43
I60
I302
I247
I61
tp3701
a(I54
I56
I46
I43
I66
I379
I245
I62
tp3702
a(I53
I56
I51
I42
I58
I338
I217
I62
tp3703
a(I52
I59
I51
I43
I68
I370
I169
I57
tp3704
a(I54
I60
I49
I44
I68
I376
I162
I55
tp3705
a(I56
I53
I51
I44
I69
I378
I161
I58
tp3706
a(I53
I58
I53
I42
I67
I341
I152
I59
tp3707
a(I57
I66
I49
I41
I67
I344
I152
I59
tp3708
a(I52
I62
I53
I42
I54
I301
I155
I57
tp3709
a(I51
I58
I54
I44
I60
I319
I176
I62
tp3710
a(I47
I59
I53
I45
I58
I315
I179
I62
tp3711
a(I50
I64
I49
I46
I47
I235
I189
I59
tp3712
a(I50
I65
I49
I46
I53
I270
I203
I65
tp3713
a(I51
I65
I42
I42
I62
I329
I219
I67
tp3714
a(I48
I66
I46
I45
I60
I325
I225
I65
tp3715
a(I52
I81
I45
I45
I61
I333
I238
I65
tp3716
a(I47
I82
I47
I43
I68
I358
I284
I65
tp3717
a(I39
I76
I45
I41
I69
I379
I281
I64
tp3718
a(I41
I78
I47
I46
I60
I307
I277
I63
tp3719
a(I44
I78
I41
I38
I62
I304
I260
I59
tp3720
a(I41
I73
I47
I39
I59
I295
I246
I62
tp3721
a(I41
I63
I47
I41
I52
I288
I196
I61
tp3722
a(I48
I71
I52
I47
I47
I232
I213
I65
tp3723
a(I53
I71
I50
I42
I47
I233
I206
I63
tp3724
a(I53
I69
I51
I44
I45
I222
I218
I63
tp3725
a(I53
I62
I51
I44
I68
I341
I221
I60
tp3726
a(I53
I64
I52
I41
I66
I329
I200
I59
tp3727
a(I48
I57
I49
I40
I69
I355
I171
I50
tp3728
a(I42
I53
I48
I41
I71
I359
I191
I55
tp3729
a(I41
I61
I48
I41
I68
I351
I177
I56
tp3730
a(I42
I59
I44
I39
I46
I236
I165
I64
tp3731
a(I41
I63
I43
I40
I50
I243
I194
I65
tp3732
a(I38
I58
I40
I35
I48
I233
I225
I64
tp3733
a(I42
I58
I45
I37
I52
I270
I211
I64
tp3734
a(I47
I62
I49
I37
I56
I290
I210
I63
tp3735
a(I47
I60
I61
I44
I74
I318
I263
I63
tp3736
a(I48
I55
I60
I45
I75
I334
I254
I60
tp3737
a(I49
I57
I60
I45
I73
I301
I229
I67
tp3738
a(I42
I61
I60
I46
I77
I302
I228
I64
tp3739
a(I43
I58
I59
I44
I79
I336
I256
I67
tp3740
a(I46
I57
I46
I42
I67
I328
I214
I62
tp3741
a(I47
I60
I50
I43
I74
I346
I232
I67
tp3742
a(I48
I59
I49
I44
I77
I363
I254
I75
tp3743
a(I48
I60
I46
I41
I67
I330
I260
I75
tp3744
a(I47
I62
I46
I40
I64
I276
I248
I82
tp3745
a(I52
I65
I49
I37
I86
I415
I247
I93
tp3746
a(I62
I65
I45
I36
I82
I400
I311
I113
tp3747
a(I61
I76
I49
I37
I81
I400
I290
I105
tp3748
a(I65
I74
I49
I37
I83
I411
I285
I106
tp3749
a(I64
I72
I50
I39
I91
I491
I280
I103
tp3750
a(I58
I69
I46
I39
I67
I371
I314
I102
tp3751
a(I49
I75
I49
I39
I67
I383
I242
I89
tp3752
a(I64
I66
I46
I39
I65
I385
I315
I107
tp3753
a(I69
I67
I48
I39
I67
I382
I334
I110
tp3754
a(I68
I60
I43
I36
I54
I302
I357
I112
tp3755
a(I69
I60
I43
I36
I55
I293
I386
I119
tp3756
a(I74
I55
I45
I39
I65
I351
I426
I121
tp3757
a(I62
I56
I46
I38
I65
I365
I391
I108
tp3758
a(I59
I57
I45
I40
I71
I413
I387
I109
tp3759
a(I58
I59
I46
I41
I72
I404
I367
I108
tp3760
a(I66
I86
I57
I49
I89
I460
I320
I95
tp3761
a(I60
I91
I58
I48
I80
I405
I296
I85
tp3762
a(I61
I92
I56
I49
I83
I400
I298
I82
tp3763
a(I61
I97
I57
I47
I73
I340
I306
I85
tp3764
a(I61
I96
I58
I50
I76
I364
I354
I93
tp3765
a(I53
I75
I48
I40
I54
I312
I359
I92
tp3766
a(I57
I71
I46
I42
I53
I317
I360
I93
tp3767
a(I55
I70
I46
I42
I49
I308
I357
I91
tp3768
a(I48
I67
I43
I45
I53
I312
I442
I102
tp3769
a(I50
I72
I44
I45
I48
I305
I418
I95
tp3770
a(I47
I73
I47
I50
I51
I309
I416
I95
tp3771
a(I40
I66
I46
I50
I59
I339
I422
I100
tp3772
a(I39
I65
I46
I50
I57
I328
I440
I116
tp3773
a(I46
I58
I47
I49
I62
I359
I367
I116
tp3774
a(I42
I63
I52
I48
I60
I324
I344
I114
tp3775
a(I46
I65
I46
I44
I61
I316
I347
I118
tp3776
a(I49
I66
I48
I45
I53
I295
I340
I122
tp3777
a(I58
I76
I47
I43
I59
I298
I299
I112
tp3778
a(I57
I85
I52
I42
I56
I284
I291
I101
tp3779
a(I57
I87
I50
I43
I60
I301
I298
I103
tp3780
a(I59
I86
I51
I44
I71
I362
I285
I96
tp3781
a(I60
I88
I61
I46
I76
I371
I258
I85
tp3782
a(I56
I84
I61
I45
I72
I364
I278
I79
tp3783
a(I52
I77
I59
I46
I70
I346
I298
I79
tp3784
a(I57
I72
I61
I48
I78
I433
I309
I81
tp3785
a(I65
I67
I62
I49
I71
I396
I313
I83
tp3786
a(I70
I73
I53
I48
I75
I404
I311
I83
tp3787
a(I66
I67
I54
I48
I86
I447
I312
I85
tp3788
a(I70
I66
I54
I50
I93
I513
I259
I79
tp3789
a(I76
I80
I56
I55
I112
I592
I243
I87
tp3790
a(I69
I82
I63
I60
I114
I592
I238
I91
tp3791
a(I64
I78
I62
I56
I110
I568
I226
I98
tp3792
a(I66
I80
I65
I56
I102
I541
I244
I103
tp3793
a(I63
I83
I67
I53
I100
I528
I292
I103
tp3794
a(I58
I70
I58
I43
I66
I349
I322
I97
tp3795
a(I55
I71
I54
I34
I60
I313
I320
I90
tp3796
a(I55
I76
I59
I42
I57
I322
I343
I87
tp3797
a(I57
I75
I59
I44
I63
I319
I353
I80
tp3798
a(I61
I68
I55
I44
I62
I342
I332
I79
tp3799
a(I57
I65
I58
I47
I64
I331
I337
I81
tp3800
a(I52
I64
I61
I52
I67
I365
I361
I89
tp3801
a(I50
I86
I57
I47
I69
I379
I337
I81
tp3802
a(I49
I84
I57
I53
I84
I446
I312
I92
tp3803
a(I44
I86
I56
I52
I81
I385
I324
I96
tp3804
a(I49
I86
I55
I52
I84
I388
I316
I102
tp3805
a(I53
I85
I49
I48
I79
I367
I287
I95
tp3806
a(I53
I68
I49
I48
I77
I349
I284
I96
tp3807
a(I56
I71
I48
I37
I52
I250
I354
I109
tp3808
a(I62
I72
I51
I40
I75
I357
I347
I114
tp3809
a(I56
I72
I50
I37
I73
I363
I319
I102
tp3810
a(I53
I74
I47
I34
I74
I360
I344
I111
tp3811
a(I56
I70
I47
I34
I75
I375
I344
I116
tp3812
a(I53
I68
I45
I36
I82
I411
I261
I95
tp3813
a(I44
I64
I43
I35
I57
I304
I254
I89
tp3814
a(I46
I76
I50
I41
I76
I398
I284
I96
tp3815
a(I45
I82
I55
I45
I83
I423
I278
I86
tp3816
a(I41
I71
I56
I46
I82
I395
I304
I83
tp3817
a(I40
I71
I52
I44
I77
I374
I313
I84
tp3818
a(I41
I80
I53
I46
I77
I377
I301
I79
tp3819
a(I48
I74
I50
I42
I58
I301
I298
I81
tp3820
a(I57
I71
I50
I40
I59
I324
I280
I84
tp3821
a(I58
I79
I51
I38
I61
I348
I287
I94
tp3822
a(I60
I85
I57
I43
I64
I346
I281
I90
tp3823
a(I64
I87
I60
I46
I64
I347
I310
I100
tp3824
a(I74
I87
I63
I54
I89
I457
I316
I101
tp3825
a(I72
I85
I62
I56
I89
I508
I379
I111
tp3826
a(I74
I88
I64
I62
I91
I529
I353
I103
tp3827
a(I73
I88
I61
I60
I89
I538
I369
I109
tp3828
a(I72
I82
I58
I56
I89
I539
I352
I100
tp3829
a(I56
I91
I56
I48
I66
I453
I328
I89
tp3830
a(I54
I94
I56
I48
I67
I421
I255
I75
tp3831
a(I54
I87
I54
I44
I65
I384
I259
I75
tp3832
a(I54
I81
I55
I46
I66
I376
I246
I79
tp3833
a(I55
I76
I52
I50
I77
I428
I266
I97
tp3834
a(I55
I64
I50
I50
I76
I410
I318
I111
tp3835
a(I49
I64
I46
I49
I68
I358
I314
I112
tp3836
a(I44
I67
I45
I49
I66
I346
I309
I109
tp3837
a(I40
I64
I42
I48
I66
I369
I310
I100
tp3838
a(I38
I67
I43
I45
I52
I289
I304
I91
tp3839
a(I45
I72
I42
I47
I51
I277
I251
I74
tp3840
a(I61
I63
I44
I44
I51
I261
I261
I69
tp3841
a(I69
I63
I53
I51
I78
I393
I275
I89
tp3842
a(I71
I63
I55
I49
I78
I369
I249
I92
tp3843
a(I70
I59
I56
I52
I83
I392
I215
I90
tp3844
a(I66
I54
I57
I49
I82
I394
I291
I92
tp3845
a(I54
I56
I59
I51
I83
I409
I283
I93
tp3846
a(I47
I57
I58
I41
I61
I310
I262
I74
tp3847
a(I47
I59
I58
I44
I60
I315
I276
I68
tp3848
a(I47
I64
I63
I44
I59
I307
I297
I72
tp3849
a(I51
I76
I63
I46
I63
I327
I254
I74
tp3850
a(I54
I75
I62
I44
I65
I345
I259
I76
tp3851
a(I53
I68
I54
I43
I61
I319
I278
I82
tp3852
a(I61
I79
I54
I43
I72
I398
I298
I88
tp3853
a(I68
I80
I50
I42
I69
I386
I300
I102
tp3854
a(I67
I76
I61
I57
I69
I371
I285
I102
tp3855
a(I66
I75
I64
I59
I66
I334
I282
I102
tp3856
a(I66
I77
I66
I64
I74
I383
I287
I100
tp3857
a(I60
I82
I70
I63
I65
I300
I276
I95
tp3858
a(I57
I86
I70
I63
I71
I345
I330
I87
tp3859
a(I56
I80
I57
I50
I75
I407
I350
I89
tp3860
a(I68
I94
I57
I50
I76
I418
I342
I96
tp3861
a(I72
I98
I56
I44
I68
I372
I348
I97
tp3862
a(I74
I85
I52
I48
I79
I419
I372
I104
tp3863
a(I70
I79
I51
I46
I76
I393
I322
I98
tp3864
a(I67
I80
I50
I45
I74
I358
I295
I95
tp3865
a(I63
I70
I45
I39
I70
I343
I338
I95
tp3866
a(I63
I65
I38
I39
I71
I346
I313
I93
tp3867
a(I59
I58
I32
I35
I56
I258
I282
I90
tp3868
a(I58
I76
I38
I36
I54
I257
I309
I92
tp3869
a(I63
I79
I43
I40
I64
I315
I296
I91
tp3870
a(I60
I77
I46
I45
I63
I307
I268
I92
tp3871
a(I60
I87
I52
I50
I64
I328
I325
I102
tp3872
a(I59
I89
I53
I48
I61
I324
I314
I96
tp3873
a(I61
I74
I47
I46
I63
I335
I270
I91
tp3874
a(I57
I70
I43
I40
I48
I272
I308
I95
tp3875
a(I52
I81
I41
I37
I49
I277
I298
I93
tp3876
a(I45
I75
I47
I41
I48
I249
I276
I85
tp3877
a(I44
I80
I51
I42
I51
I282
I285
I89
tp3878
a(I41
I82
I54
I43
I54
I285
I290
I90
tp3879
a(I42
I85
I55
I44
I51
I258
I281
I82
tp3880
a(I37
I81
I59
I44
I57
I271
I272
I73
tp3881
a(I47
I81
I54
I39
I66
I330
I254
I80
tp3882
a(I48
I82
I56
I46
I73
I358
I248
I79
tp3883
a(I47
I79
I54
I46
I70
I336
I255
I75
tp3884
a(I49
I76
I59
I48
I70
I336
I246
I82
tp3885
a(I55
I75
I57
I52
I72
I342
I329
I94
tp3886
a(I48
I70
I53
I49
I67
I325
I314
I89
tp3887
a(I49
I70
I50
I42
I61
I294
I317
I90
tp3888
a(I50
I70
I52
I46
I72
I353
I316
I92
tp3889
a(I52
I71
I46
I45
I71
I352
I318
I90
tp3890
a(I46
I65
I45
I41
I65
I333
I238
I75
tp3891
a(I46
I66
I49
I49
I74
I380
I248
I74
tp3892
a(I46
I58
I46
I49
I77
I383
I260
I76
tp3893
a(I49
I62
I52
I49
I66
I328
I260
I73
tp3894
a(I46
I66
I52
I50
I65
I321
I289
I70
tp3895
a(I45
I63
I53
I56
I80
I407
I306
I80
tp3896
a(I51
I61
I48
I49
I71
I333
I329
I93
tp3897
a(I53
I64
I48
I48
I70
I343
I325
I96
tp3898
a(I57
I78
I47
I47
I71
I344
I361
I95
tp3899
a(I56
I70
I51
I47
I74
I370
I345
I98
tp3900
a(I56
I69
I49
I38
I53
I271
I330
I95
tp3901
a(I53
I85
I55
I43
I75
I360
I337
I79
tp3902
a(I56
I88
I54
I46
I74
I351
I329
I74
tp3903
a(I51
I72
I46
I43
I74
I353
I320
I90
tp3904
a(I52
I73
I43
I43
I75
I348
I299
I95
tp3905
a(I55
I79
I45
I44
I76
I351
I285
I90
tp3906
a(I54
I71
I41
I40
I56
I256
I248
I88
tp3907
a(I51
I71
I42
I37
I61
I275
I261
I92
tp3908
a(I54
I73
I46
I39
I62
I279
I242
I75
tp3909
a(I63
I82
I51
I41
I62
I287
I233
I65
tp3910
a(I64
I78
I49
I42
I68
I357
I289
I83
tp3911
a(I64
I70
I51
I41
I70
I390
I295
I87
tp3912
a(I65
I72
I53
I41
I67
I382
I295
I79
tp3913
a(I62
I71
I49
I40
I63
I376
I289
I85
tp3914
a(I53
I65
I48
I39
I60
I361
I305
I85
tp3915
a(I49
I62
I47
I36
I51
I286
I276
I72
tp3916
a(I52
I65
I48
I43
I56
I309
I264
I70
tp3917
a(I56
I60
I49
I47
I61
I356
I277
I73
tp3918
a(I56
I62
I49
I46
I62
I365
I296
I73
tp3919
a(I59
I61
I47
I45
I69
I373
I340
I103
tp3920
a(I67
I78
I50
I49
I70
I386
I337
I106
tp3921
a(I66
I74
I47
I45
I62
I349
I353
I108
tp3922
a(I58
I72
I44
I44
I61
I301
I349
I107
tp3923
a(I59
I70
I48
I46
I65
I329
I327
I104
tp3924
a(I63
I65
I48
I47
I60
I315
I299
I73
tp3925
a(I56
I56
I50
I45
I59
I304
I288
I64
tp3926
a(I53
I68
I54
I43
I81
I368
I302
I56
tp3927
a(I54
I69
I54
I41
I75
I343
I292
I58
tp3928
a(I52
I77
I53
I40
I73
I326
I330
I75
tp3929
a(I47
I77
I50
I38
I86
I426
I323
I82
tp3930
a(I45
I73
I49
I36
I94
I449
I337
I82
tp3931
a(I46
I74
I45
I38
I80
I395
I304
I87
tp3932
aas.