(dp0
S'relaxed'
p1
(lp2
(I20
I20
I22
I26
I72
I95
I30
I19
tp3
a(I19
I19
I23
I32
I102
I118
I32
I20
tp4
a(I21
I18
I25
I39
I151
I134
I38
I23
tp5
a(I20
I21
I26
I41
I156
I158
I44
I23
tp6
a(I21
I22
I24
I40
I159
I152
I44
I22
tp7
a(I23
I23
I23
I40
I163
I157
I46
I24
tp8
a(I23
I23
I27
I41
I206
I168
I53
I25
tp9
a(I23
I23
I26
I38
I185
I165
I53
I23
tp10
a(I23
I22
I26
I37
I179
I139
I48
I24
tp11
a(I22
I20
I28
I35
I176
I139
I44
I26
tp12
a(I21
I19
I29
I37
I185
I148
I44
I27
tp13
a(I20
I20
I24
I31
I132
I124
I34
I26
tp14
a(I21
I22
I23
I27
I127
I129
I31
I24
tp15
a(I19
I21
I21
I27
I132
I139
I30
I23
tp16
a(I18
I22
I17
I31
I144
I138
I37
I22
tp17
a(I18
I21
I18
I31
I134
I127
I36
I19
tp18
a(I17
I18
I18
I31
I126
I126
I37
I20
tp19
a(I14
I16
I18
I31
I116
I105
I33
I21
tp20
a(I16
I16
I20
I34
I133
I101
I39
I20
tp21
a(I18
I17
I20
I30
I117
I100
I33
I18
tp22
a(I18
I18
I18
I28
I124
I116
I41
I19
tp23
a(I17
I19
I20
I32
I125
I124
I41
I21
tp24
a(I18
I20
I22
I31
I127
I126
I43
I22
tp25
a(I19
I22
I22
I28
I111
I126
I41
I24
tp26
a(I19
I22
I22
I28
I111
I127
I41
I23
tp27
a(I20
I22
I22
I30
I117
I144
I39
I25
tp28
a(I21
I22
I22
I29
I129
I147
I42
I23
tp29
a(I21
I20
I21
I30
I131
I141
I41
I23
tp30
a(I19
I18
I20
I31
I124
I139
I39
I22
tp31
a(I19
I17
I20
I32
I130
I158
I43
I23
tp32
a(I18
I17
I20
I30
I118
I132
I38
I20
tp33
a(I17
I16
I21
I31
I121
I126
I37
I19
tp34
a(I15
I16
I21
I33
I121
I138
I41
I19
tp35
a(I16
I17
I22
I31
I123
I153
I41
I18
tp36
a(I14
I17
I22
I32
I133
I135
I41
I18
tp37
a(I15
I19
I21
I30
I129
I131
I38
I19
tp38
a(I15
I23
I22
I26
I112
I130
I34
I17
tp39
a(I15
I24
I20
I23
I110
I124
I29
I18
tp40
a(I15
I22
I19
I24
I112
I101
I28
I17
tp41
a(I16
I22
I19
I22
I99
I120
I27
I18
tp42
a(I16
I23
I20
I22
I102
I120
I27
I18
tp43
a(I17
I19
I18
I22
I106
I119
I30
I18
tp44
a(I18
I20
I19
I23
I112
I118
I33
I18
tp45
a(I19
I20
I19
I24
I113
I121
I35
I17
tp46
a(I21
I19
I20
I23
I105
I97
I32
I17
tp47
a(I21
I17
I19
I24
I103
I104
I32
I16
tp48
a(I20
I17
I20
I25
I110
I106
I30
I15
tp49
a(I21
I17
I19
I25
I118
I109
I28
I15
tp50
a(I19
I19
I21
I27
I131
I125
I35
I17
tp51
a(I19
I21
I20
I29
I139
I135
I38
I18
tp52
a(I18
I20
I20
I28
I138
I126
I40
I18
tp53
a(I18
I20
I20
I27
I122
I114
I39
I19
tp54
a(I16
I20
I21
I27
I130
I126
I44
I19
tp55
a(I15
I19
I20
I23
I137
I115
I38
I19
tp56
a(I13
I17
I19
I23
I130
I102
I33
I17
tp57
a(I15
I20
I20
I22
I130
I106
I31
I19
tp58
a(I17
I19
I19
I22
I130
I113
I31
I20
tp59
a(I18
I20
I20
I23
I118
I113
I29
I20
tp60
a(I19
I21
I20
I25
I95
I120
I32
I20
tp61
a(I20
I22
I19
I24
I93
I132
I36
I21
tp62
a(I18
I23
I18
I25
I93
I130
I36
I20
tp63
a(I18
I23
I20
I28
I110
I132
I38
I19
tp64
a(I18
I21
I19
I27
I99
I116
I34
I20
tp65
a(I18
I20
I20
I26
I106
I113
I33
I18
tp66
a(I17
I21
I21
I26
I112
I100
I32
I17
tp67
a(I17
I19
I22
I26
I131
I107
I33
I16
tp68
a(I18
I17
I22
I27
I116
I99
I33
I16
tp69
a(I20
I20
I22
I29
I119
I96
I32
I17
tp70
a(I20
I19
I22
I29
I158
I110
I33
I18
tp71
a(I21
I16
I21
I32
I163
I123
I37
I20
tp72
a(I21
I19
I20
I33
I152
I128
I36
I20
tp73
a(I19
I19
I19
I31
I155
I132
I37
I21
tp74
a(I17
I17
I18
I29
I157
I135
I37
I21
tp75
a(I17
I18
I20
I29
I121
I125
I37
I24
tp76
a(I16
I20
I21
I27
I107
I119
I32
I23
tp77
a(I17
I19
I21
I29
I135
I115
I36
I23
tp78
a(I17
I19
I24
I31
I143
I118
I38
I23
tp79
a(I18
I20
I23
I33
I160
I127
I42
I23
tp80
a(I20
I19
I22
I35
I153
I117
I41
I21
tp81
a(I20
I19
I21
I35
I173
I122
I44
I20
tp82
a(I18
I18
I20
I35
I159
I127
I42
I18
tp83
a(I18
I18
I16
I33
I152
I126
I39
I17
tp84
a(I18
I17
I17
I30
I133
I133
I36
I17
tp85
a(I18
I19
I17
I27
I138
I151
I38
I18
tp86
a(I16
I16
I18
I25
I120
I140
I34
I18
tp87
a(I17
I18
I20
I22
I125
I137
I32
I20
tp88
a(I15
I17
I21
I23
I142
I135
I33
I21
tp89
a(I15
I18
I20
I23
I136
I117
I31
I21
tp90
a(I15
I19
I21
I23
I137
I95
I26
I20
tp91
a(I16
I20
I21
I24
I132
I105
I27
I20
tp92
a(I15
I22
I19
I22
I118
I109
I25
I19
tp93
a(I16
I25
I19
I26
I150
I111
I27
I18
tp94
a(I18
I26
I21
I28
I163
I129
I32
I18
tp95
a(I18
I26
I24
I27
I156
I126
I32
I18
tp96
a(I17
I26
I23
I27
I155
I120
I31
I17
tp97
a(I18
I25
I24
I27
I158
I114
I31
I18
tp98
a(I18
I22
I24
I23
I105
I104
I29
I18
tp99
a(I17
I21
I24
I23
I96
I103
I28
I19
tp100
a(I15
I20
I23
I25
I108
I111
I29
I18
tp101
a(I17
I21
I23
I24
I112
I115
I31
I19
tp102
a(I17
I19
I23
I26
I108
I109
I32
I19
tp103
a(I16
I20
I23
I25
I112
I111
I31
I18
tp104
a(I18
I21
I22
I25
I109
I97
I28
I17
tp105
a(I19
I22
I19
I24
I98
I98
I25
I19
tp106
a(I17
I21
I19
I25
I93
I98
I24
I18
tp107
a(I20
I21
I19
I28
I98
I112
I29
I17
tp108
a(I21
I20
I18
I30
I105
I122
I30
I17
tp109
a(I20
I19
I18
I30
I104
I118
I30
I18
tp110
a(I18
I19
I19
I31
I103
I108
I30
I17
tp111
a(I18
I19
I20
I32
I103
I130
I35
I18
tp112
a(I18
I20
I20
I30
I124
I129
I32
I20
tp113
a(I18
I22
I22
I28
I118
I120
I32
I19
tp114
a(I18
I22
I22
I26
I116
I133
I31
I18
tp115
a(I20
I20
I22
I25
I116
I136
I32
I17
tp116
a(I19
I18
I21
I24
I132
I118
I30
I18
tp117
a(I17
I20
I22
I24
I114
I109
I29
I16
tp118
a(I16
I17
I23
I27
I125
I122
I30
I17
tp119
a(I16
I18
I24
I27
I127
I108
I30
I19
tp120
a(I16
I19
I26
I28
I139
I127
I31
I20
tp121
a(I16
I23
I26
I29
I132
I130
I29
I18
tp122
a(I15
I21
I27
I29
I124
I126
I30
I17
tp123
a(I18
I20
I26
I30
I118
I116
I33
I18
tp124
a(I18
I20
I25
I33
I138
I130
I35
I18
tp125
a(I17
I19
I22
I32
I133
I116
I34
I17
tp126
a(I17
I17
I22
I32
I130
I113
I34
I18
tp127
a(I17
I17
I20
I31
I130
I120
I33
I18
tp128
a(I15
I20
I19
I28
I129
I140
I31
I18
tp129
a(I18
I22
I20
I28
I115
I136
I30
I18
tp130
a(I17
I22
I22
I29
I127
I147
I35
I19
tp131
a(I20
I21
I23
I27
I123
I145
I38
I22
tp132
a(I20
I22
I25
I27
I127
I149
I40
I24
tp133
a(I20
I20
I25
I28
I134
I126
I38
I22
tp134
a(I16
I17
I23
I26
I128
I126
I40
I22
tp135
a(I17
I17
I23
I26
I108
I109
I37
I23
tp136
a(I15
I18
I22
I27
I123
I103
I33
I20
tp137
a(I15
I17
I20
I26
I119
I89
I29
I19
tp138
a(I17
I17
I23
I25
I104
I86
I29
I20
tp139
a(I18
I18
I23
I24
I97
I83
I28
I23
tp140
a(I18
I22
I22
I22
I115
I81
I27
I22
tp141
a(I19
I21
I21
I25
I110
I83
I28
I22
tp142
a(I19
I22
I21
I26
I109
I90
I31
I19
tp143
a(I18
I21
I18
I25
I119
I126
I33
I19
tp144
a(I17
I21
I18
I26
I126
I122
I32
I19
tp145
a(I17
I18
I17
I28
I130
I136
I35
I19
tp146
a(I16
I19
I21
I28
I135
I143
I35
I20
tp147
a(I17
I18
I19
I28
I144
I156
I36
I20
tp148
a(I19
I19
I24
I29
I138
I135
I35
I21
tp149
a(I19
I19
I25
I30
I133
I143
I36
I19
tp150
a(I20
I18
I26
I29
I109
I129
I32
I17
tp151
a(I20
I20
I25
I28
I123
I141
I35
I16
tp152
a(I19
I20
I28
I29
I118
I138
I34
I18
tp153
a(I17
I20
I25
I30
I119
I134
I34
I18
tp154
a(I17
I20
I25
I28
I124
I121
I34
I21
tp155
a(I16
I23
I25
I26
I147
I136
I35
I21
tp156
a(I16
I21
I25
I23
I129
I116
I33
I20
tp157
asS'left'
p158
(lp159
(I409
I65
I58
I154
I228
I222
I56
I56
tp160
a(I340
I64
I57
I137
I222
I216
I57
I54
tp161
a(I361
I72
I55
I121
I215
I208
I61
I65
tp162
a(I353
I89
I58
I156
I254
I195
I59
I69
tp163
a(I380
I95
I56
I158
I281
I203
I60
I68
tp164
a(I376
I97
I58
I164
I290
I223
I59
I69
tp165
a(I457
I98
I56
I152
I302
I231
I57
I71
tp166
a(I444
I95
I59
I157
I297
I187
I59
I60
tp167
a(I393
I79
I58
I131
I276
I191
I62
I52
tp168
a(I365
I66
I56
I126
I250
I186
I60
I52
tp169
a(I395
I68
I51
I118
I247
I192
I60
I48
tp170
a(I293
I65
I49
I113
I224
I177
I58
I71
tp171
a(I278
I57
I42
I97
I215
I178
I50
I72
tp172
a(I272
I54
I42
I137
I276
I207
I53
I75
tp173
a(I252
I62
I49
I173
I292
I223
I65
I75
tp174
a(I238
I65
I60
I213
I300
I245
I81
I85
tp175
a(I270
I66
I61
I220
I310
I270
I83
I66
tp176
a(I276
I74
I63
I258
I364
I264
I82
I66
tp177
a(I299
I77
I60
I240
I306
I240
I78
I63
tp178
a(I296
I73
I59
I219
I328
I240
I74
I65
tp179
a(I280
I63
I54
I178
I316
I218
I51
I54
tp180
a(I314
I75
I52
I169
I305
I195
I49
I69
tp181
a(I315
I80
I50
I107
I240
I189
I51
I72
tp182
a(I323
I93
I58
I106
I271
I206
I53
I72
tp183
a(I319
I95
I57
I96
I259
I188
I50
I72
tp184
a(I327
I102
I55
I89
I236
I164
I56
I75
tp185
a(I290
I97
I62
I95
I242
I167
I62
I65
tp186
a(I321
I95
I61
I88
I240
I179
I63
I61
tp187
a(I308
I87
I59
I82
I244
I181
I63
I59
tp188
a(I317
I89
I61
I114
I260
I204
I73
I55
tp189
a(I293
I89
I63
I138
I300
I240
I90
I51
tp190
a(I331
I94
I64
I150
I315
I266
I95
I51
tp191
a(I406
I90
I65
I156
I375
I288
I110
I70
tp192
a(I420
I86
I63
I154
I367
I281
I115
I73
tp193
a(I422
I99
I63
I138
I349
I288
I117
I77
tp194
a(I440
I93
I64
I130
I386
I315
I119
I80
tp195
a(I422
I87
I65
I149
I483
I315
I113
I84
tp196
a(I383
I90
I64
I179
I500
I331
I107
I73
tp197
a(I481
I96
I68
I190
I505
I332
I109
I115
tp198
a(I513
I88
I67
I197
I499
I309
I102
I118
tp199
a(I529
I88
I65
I192
I478
I257
I88
I123
tp200
a(I539
I97
I65
I175
I419
I270
I103
I119
tp201
a(I540
I98
I68
I161
I393
I277
I103
I122
tp202
a(I470
I91
I69
I172
I510
I339
I109
I95
tp203
a(I497
I101
I71
I169
I513
I410
I111
I107
tp204
a(I495
I105
I72
I166
I487
I413
I106
I116
tp205
a(I470
I102
I69
I154
I445
I392
I91
I120
tp206
a(I432
I121
I64
I138
I446
I376
I82
I116
tp207
a(I410
I123
I66
I121
I335
I333
I67
I106
tp208
a(I337
I112
I69
I163
I422
I284
I73
I98
tp209
a(I386
I127
I70
I180
I439
I282
I76
I91
tp210
a(I398
I124
I68
I185
I451
I266
I77
I87
tp211
a(I404
I99
I69
I178
I405
I231
I75
I93
tp212
a(I480
I104
I66
I175
I381
I245
I68
I99
tp213
a(I470
I105
I58
I155
I293
I201
I63
I94
tp214
a(I442
I81
I57
I164
I379
I256
I61
I96
tp215
a(I450
I88
I69
I188
I388
I275
I69
I123
tp216
a(I438
I93
I70
I193
I398
I355
I80
I127
tp217
a(I362
I85
I66
I188
I383
I334
I80
I128
tp218
a(I389
I91
I66
I168
I423
I343
I75
I126
tp219
a(I409
I91
I66
I167
I334
I309
I84
I121
tp220
a(I404
I101
I62
I169
I315
I301
I81
I103
tp221
a(I426
I108
I62
I182
I328
I212
I72
I119
tp222
a(I427
I108
I63
I188
I340
I206
I81
I116
tp223
a(I413
I108
I62
I195
I271
I196
I83
I115
tp224
a(I363
I108
I56
I175
I289
I205
I83
I108
tp225
a(I347
I92
I47
I157
I289
I192
I80
I102
tp226
a(I332
I79
I47
I156
I269
I221
I81
I72
tp227
a(I321
I90
I50
I153
I242
I222
I73
I76
tp228
a(I304
I85
I53
I144
I248
I219
I71
I76
tp229
a(I288
I92
I53
I150
I302
I213
I70
I77
tp230
a(I314
I91
I53
I136
I285
I216
I67
I70
tp231
a(I298
I95
I48
I127
I333
I194
I66
I66
tp232
a(I325
I85
I49
I135
I354
I191
I74
I56
tp233
a(I312
I89
I49
I155
I510
I262
I99
I58
tp234
a(I307
I83
I51
I159
I493
I257
I104
I66
tp235
a(I290
I84
I53
I188
I495
I263
I106
I66
tp236
a(I324
I85
I58
I202
I531
I285
I109
I66
tp237
a(I306
I89
I57
I214
I518
I288
I107
I66
tp238
a(I361
I83
I58
I230
I370
I239
I84
I78
tp239
a(I411
I76
I55
I229
I344
I236
I76
I78
tp240
a(I443
I92
I61
I205
I361
I263
I76
I93
tp241
a(I415
I89
I59
I191
I256
I235
I73
I95
tp242
a(I391
I86
I67
I212
I264
I225
I64
I96
tp243
a(I377
I100
I68
I183
I260
I216
I66
I87
tp244
a(I351
I108
I70
I199
I299
I212
I60
I81
tp245
a(I333
I93
I64
I203
I289
I198
I53
I66
tp246
a(I339
I93
I65
I201
I295
I184
I51
I69
tp247
a(I343
I109
I60
I178
I305
I190
I56
I66
tp248
a(I330
I96
I64
I184
I336
I186
I57
I74
tp249
a(I293
I92
I65
I187
I298
I180
I57
I72
tp250
a(I285
I104
I77
I223
I331
I179
I62
I72
tp251
a(I295
I107
I77
I233
I331
I191
I60
I66
tp252
a(I381
I87
I74
I218
I314
I208
I62
I78
tp253
a(I401
I89
I70
I211
I288
I198
I57
I86
tp254
a(I405
I106
I76
I189
I292
I219
I57
I87
tp255
a(I394
I94
I64
I158
I258
I209
I52
I87
tp256
a(I425
I91
I60
I141
I268
I221
I54
I90
tp257
a(I417
I91
I59
I153
I317
I206
I55
I85
tp258
a(I422
I91
I60
I180
I343
I206
I54
I72
tp259
a(I493
I81
I77
I215
I455
I269
I66
I90
tp260
a(I476
I85
I85
I215
I479
I267
I67
I89
tp261
a(I438
I87
I86
I221
I483
I277
I78
I89
tp262
a(I395
I99
I88
I209
I490
I293
I77
I87
tp263
a(I406
I109
I86
I186
I465
I296
I80
I89
tp264
a(I383
I105
I69
I155
I351
I240
I74
I73
tp265
a(I443
I105
I58
I132
I318
I247
I85
I77
tp266
a(I460
I102
I66
I126
I292
I217
I73
I71
tp267
a(I434
I96
I72
I144
I241
I217
I75
I70
tp268
a(I374
I95
I76
I139
I307
I237
I81
I66
tp269
a(I326
I87
I71
I123
I305
I217
I80
I61
tp270
a(I255
I88
I73
I124
I343
I216
I78
I63
tp271
a(I353
I92
I66
I121
I404
I246
I92
I69
tp272
a(I352
I98
I57
I134
I429
I254
I101
I71
tp273
a(I519
I89
I54
I151
I404
I242
I102
I67
tp274
a(I525
I94
I52
I158
I450
I293
I104
I75
tp275
a(I530
I94
I56
I174
I476
I293
I98
I77
tp276
a(I463
I87
I57
I170
I464
I299
I102
I85
tp277
a(I505
I78
I64
I215
I539
I380
I112
I82
tp278
a(I357
I72
I64
I220
I540
I425
I111
I85
tp279
a(I340
I84
I72
I219
I510
I415
I111
I79
tp280
a(I350
I89
I71
I210
I474
I439
I118
I75
tp281
a(I356
I92
I75
I215
I459
I437
I107
I64
tp282
a(I315
I100
I71
I157
I355
I367
I83
I61
tp283
a(I311
I103
I74
I142
I362
I354
I98
I60
tp284
a(I516
I92
I68
I146
I348
I335
I94
I65
tp285
a(I526
I94
I66
I146
I325
I296
I92
I60
tp286
a(I629
I104
I59
I139
I306
I270
I95
I63
tp287
a(I646
I91
I55
I124
I287
I264
I101
I67
tp288
a(I670
I99
I54
I127
I276
I211
I80
I75
tp289
a(I552
I101
I55
I125
I315
I221
I79
I72
tp290
a(I527
I97
I64
I138
I428
I334
I87
I83
tp291
a(I453
I91
I64
I145
I440
I337
I87
I94
tp292
a(I443
I101
I67
I161
I443
I327
I81
I97
tp293
a(I391
I96
I70
I160
I434
I321
I81
I86
tp294
a(I375
I94
I72
I169
I405
I304
I80
I88
tp295
a(I430
I98
I67
I163
I294
I159
I60
I82
tp296
a(I378
I94
I70
I157
I290
I195
I56
I66
tp297
a(I376
I84
I68
I144
I267
I252
I52
I60
tp298
a(I404
I85
I60
I134
I261
I267
I51
I69
tp299
a(I382
I88
I54
I116
I279
I281
I53
I63
tp300
a(I342
I76
I51
I122
I268
I293
I54
I64
tp301
a(I387
I88
I51
I131
I238
I263
I54
I65
tp302
a(I384
I88
I53
I133
I258
I211
I54
I64
tp303
a(I403
I85
I58
I146
I248
I193
I57
I63
tp304
a(I429
I108
I61
I150
I253
I171
I55
I81
tp305
a(I450
I113
I62
I137
I275
I172
I52
I77
tp306
a(I414
I112
I65
I164
I338
I199
I49
I81
tp307
a(I394
I115
I72
I183
I351
I200
I60
I90
tp308
a(I366
I116
I86
I210
I407
I207
I65
I89
tp309
a(I373
I93
I83
I212
I408
I207
I62
I79
tp310
asS'right'
p311
(lp312
(I125
I85
I66
I467
I264
I381
I88
I178
tp313
a(I125
I87
I68
I447
I240
I371
I88
I160
tp314
a(I98
I80
I73
I402
I279
I375
I86
I173
tp315
a(I104
I90
I72
I368
I279
I361
I82
I205
tp316
a(I109
I91
I71
I375
I283
I379
I81
I199
tp317
a(I139
I98
I70
I336
I282
I346
I94
I214
tp318
a(I141
I98
I68
I315
I321
I395
I88
I234
tp319
a(I135
I108
I64
I297
I286
I393
I96
I236
tp320
a(I156
I100
I59
I291
I279
I460
I94
I200
tp321
a(I163
I101
I62
I280
I281
I444
I96
I208
tp322
a(I152
I110
I63
I280
I329
I418
I79
I176
tp323
a(I161
I110
I62
I290
I319
I450
I78
I156
tp324
a(I173
I112
I59
I307
I319
I456
I73
I230
tp325
a(I146
I112
I67
I334
I335
I406
I82
I231
tp326
a(I138
I108
I72
I373
I329
I425
I92
I234
tp327
a(I130
I91
I96
I371
I321
I450
I114
I239
tp328
a(I149
I88
I101
I371
I319
I390
I140
I240
tp329
a(I185
I86
I100
I352
I318
I377
I144
I205
tp330
a(I194
I87
I99
I334
I329
I351
I144
I228
tp331
a(I224
I95
I93
I396
I337
I333
I137
I225
tp332
a(I221
I92
I66
I382
I302
I282
I117
I227
tp333
a(I202
I100
I55
I389
I279
I248
I96
I244
tp334
a(I158
I88
I55
I402
I274
I260
I92
I212
tp335
a(I176
I91
I50
I395
I229
I266
I94
I196
tp336
a(I152
I92
I59
I341
I229
I311
I105
I204
tp337
a(I149
I95
I61
I344
I238
I334
I117
I197
tp338
a(I163
I96
I77
I349
I249
I379
I113
I170
tp339
a(I163
I90
I80
I392
I247
I353
I110
I160
tp340
a(I135
I84
I84
I384
I236
I369
I112
I152
tp341
a(I111
I74
I77
I348
I268
I393
I99
I133
tp342
a(I120
I79
I78
I362
I294
I380
I88
I134
tp343
a(I207
I71
I73
I362
I287
I384
I84
I150
tp344
a(I323
I74
I76
I332
I319
I496
I109
I158
tp345
a(I432
I76
I75
I324
I344
I490
I112
I153
tp346
a(I463
I82
I80
I329
I307
I538
I120
I136
tp347
a(I474
I77
I80
I394
I292
I561
I121
I221
tp348
a(I455
I78
I74
I398
I314
I536
I119
I223
tp349
a(I401
I107
I74
I374
I278
I478
I98
I230
tp350
a(I291
I107
I71
I401
I259
I474
I99
I225
tp351
a(I252
I105
I67
I423
I303
I445
I97
I250
tp352
a(I276
I107
I71
I355
I302
I431
I110
I179
tp353
a(I254
I109
I68
I321
I276
I447
I110
I170
tp354
a(I235
I77
I65
I330
I286
I411
I109
I181
tp355
a(I218
I73
I60
I340
I282
I407
I100
I192
tp356
a(I205
I82
I60
I375
I231
I340
I96
I159
tp357
a(I137
I83
I58
I400
I211
I315
I76
I161
tp358
a(I179
I89
I80
I489
I243
I373
I85
I200
tp359
a(I223
I92
I80
I490
I293
I388
I91
I177
tp360
a(I267
I96
I87
I502
I303
I414
I108
I165
tp361
a(I278
I99
I91
I452
I311
I394
I111
I169
tp362
a(I280
I97
I91
I438
I343
I447
I113
I177
tp363
a(I247
I85
I74
I347
I339
I345
I113
I132
tp364
a(I200
I86
I74
I354
I310
I408
I110
I156
tp365
a(I154
I88
I66
I315
I300
I408
I88
I179
tp366
a(I139
I87
I60
I305
I299
I410
I77
I172
tp367
a(I129
I85
I55
I315
I266
I385
I79
I167
tp368
a(I148
I87
I58
I310
I230
I381
I71
I229
tp369
a(I171
I108
I64
I339
I223
I329
I75
I217
tp370
a(I167
I108
I69
I354
I227
I314
I86
I201
tp371
a(I180
I103
I76
I354
I212
I302
I93
I251
tp372
a(I178
I105
I84
I401
I213
I270
I94
I267
tp373
a(I184
I113
I101
I413
I218
I306
I97
I223
tp374
a(I158
I100
I99
I382
I203
I287
I92
I220
tp375
a(I176
I96
I96
I347
I180
I338
I82
I237
tp376
a(I167
I90
I89
I335
I210
I339
I81
I194
tp377
a(I176
I91
I80
I254
I208
I335
I77
I162
tp378
a(I159
I77
I59
I241
I216
I350
I88
I157
tp379
a(I158
I68
I69
I236
I233
I375
I92
I152
tp380
a(I433
I81
I88
I393
I252
I338
I106
I148
tp381
a(I448
I87
I103
I420
I234
I350
I110
I159
tp382
a(I460
I91
I106
I422
I237
I346
I108
I163
tp383
a(I514
I92
I103
I442
I236
I344
I96
I160
tp384
a(I535
I92
I94
I479
I229
I366
I96
I162
tp385
a(I359
I83
I77
I382
I223
I352
I85
I216
tp386
a(I355
I93
I62
I379
I248
I371
I85
I208
tp387
a(I353
I107
I66
I465
I286
I418
I85
I234
tp388
a(I358
I113
I83
I515
I315
I395
I83
I224
tp389
a(I376
I115
I82
I474
I324
I410
I93
I255
tp390
a(I366
I114
I81
I475
I341
I428
I97
I216
tp391
a(I412
I104
I80
I479
I327
I406
I100
I212
tp392
a(I400
I85
I81
I390
I290
I388
I102
I181
tp393
a(I322
I86
I63
I305
I272
I372
I102
I244
tp394
a(I280
I82
I61
I383
I305
I339
I101
I221
tp395
a(I278
I79
I65
I367
I288
I317
I102
I203
tp396
a(I279
I76
I60
I354
I292
I345
I103
I198
tp397
a(I293
I107
I58
I380
I314
I328
I100
I204
tp398
a(I301
I103
I59
I393
I318
I434
I99
I134
tp399
a(I319
I100
I63
I431
I295
I399
I95
I136
tp400
a(I312
I101
I63
I451
I288
I385
I86
I132
tp401
a(I290
I106
I62
I429
I307
I352
I68
I135
tp402
a(I286
I73
I57
I414
I297
I354
I67
I129
tp403
a(I280
I72
I72
I415
I305
I339
I76
I113
tp404
a(I266
I80
I69
I302
I273
I336
I66
I109
tp405
a(I304
I82
I69
I308
I271
I346
I69
I139
tp406
a(I259
I79
I69
I334
I296
I346
I71
I152
tp407
a(I252
I79
I67
I367
I294
I392
I80
I150
tp408
a(I254
I73
I53
I342
I267
I296
I72
I160
tp409
a(I314
I90
I57
I335
I272
I333
I72
I155
tp410
a(I293
I89
I66
I364
I278
I336
I67
I170
tp411
a(I282
I87
I67
I337
I222
I335
I68
I183
tp412
a(I298
I92
I72
I288
I210
I351
I66
I196
tp413
a(I308
I94
I80
I295
I211
I351
I72
I190
tp414
a(I221
I72
I82
I299
I208
I337
I78
I187
tp415
a(I262
I72
I71
I293
I191
I328
I88
I162
tp416
a(I259
I72
I72
I310
I176
I333
I92
I184
tp417
a(I248
I63
I71
I351
I193
I275
I91
I181
tp418
a(I239
I59
I60
I345
I177
I276
I88
I182
tp419
a(I282
I69
I71
I437
I227
I266
I93
I206
tp420
a(I264
I70
I78
I399
I240
I277
I88
I203
tp421
a(I266
I68
I75
I396
I243
I271
I88
I166
tp422
a(I294
I72
I69
I380
I239
I264
I84
I171
tp423
a(I263
I85
I61
I390
I301
I293
I74
I172
tp424
a(I245
I83
I58
I391
I290
I291
I80
I181
tp425
a(I297
I86
I59
I408
I319
I381
I77
I181
tp426
a(I285
I86
I61
I384
I316
I368
I83
I167
tp427
a(I297
I79
I59
I330
I269
I329
I80
I138
tp428
a(I338
I79
I57
I264
I251
I333
I83
I144
tp429
a(I337
I88
I62
I262
I256
I322
I88
I133
tp430
a(I296
I90
I62
I250
I248
I310
I91
I148
tp431
a(I268
I98
I66
I293
I241
I354
I90
I155
tp432
a(I267
I91
I69
I360
I259
I364
I92
I170
tp433
a(I266
I86
I74
I377
I269
I392
I93
I184
tp434
a(I260
I75
I67
I384
I266
I424
I80
I191
tp435
a(I283
I71
I68
I394
I328
I473
I79
I172
tp436
a(I286
I62
I68
I439
I356
I434
I87
I171
tp437
a(I278
I68
I65
I415
I353
I431
I84
I166
tp438
a(I248
I67
I59
I407
I350
I417
I83
I176
tp439
a(I248
I72
I59
I395
I372
I393
I81
I163
tp440
a(I222
I77
I57
I382
I302
I244
I76
I174
tp441
a(I223
I74
I52
I321
I296
I341
I56
I172
tp442
a(I215
I71
I43
I312
I282
I374
I69
I204
tp443
a(I200
I83
I38
I292
I245
I358
I64
I178
tp444
a(I179
I77
I41
I308
I214
I349
I69
I184
tp445
a(I183
I84
I54
I321
I211
I345
I73
I198
tp446
a(I201
I88
I60
I313
I187
I295
I84
I214
tp447
a(I202
I94
I63
I336
I255
I306
I76
I189
tp448
a(I164
I89
I68
I336
I279
I300
I84
I189
tp449
a(I166
I98
I75
I335
I282
I324
I84
I200
tp450
a(I145
I90
I70
I331
I293
I329
I83
I179
tp451
a(I135
I90
I67
I323
I295
I286
I82
I194
tp452
a(I151
I89
I77
I282
I264
I314
I79
I188
tp453
a(I151
I86
I74
I342
I252
I318
I83
I185
tp454
a(I161
I77
I80
I337
I254
I297
I94
I214
tp455
a(I163
I82
I80
I379
I258
I302
I94
I222
tp456
a(I142
I74
I78
I386
I272
I355
I99
I187
tp457
a(I174
I68
I67
I377
I261
I350
I111
I178
tp458
a(I193
I78
I80
I333
I263
I359
I114
I199
tp459
a(I195
I76
I69
I313
I258
I360
I107
I161
tp460
a(I198
I69
I65
I254
I237
I356
I106
I155
tp461
a(I196
I71
I65
I260
I257
I305
I95
I163
tp462
asS'fist'
p463
(lp464
(I279
I76
I94
I382
I239
I457
I257
I408
tp465
a(I298
I80
I109
I414
I263
I458
I287
I462
tp466
a(I311
I79
I107
I396
I260
I457
I307
I482
tp467
a(I289
I75
I106
I346
I266
I432
I327
I452
tp468
a(I293
I80
I112
I342
I272
I470
I410
I479
tp469
a(I333
I84
I118
I352
I279
I427
I420
I493
tp470
a(I297
I79
I118
I328
I240
I413
I412
I391
tp471
a(I272
I86
I131
I353
I224
I357
I389
I385
tp472
a(I303
I81
I128
I336
I205
I376
I395
I431
tp473
a(I341
I82
I136
I373
I193
I329
I313
I541
tp474
a(I311
I77
I139
I337
I191
I387
I328
I548
tp475
a(I328
I86
I133
I402
I213
I418
I359
I568
tp476
a(I328
I82
I134
I395
I219
I426
I397
I547
tp477
a(I316
I85
I137
I411
I221
I409
I390
I515
tp478
a(I277
I83
I131
I375
I243
I436
I392
I401
tp479
a(I275
I89
I124
I377
I238
I434
I413
I396
tp480
a(I291
I81
I112
I413
I225
I385
I416
I467
tp481
a(I306
I87
I118
I398
I216
I390
I449
I476
tp482
a(I295
I85
I120
I375
I214
I387
I458
I497
tp483
a(I269
I84
I115
I380
I207
I352
I454
I465
tp484
a(I256
I80
I115
I382
I230
I421
I420
I443
tp485
a(I268
I77
I121
I299
I251
I437
I419
I446
tp486
a(I265
I66
I97
I310
I250
I417
I357
I465
tp487
a(I269
I60
I87
I340
I267
I470
I342
I445
tp488
a(I297
I67
I91
I372
I307
I554
I332
I500
tp489
a(I289
I65
I91
I362
I326
I471
I325
I498
tp490
a(I258
I69
I89
I331
I316
I472
I325
I405
tp491
a(I263
I76
I101
I364
I337
I479
I322
I414
tp492
a(I247
I82
I108
I338
I363
I456
I346
I402
tp493
a(I213
I73
I98
I304
I320
I369
I361
I317
tp494
a(I206
I69
I98
I357
I298
I361
I389
I344
tp495
a(I187
I67
I94
I338
I298
I374
I400
I399
tp496
a(I165
I60
I87
I413
I277
I375
I375
I366
tp497
a(I165
I55
I77
I426
I241
I398
I369
I372
tp498
a(I173
I60
I87
I435
I240
I376
I431
I417
tp499
a(I183
I62
I86
I397
I236
I408
I417
I393
tp500
a(I209
I57
I85
I399
I225
I377
I369
I447
tp501
a(I208
I63
I109
I280
I212
I383
I405
I451
tp502
a(I209
I64
I112
I243
I187
I336
I382
I425
tp503
a(I202
I62
I106
I255
I189
I314
I298
I398
tp504
a(I209
I62
I117
I291
I211
I277
I306
I413
tp505
a(I185
I61
I120
I314
I202
I320
I343
I289
tp506
a(I182
I51
I92
I304
I201
I279
I324
I269
tp507
a(I172
I57
I95
I396
I217
I274
I335
I273
tp508
a(I164
I60
I99
I391
I244
I290
I333
I254
tp509
a(I228
I67
I86
I370
I233
I390
I327
I378
tp510
a(I250
I69
I82
I371
I247
I361
I309
I411
tp511
a(I260
I72
I89
I392
I252
I381
I306
I421
tp512
a(I278
I63
I96
I314
I259
I374
I283
I456
tp513
a(I325
I60
I95
I271
I234
I374
I328
I469
tp514
a(I348
I64
I100
I294
I238
I275
I390
I483
tp515
a(I338
I69
I98
I267
I245
I375
I399
I464
tp516
a(I380
I70
I97
I235
I287
I367
I388
I505
tp517
a(I407
I78
I95
I236
I296
I429
I427
I512
tp518
a(I386
I78
I90
I231
I288
I424
I392
I581
tp519
a(I362
I67
I81
I209
I264
I419
I321
I513
tp520
a(I366
I64
I94
I238
I276
I350
I313
I502
tp521
a(I348
I60
I87
I241
I227
I346
I311
I602
tp522
a(I326
I58
I78
I244
I192
I367
I262
I649
tp523
a(I323
I68
I85
I269
I214
I371
I256
I579
tp524
a(I355
I69
I81
I244
I224
I365
I246
I676
tp525
a(I356
I70
I80
I232
I203
I373
I251
I693
tp526
a(I333
I73
I95
I234
I198
I397
I261
I589
tp527
a(I347
I72
I97
I275
I213
I302
I293
I584
tp528
a(I341
I61
I90
I277
I221
I305
I302
I596
tp529
a(I304
I63
I93
I280
I210
I305
I359
I462
tp530
a(I300
I65
I91
I268
I193
I259
I347
I448
tp531
a(I289
I61
I77
I277
I214
I244
I341
I422
tp532
a(I278
I59
I76
I222
I207
I299
I340
I350
tp533
a(I276
I59
I74
I202
I184
I299
I352
I441
tp534
a(I234
I59
I74
I210
I197
I292
I293
I440
tp535
a(I235
I50
I68
I239
I244
I366
I326
I450
tp536
a(I233
I50
I73
I241
I255
I377
I341
I464
tp537
a(I210
I50
I70
I244
I257
I334
I313
I464
tp538
a(I222
I53
I73
I251
I263
I358
I320
I361
tp539
a(I286
I52
I79
I243
I253
I369
I332
I400
tp540
a(I283
I52
I77
I243
I218
I315
I308
I405
tp541
a(I289
I52
I75
I239
I222
I373
I301
I403
tp542
a(I301
I68
I75
I290
I236
I432
I322
I445
tp543
a(I309
I73
I74
I303
I237
I425
I360
I466
tp544
a(I270
I73
I85
I312
I243
I429
I375
I453
tp545
a(I269
I79
I92
I327
I277
I468
I371
I481
tp546
a(I281
I81
I93
I317
I245
I402
I359
I513
tp547
a(I279
I65
I92
I274
I234
I347
I340
I494
tp548
a(I262
I61
I89
I339
I236
I359
I293
I509
tp549
a(I247
I58
I72
I334
I251
I380
I258
I505
tp550
a(I249
I54
I69
I303
I205
I315
I277
I468
tp551
a(I252
I54
I85
I320
I213
I296
I318
I423
tp552
a(I230
I58
I99
I321
I209
I289
I326
I361
tp553
a(I233
I60
I106
I249
I197
I326
I315
I319
tp554
a(I253
I66
I106
I254
I188
I297
I331
I436
tp555
a(I306
I68
I103
I248
I206
I311
I324
I475
tp556
a(I293
I68
I101
I243
I235
I363
I297
I485
tp557
a(I307
I73
I97
I245
I239
I368
I316
I529
tp558
a(I343
I71
I92
I224
I245
I311
I296
I560
tp559
a(I322
I68
I100
I224
I256
I385
I318
I458
tp560
a(I279
I72
I104
I249
I243
I403
I296
I409
tp561
a(I282
I70
I92
I254
I217
I364
I279
I391
tp562
a(I259
I61
I81
I285
I236
I393
I278
I336
tp563
a(I198
I64
I88
I295
I270
I439
I343
I250
tp564
a(I203
I64
I85
I325
I269
I451
I316
I253
tp565
a(I170
I56
I80
I313
I270
I444
I325
I236
tp566
a(I205
I62
I78
I302
I266
I442
I363
I317
tp567
a(I236
I67
I81
I271
I239
I413
I345
I349
tp568
a(I236
I65
I73
I283
I191
I347
I275
I379
tp569
a(I264
I64
I69
I289
I171
I218
I282
I425
tp570
a(I290
I69
I72
I284
I202
I267
I401
I451
tp571
a(I281
I67
I75
I297
I206
I260
I404
I461
tp572
a(I263
I75
I114
I303
I215
I259
I412
I433
tp573
a(I268
I79
I122
I348
I232
I272
I441
I439
tp574
a(I247
I91
I139
I404
I237
I324
I437
I407
tp575
a(I237
I90
I141
I401
I295
I339
I339
I385
tp576
a(I219
I90
I140
I397
I294
I383
I319
I321
tp577
a(I212
I84
I108
I420
I309
I414
I348
I320
tp578
a(I241
I80
I101
I363
I302
I442
I403
I325
tp579
a(I239
I65
I75
I272
I297
I423
I396
I334
tp580
a(I225
I61
I65
I306
I204
I368
I383
I339
tp581
a(I216
I58
I65
I293
I226
I336
I381
I329
tp582
a(I221
I53
I66
I255
I218
I290
I355
I339
tp583
a(I174
I51
I63
I296
I223
I229
I257
I305
tp584
a(I151
I51
I69
I299
I221
I258
I331
I249
tp585
a(I175
I53
I75
I307
I251
I294
I330
I252
tp586
a(I166
I47
I74
I326
I224
I283
I331
I250
tp587
a(I159
I48
I80
I320
I215
I306
I333
I280
tp588
a(I171
I54
I93
I374
I212
I328
I347
I359
tp589
a(I174
I53
I90
I357
I199
I285
I289
I369
tp590
a(I144
I51
I84
I319
I173
I242
I295
I351
tp591
a(I196
I63
I101
I345
I181
I249
I332
I429
tp592
a(I203
I61
I94
I349
I169
I229
I327
I405
tp593
a(I196
I52
I81
I270
I153
I228
I343
I358
tp594
a(I211
I53
I91
I301
I162
I257
I342
I369
tp595
a(I216
I52
I95
I305
I176
I350
I332
I435
tp596
a(I168
I42
I81
I265
I175
I377
I297
I361
tp597
a(I153
I42
I90
I254
I170
I384
I326
I351
tp598
a(I228
I43
I95
I232
I191
I389
I308
I364
tp599
a(I222
I38
I87
I222
I193
I420
I388
I375
tp600
a(I220
I39
I81
I245
I216
I367
I408
I308
tp601
a(I237
I43
I76
I226
I223
I336
I416
I298
tp602
a(I244
I49
I69
I243
I228
I344
I411
I304
tp603
a(I183
I52
I68
I244
I224
I329
I420
I282
tp604
a(I188
I55
I67
I209
I223
I285
I359
I343
tp605
a(I205
I56
I70
I186
I177
I289
I382
I378
tp606
a(I196
I52
I74
I225
I163
I289
I373
I378
tp607
a(I193
I47
I69
I282
I184
I278
I342
I374
tp608
a(I187
I50
I86
I297
I182
I278
I353
I394
tp609
a(I173
I48
I82
I327
I227
I273
I342
I346
tp610
a(I155
I45
I83
I373
I283
I285
I298
I323
tp611
a(I139
I55
I97
I368
I296
I334
I324
I316
tp612
a(I124
I59
I106
I334
I275
I344
I337
I315
tp613
a(I134
I52
I87
I344
I272
I341
I302
I267
tp614
a(I162
I56
I89
I340
I272
I360
I357
I224
tp615
a(I162
I59
I87
I314
I217
I317
I358
I220
tp616
a(I86
I40
I41
I90
I136
I134
I225
I112
tp617
a(I84
I36
I47
I125
I234
I193
I175
I89
tp618
a(I70
I34
I44
I137
I250
I208
I186
I71
tp619
a(I88
I39
I49
I134
I249
I206
I195
I99
tp620
a(I85
I42
I50
I132
I247
I206
I210
I105
tp621
a(I91
I45
I57
I141
I250
I221
I222
I144
tp622
a(I96
I45
I49
I114
I190
I211
I245
I165
tp623
a(I99
I47
I52
I129
I156
I217
I254
I171
tp624
a(I80
I46
I57
I133
I154
I218
I259
I169
tp625
a(I85
I43
I59
I147
I167
I212
I273
I169
tp626
a(I79
I39
I56
I152
I178
I199
I255
I139
tp627
a(I72
I36
I57
I175
I154
I161
I233
I109
tp628
a(I69
I34
I61
I161
I176
I150
I203
I100
tp629
a(I67
I34
I62
I154
I179
I160
I209
I91
tp630
a(I60
I38
I67
I162
I166
I161
I183
I81
tp631
a(I79
I38
I67
I155
I144
I160
I199
I90
tp632
a(I88
I41
I67
I128
I137
I156
I211
I92
tp633
a(I93
I40
I64
I136
I128
I147
I229
I96
tp634
a(I94
I33
I58
I145
I141
I169
I217
I79
tp635
a(I96
I31
I63
I123
I148
I172
I234
I81
tp636
a(I85
I40
I77
I123
I158
I175
I246
I75
tp637
a(I76
I40
I82
I121
I167
I184
I245
I73
tp638
a(I74
I40
I82
I109
I148
I168
I235
I89
tp639
a(I88
I40
I83
I112
I128
I126
I242
I103
tp640
a(I78
I41
I78
I125
I130
I125
I236
I105
tp641
a(I84
I34
I65
I123
I150
I122
I214
I98
tp642
a(I91
I38
I65
I133
I170
I136
I211
I98
tp643
a(I95
I43
I78
I129
I185
I167
I209
I98
tp644
a(I84
I50
I96
I117
I199
I186
I187
I86
tp645
a(I87
I46
I93
I103
I187
I182
I155
I88
tp646
a(I76
I50
I97
I111
I166
I186
I142
I88
tp647
a(I68
I54
I98
I112
I180
I193
I236
I92
tp648
a(I73
I53
I90
I112
I176
I194
I233
I86
tp649
a(I80
I51
I71
I128
I169
I182
I254
I135
tp650
a(I82
I52
I70
I125
I173
I193
I255
I139
tp651
a(I82
I52
I67
I113
I179
I188
I260
I140
tp652
a(I85
I46
I67
I106
I140
I160
I183
I149
tp653
a(I81
I41
I62
I130
I164
I155
I186
I146
tp654
a(I75
I41
I61
I135
I164
I157
I156
I101
tp655
a(I68
I40
I61
I135
I165
I152
I185
I93
tp656
a(I73
I36
I62
I133
I157
I147
I243
I97
tp657
a(I71
I35
I53
I127
I148
I153
I248
I98
tp658
a(I65
I42
I56
I106
I144
I145
I254
I96
tp659
a(I60
I38
I56
I73
I136
I137
I254
I100
tp660
a(I64
I39
I58
I108
I177
I187
I326
I100
tp661
a(I53
I37
I53
I123
I188
I201
I292
I94
tp662
a(I69
I44
I53
I140
I196
I209
I311
I92
tp663
a(I72
I45
I57
I143
I197
I198
I309
I90
tp664
a(I75
I47
I57
I144
I195
I196
I307
I84
tp665
a(I80
I47
I57
I117
I158
I166
I266
I94
tp666
a(I83
I48
I57
I110
I150
I160
I257
I94
tp667
a(I68
I41
I58
I100
I159
I162
I241
I74
tp668
a(I62
I35
I52
I100
I134
I165
I246
I73
tp669
a(I60
I37
I61
I99
I133
I176
I254
I72
tp670
a(I82
I38
I63
I119
I180
I189
I228
I82
tp671
a(I90
I38
I65
I108
I195
I187
I230
I89
tp672
a(I93
I38
I64
I131
I185
I182
I234
I86
tp673
a(I97
I38
I64
I149
I195
I185
I246
I84
tp674
a(I97
I35
I52
I154
I247
I206
I242
I86
tp675
a(I85
I34
I46
I144
I229
I184
I207
I67
tp676
a(I76
I37
I43
I149
I216
I182
I220
I57
tp677
a(I71
I41
I40
I128
I212
I169
I212
I59
tp678
a(I63
I42
I41
I105
I222
I168
I178
I57
tp679
a(I67
I42
I44
I102
I195
I135
I176
I65
tp680
a(I72
I41
I84
I177
I206
I142
I237
I60
tp681
a(I77
I38
I88
I183
I210
I158
I232
I72
tp682
a(I81
I38
I90
I193
I226
I182
I211
I76
tp683
a(I83
I36
I97
I193
I211
I185
I215
I79
tp684
a(I80
I36
I99
I198
I193
I193
I213
I74
tp685
a(I74
I39
I71
I167
I174
I194
I139
I85
tp686
a(I94
I42
I74
I162
I168
I180
I144
I93
tp687
a(I96
I39
I75
I188
I161
I162
I146
I92
tp688
a(I103
I39
I60
I190
I167
I159
I147
I95
tp689
a(I103
I38
I61
I189
I176
I146
I156
I93
tp690
a(I99
I34
I61
I194
I172
I127
I158
I79
tp691
a(I81
I30
I58
I210
I183
I147
I138
I67
tp692
a(I84
I31
I57
I209
I197
I174
I153
I69
tp693
a(I73
I31
I68
I207
I186
I176
I231
I64
tp694
a(I71
I30
I61
I201
I162
I181
I235
I64
tp695
a(I68
I35
I71
I195
I196
I246
I238
I64
tp696
a(I62
I35
I67
I178
I205
I241
I241
I59
tp697
a(I68
I37
I78
I131
I194
I241
I253
I84
tp698
a(I78
I39
I72
I127
I200
I241
I183
I87
tp699
a(I79
I42
I77
I152
I224
I246
I195
I88
tp700
a(I80
I40
I66
I126
I199
I190
I194
I88
tp701
a(I79
I39
I66
I122
I184
I182
I201
I87
tp702
a(I73
I36
I54
I135
I165
I148
I189
I69
tp703
a(I76
I37
I60
I149
I158
I141
I186
I72
tp704
a(I76
I38
I60
I134
I136
I128
I162
I72
tp705
a(I70
I39
I59
I135
I147
I134
I152
I69
tp706
a(I71
I41
I66
I145
I150
I150
I142
I69
tp707
a(I68
I47
I67
I162
I197
I184
I169
I58
tp708
a(I56
I44
I63
I150
I199
I191
I193
I46
tp709
a(I53
I41
I67
I144
I203
I209
I192
I42
tp710
a(I56
I40
I68
I147
I193
I201
I205
I42
tp711
a(I55
I40
I64
I163
I203
I197
I214
I45
tp712
a(I55
I31
I64
I143
I166
I179
I193
I55
tp713
a(I68
I36
I63
I145
I160
I168
I191
I62
tp714
a(I71
I39
I58
I146
I148
I138
I223
I69
tp715
a(I68
I38
I61
I138
I133
I134
I231
I68
tp716
a(I66
I39
I62
I108
I120
I130
I248
I66
tp717
a(I69
I46
I62
I100
I113
I118
I251
I56
tp718
a(I58
I45
I63
I103
I115
I117
I249
I56
tp719
a(I58
I42
I64
I115
I170
I170
I224
I65
tp720
a(I69
I43
I63
I112
I184
I173
I228
I70
tp721
a(I70
I41
I59
I110
I172
I162
I209
I70
tp722
a(I71
I35
I59
I128
I179
I156
I200
I70
tp723
a(I69
I32
I57
I128
I182
I174
I205
I63
tp724
a(I91
I34
I62
I123
I187
I148
I197
I64
tp725
a(I88
I34
I76
I131
I197
I164
I192
I74
tp726
a(I90
I33
I78
I134
I210
I169
I175
I74
tp727
a(I87
I37
I80
I129
I207
I174
I196
I74
tp728
a(I87
I39
I82
I130
I216
I170
I173
I74
tp729
a(I66
I38
I85
I135
I212
I174
I195
I60
tp730
a(I70
I38
I72
I133
I207
I167
I181
I45
tp731
a(I80
I40
I67
I129
I210
I192
I189
I58
tp732
a(I81
I38
I64
I122
I232
I215
I162
I67
tp733
a(I81
I36
I61
I126
I221
I202
I174
I65
tp734
a(I81
I36
I49
I121
I190
I186
I153
I64
tp735
a(I74
I32
I43
I120
I193
I197
I190
I66
tp736
a(I63
I31
I46
I115
I183
I180
I234
I55
tp737
a(I66
I29
I39
I110
I159
I152
I236
I52
tp738
a(I65
I29
I44
I130
I198
I172
I249
I54
tp739
a(I60
I29
I58
I132
I197
I177
I254
I58
tp740
a(I59
I30
I64
I131
I184
I160
I231
I57
tp741
a(I60
I33
I66
I164
I186
I153
I180
I58
tp742
a(I55
I37
I69
I172
I184
I167
I197
I62
tp743
a(I56
I41
I81
I152
I142
I159
I184
I65
tp744
a(I56
I42
I75
I150
I152
I170
I184
I63
tp745
a(I53
I41
I80
I174
I145
I157
I184
I61
tp746
a(I53
I41
I80
I153
I176
I178
I210
I61
tp747
a(I51
I40
I77
I146
I193
I180
I195
I51
tp748
a(I50
I36
I62
I146
I195
I178
I180
I59
tp749
a(I59
I37
I70
I177
I184
I178
I175
I66
tp750
a(I62
I40
I64
I164
I195
I191
I187
I64
tp751
a(I64
I39
I70
I165
I199
I191
I162
I65
tp752
a(I60
I37
I69
I187
I191
I185
I156
I63
tp753
a(I60
I37
I72
I196
I190
I210
I164
I50
tp754
a(I54
I37
I62
I159
I218
I201
I178
I37
tp755
a(I58
I37
I64
I184
I239
I203
I160
I51
tp756
a(I53
I39
I58
I183
I213
I189
I164
I52
tp757
a(I60
I39
I62
I161
I205
I195
I172
I56
tp758
a(I65
I43
I60
I158
I225
I211
I181
I58
tp759
a(I67
I43
I59
I170
I203
I208
I172
I58
tp760
a(I60
I41
I52
I137
I171
I198
I175
I47
tp761
a(I57
I36
I50
I139
I171
I192
I159
I44
tp762
a(I50
I37
I50
I142
I173
I191
I147
I40
tp763
a(I49
I34
I46
I157
I145
I139
I147
I45
tp764
a(I46
I32
I47
I149
I144
I141
I154
I47
tp765
a(I48
I32
I52
I141
I154
I147
I139
I44
tp766
a(I53
I33
I53
I130
I151
I153
I142
I46
tp767
a(I52
I32
I50
I133
I157
I150
I148
I44
tp768
a(I53
I29
I48
I108
I168
I164
I135
I52
tp769
a(I52
I29
I57
I134
I207
I186
I167
I54
tp770
asS'point'
p771
(lp772
(I436
I32
I27
I98
I201
I86
I36
I143
tp773
a(I431
I29
I31
I136
I193
I90
I40
I131
tp774
a(I487
I27
I33
I143
I188
I89
I39
I131
tp775
a(I455
I25
I32
I137
I184
I84
I37
I138
tp776
a(I447
I23
I32
I139
I182
I81
I34
I134
tp777
a(I492
I26
I32
I124
I122
I68
I33
I158
tp778
a(I494
I25
I30
I78
I142
I71
I32
I174
tp779
a(I399
I24
I28
I69
I187
I71
I33
I175
tp780
a(I446
I29
I31
I74
I183
I80
I35
I166
tp781
a(I417
I29
I30
I70
I183
I78
I35
I163
tp782
a(I367
I26
I28
I65
I178
I72
I32
I138
tp783
a(I348
I27
I26
I70
I168
I67
I31
I88
tp784
a(I358
I27
I25
I65
I179
I86
I34
I97
tp785
a(I355
I24
I20
I56
I170
I77
I31
I116
tp786
a(I400
I26
I21
I55
I175
I79
I31
I124
tp787
a(I379
I28
I26
I67
I222
I111
I37
I122
tp788
a(I429
I30
I28
I105
I224
I111
I36
I141
tp789
a(I434
I30
I28
I114
I223
I99
I33
I142
tp790
a(I413
I30
I30
I116
I231
I103
I36
I127
tp791
a(I380
I29
I31
I125
I245
I106
I37
I121
tp792
a(I405
I28
I28
I121
I221
I77
I34
I127
tp793
a(I425
I29
I28
I100
I236
I88
I36
I122
tp794
a(I409
I29
I30
I118
I204
I80
I34
I113
tp795
a(I424
I29
I28
I124
I206
I77
I32
I116
tp796
a(I420
I28
I28
I121
I186
I73
I31
I132
tp797
a(I424
I28
I28
I138
I177
I79
I31
I131
tp798
a(I344
I25
I31
I134
I184
I72
I29
I133
tp799
a(I420
I27
I28
I107
I179
I83
I34
I138
tp800
a(I388
I25
I28
I96
I172
I89
I37
I133
tp801
a(I506
I27
I31
I89
I209
I90
I44
I167
tp802
a(I512
I30
I31
I64
I199
I82
I44
I177
tp803
a(I515
I29
I34
I57
I178
I76
I45
I174
tp804
a(I474
I29
I34
I53
I187
I68
I42
I174
tp805
a(I488
I29
I37
I54
I188
I62
I42
I180
tp806
a(I382
I29
I38
I82
I185
I68
I36
I143
tp807
a(I424
I26
I39
I84
I202
I71
I36
I150
tp808
a(I449
I27
I36
I82
I199
I74
I38
I141
tp809
a(I466
I26
I38
I91
I203
I78
I41
I135
tp810
a(I496
I26
I38
I121
I220
I75
I40
I150
tp811
a(I492
I25
I35
I113
I190
I69
I40
I150
tp812
a(I433
I25
I32
I109
I197
I83
I40
I133
tp813
a(I456
I25
I30
I118
I189
I81
I37
I173
tp814
a(I429
I27
I33
I117
I173
I79
I35
I177
tp815
a(I371
I31
I31
I90
I155
I86
I36
I165
tp816
a(I393
I32
I31
I88
I196
I91
I40
I189
tp817
a(I406
I31
I36
I146
I197
I80
I37
I184
tp818
a(I382
I31
I38
I154
I215
I89
I41
I152
tp819
a(I374
I28
I36
I191
I224
I86
I39
I144
tp820
a(I412
I24
I39
I203
I232
I103
I41
I162
tp821
a(I428
I24
I40
I204
I203
I105
I43
I144
tp822
a(I423
I29
I36
I168
I191
I102
I42
I154
tp823
a(I441
I35
I37
I163
I199
I108
I39
I156
tp824
a(I459
I36
I34
I115
I200
I118
I42
I161
tp825
a(I457
I36
I30
I93
I206
I108
I38
I135
tp826
a(I447
I38
I32
I91
I208
I105
I33
I120
tp827
a(I440
I34
I37
I101
I201
I107
I40
I114
tp828
a(I419
I29
I37
I113
I180
I97
I41
I101
tp829
a(I443
I29
I37
I118
I172
I92
I46
I132
tp830
a(I470
I29
I36
I127
I153
I89
I49
I139
tp831
a(I448
I31
I33
I122
I161
I91
I49
I151
tp832
a(I522
I33
I27
I114
I161
I88
I47
I158
tp833
a(I535
I32
I27
I86
I149
I83
I47
I185
tp834
a(I496
I31
I28
I74
I159
I73
I45
I162
tp835
a(I502
I30
I27
I53
I163
I73
I42
I161
tp836
a(I519
I29
I27
I50
I154
I67
I43
I161
tp837
a(I483
I28
I28
I57
I146
I67
I42
I167
tp838
a(I516
I31
I28
I62
I150
I73
I44
I156
tp839
a(I594
I36
I30
I66
I194
I90
I40
I186
tp840
a(I548
I37
I30
I83
I198
I89
I42
I185
tp841
a(I537
I34
I31
I100
I187
I92
I43
I178
tp842
a(I517
I34
I31
I96
I212
I94
I41
I164
tp843
a(I439
I30
I30
I134
I215
I91
I40
I153
tp844
a(I363
I26
I30
I144
I164
I72
I36
I122
tp845
a(I351
I26
I35
I215
I161
I68
I33
I114
tp846
a(I324
I26
I35
I229
I177
I69
I28
I105
tp847
a(I274
I26
I37
I246
I203
I70
I27
I97
tp848
a(I273
I31
I37
I244
I219
I73
I23
I84
tp849
a(I242
I33
I39
I289
I233
I77
I31
I83
tp850
a(I367
I34
I37
I245
I239
I76
I34
I135
tp851
a(I385
I36
I37
I235
I240
I69
I35
I145
tp852
a(I391
I37
I41
I229
I201
I71
I37
I156
tp853
a(I404
I35
I40
I220
I195
I73
I37
I161
tp854
a(I396
I37
I45
I194
I201
I79
I34
I152
tp855
a(I293
I35
I51
I234
I191
I83
I35
I110
tp856
a(I271
I36
I52
I234
I180
I82
I37
I114
tp857
a(I282
I36
I49
I222
I185
I79
I34
I124
tp858
a(I375
I34
I50
I219
I207
I88
I39
I122
tp859
a(I372
I30
I50
I228
I232
I97
I44
I132
tp860
a(I372
I31
I47
I204
I228
I98
I45
I147
tp861
a(I374
I28
I45
I205
I270
I113
I43
I135
tp862
a(I440
I31
I45
I232
I273
I127
I44
I116
tp863
a(I347
I30
I45
I233
I249
I117
I39
I122
tp864
a(I492
I34
I40
I191
I215
I107
I41
I151
tp865
a(I510
I33
I40
I202
I236
I115
I40
I142
tp866
a(I538
I35
I45
I216
I186
I102
I42
I148
tp867
a(I606
I32
I47
I191
I173
I91
I43
I161
tp868
a(I638
I31
I47
I207
I186
I93
I45
I162
tp869
a(I553
I33
I46
I216
I170
I93
I37
I134
tp870
a(I561
I35
I45
I192
I276
I116
I45
I142
tp871
a(I563
I33
I43
I166
I281
I120
I48
I150
tp872
a(I422
I32
I39
I165
I283
I154
I67
I134
tp873
a(I367
I34
I39
I152
I286
I211
I90
I128
tp874
a(I393
I31
I37
I163
I293
I218
I94
I131
tp875
a(I390
I28
I34
I184
I186
I202
I91
I123
tp876
a(I362
I29
I35
I193
I222
I213
I91
I116
tp877
a(I402
I30
I34
I191
I225
I193
I80
I133
tp878
a(I404
I29
I35
I176
I205
I132
I54
I132
tp879
a(I369
I28
I35
I161
I199
I119
I46
I120
tp880
a(I337
I31
I32
I120
I186
I116
I44
I128
tp881
a(I360
I29
I29
I125
I173
I95
I37
I133
tp882
a(I337
I28
I32
I141
I173
I106
I56
I118
tp883
a(I327
I28
I30
I142
I185
I127
I64
I109
tp884
a(I343
I29
I32
I148
I196
I132
I73
I118
tp885
a(I345
I25
I32
I150
I241
I140
I75
I105
tp886
a(I460
I26
I35
I158
I222
I144
I78
I120
tp887
a(I452
I26
I35
I149
I221
I136
I65
I121
tp888
a(I451
I27
I33
I155
I218
I117
I55
I130
tp889
a(I418
I26
I32
I145
I222
I107
I43
I123
tp890
a(I455
I25
I29
I139
I177
I101
I42
I145
tp891
a(I323
I24
I29
I129
I180
I89
I35
I128
tp892
a(I333
I26
I27
I136
I185
I74
I33
I135
tp893
a(I368
I25
I35
I143
I189
I79
I34
I132
tp894
a(I394
I26
I38
I185
I185
I83
I35
I133
tp895
a(I353
I29
I40
I195
I185
I78
I31
I106
tp896
a(I333
I31
I40
I189
I167
I74
I33
I91
tp897
a(I338
I29
I40
I184
I193
I97
I33
I86
tp898
a(I366
I33
I34
I191
I197
I92
I35
I101
tp899
a(I368
I32
I34
I153
I188
I88
I35
I100
tp900
a(I388
I31
I44
I281
I182
I90
I36
I129
tp901
a(I378
I32
I46
I301
I193
I92
I35
I133
tp902
a(I413
I34
I46
I299
I159
I65
I30
I133
tp903
a(I357
I30
I50
I306
I193
I69
I28
I126
tp904
a(I485
I32
I50
I305
I205
I71
I27
I152
tp905
a(I473
I30
I42
I186
I207
I71
I30
I131
tp906
a(I525
I29
I41
I148
I213
I78
I30
I129
tp907
a(I499
I25
I41
I157
I214
I84
I33
I131
tp908
a(I525
I29
I38
I123
I184
I77
I35
I166
tp909
a(I409
I30
I47
I231
I235
I124
I44
I166
tp910
a(I420
I29
I47
I254
I247
I126
I44
I171
tp911
a(I400
I31
I44
I251
I249
I121
I43
I171
tp912
a(I398
I32
I44
I247
I259
I118
I42
I173
tp913
a(I371
I29
I44
I261
I272
I135
I43
I136
tp914
a(I405
I27
I32
I167
I216
I93
I33
I110
tp915
a(I378
I29
I31
I131
I208
I89
I31
I95
tp916
a(I335
I27
I30
I140
I197
I95
I35
I95
tp917
a(I374
I30
I31
I139
I218
I104
I36
I81
tp918
a(I365
I30
I30
I114
I203
I86
I41
I105
tp919
a(I324
I30
I29
I143
I201
I87
I41
I108
tp920
a(I380
I28
I32
I133
I194
I88
I43
I117
tp921
a(I430
I31
I32
I126
I218
I88
I40
I118
tp922
a(I396
I30
I36
I166
I207
I87
I39
I121
tp923
a(I392
I30
I39
I166
I204
I93
I36
I97
tp924
a(I363
I29
I40
I155
I218
I108
I38
I90
tp925
a(I401
I35
I36
I158
I233
I110
I36
I94
tp926
a(I348
I35
I38
I170
I219
I111
I39
I90
tp927
as.