(dp0
S'thumbs-up'
p1
(lp2
(I194
I53
I41
I144
I120
I331
I256
I106
tp3
a(I235
I58
I39
I157
I105
I342
I260
I135
tp4
a(I244
I61
I43
I157
I119
I378
I272
I131
tp5
a(I209
I62
I50
I188
I127
I350
I295
I126
tp6
a(I197
I62
I52
I218
I131
I356
I315
I122
tp7
a(I189
I62
I52
I229
I128
I355
I311
I124
tp8
a(I139
I57
I50
I240
I140
I376
I277
I92
tp9
a(I140
I54
I47
I248
I140
I343
I270
I87
tp10
a(I134
I44
I40
I233
I127
I330
I254
I87
tp11
a(I136
I46
I45
I215
I123
I308
I219
I83
tp12
a(I128
I43
I41
I216
I135
I338
I235
I85
tp13
a(I126
I44
I43
I211
I129
I307
I250
I85
tp14
a(I96
I43
I51
I216
I136
I346
I277
I88
tp15
a(I122
I57
I59
I197
I140
I381
I278
I117
tp16
a(I154
I58
I59
I197
I141
I392
I282
I129
tp17
a(I164
I60
I58
I193
I139
I371
I286
I127
tp18
a(I168
I59
I58
I177
I135
I397
I268
I123
tp19
a(I180
I59
I55
I157
I125
I359
I250
I132
tp20
a(I178
I55
I51
I166
I124
I382
I235
I112
tp21
a(I212
I59
I50
I172
I136
I384
I231
I139
tp22
a(I221
I61
I53
I160
I134
I355
I200
I151
tp23
a(I226
I64
I54
I167
I161
I342
I209
I153
tp24
a(I217
I66
I53
I246
I191
I438
I200
I142
tp25
a(I211
I65
I50
I254
I195
I377
I231
I137
tp26
a(I177
I66
I46
I260
I197
I365
I235
I107
tp27
a(I166
I63
I44
I297
I201
I370
I229
I101
tp28
a(I161
I59
I44
I300
I186
I354
I258
I104
tp29
a(I175
I63
I47
I301
I172
I243
I257
I107
tp30
a(I178
I57
I44
I299
I168
I250
I255
I109
tp31
a(I150
I50
I51
I292
I171
I252
I269
I101
tp32
a(I151
I50
I50
I264
I159
I290
I280
I108
tp33
a(I164
I56
I48
I274
I150
I287
I249
I107
tp34
a(I171
I59
I45
I254
I127
I298
I241
I109
tp35
a(I190
I67
I51
I268
I152
I364
I275
I128
tp36
a(I196
I76
I45
I320
I233
I468
I329
I132
tp37
a(I193
I77
I45
I322
I244
I445
I323
I116
tp38
a(I178
I74
I47
I305
I247
I446
I329
I112
tp39
a(I175
I69
I54
I278
I249
I448
I346
I135
tp40
a(I161
I63
I55
I276
I232
I422
I315
I134
tp41
a(I161
I51
I55
I237
I160
I308
I249
I130
tp42
a(I166
I54
I60
I247
I140
I311
I257
I139
tp43
a(I279
I60
I61
I253
I159
I436
I317
I189
tp44
a(I280
I60
I53
I242
I151
I428
I319
I175
tp45
a(I280
I60
I46
I244
I155
I425
I311
I171
tp46
a(I297
I63
I51
I239
I135
I436
I314
I187
tp47
a(I296
I61
I47
I233
I147
I468
I327
I196
tp48
a(I211
I65
I54
I241
I129
I365
I284
I159
tp49
a(I206
I65
I57
I239
I130
I347
I288
I160
tp50
a(I205
I70
I59
I209
I126
I334
I291
I157
tp51
a(I194
I66
I58
I178
I122
I318
I302
I135
tp52
a(I200
I65
I60
I168
I138
I329
I311
I132
tp53
a(I192
I55
I51
I190
I179
I375
I282
I138
tp54
a(I205
I60
I53
I207
I197
I401
I275
I150
tp55
a(I205
I57
I55
I214
I205
I408
I287
I153
tp56
a(I187
I56
I56
I216
I201
I431
I281
I157
tp57
a(I199
I55
I53
I222
I207
I426
I318
I160
tp58
a(I235
I67
I56
I192
I175
I394
I329
I153
tp59
a(I222
I64
I55
I181
I159
I401
I327
I144
tp60
a(I221
I63
I53
I224
I154
I407
I332
I141
tp61
a(I245
I63
I46
I252
I175
I401
I358
I140
tp62
a(I232
I63
I48
I238
I176
I377
I309
I133
tp63
a(I210
I54
I46
I250
I180
I406
I309
I140
tp64
a(I202
I46
I44
I266
I192
I384
I368
I134
tp65
a(I200
I46
I45
I244
I187
I386
I364
I139
tp66
a(I179
I52
I47
I253
I197
I384
I338
I141
tp67
a(I179
I58
I48
I303
I233
I473
I331
I126
tp68
a(I161
I59
I47
I294
I230
I462
I370
I113
tp69
a(I162
I61
I46
I273
I223
I470
I318
I108
tp70
a(I178
I61
I44
I283
I231
I459
I303
I99
tp71
a(I214
I56
I43
I278
I214
I448
I291
I105
tp72
a(I236
I55
I44
I259
I154
I350
I330
I120
tp73
a(I235
I52
I42
I260
I147
I330
I286
I132
tp74
a(I241
I50
I46
I263
I142
I318
I318
I142
tp75
a(I244
I50
I47
I243
I142
I373
I367
I146
tp76
a(I215
I55
I49
I236
I131
I379
I362
I146
tp77
a(I223
I53
I45
I195
I124
I400
I344
I171
tp78
a(I238
I56
I50
I222
I141
I387
I343
I159
tp79
a(I230
I58
I45
I228
I139
I440
I290
I159
tp80
a(I229
I62
I53
I226
I133
I405
I227
I165
tp81
a(I237
I58
I51
I200
I152
I415
I253
I167
tp82
a(I215
I56
I50
I206
I171
I415
I252
I134
tp83
a(I231
I63
I50
I169
I162
I420
I274
I152
tp84
a(I302
I69
I50
I155
I159
I353
I298
I168
tp85
a(I297
I72
I47
I163
I156
I403
I304
I156
tp86
a(I299
I72
I46
I181
I140
I384
I346
I144
tp87
a(I298
I74
I57
I174
I138
I397
I374
I164
tp88
a(I279
I67
I52
I174
I135
I393
I352
I149
tp89
a(I220
I58
I54
I193
I154
I423
I362
I126
tp90
a(I205
I50
I48
I177
I172
I362
I348
I131
tp91
a(I182
I51
I56
I155
I171
I377
I288
I132
tp92
a(I160
I53
I48
I165
I152
I343
I232
I119
tp93
a(I170
I53
I48
I167
I152
I343
I226
I111
tp94
a(I154
I55
I45
I152
I136
I304
I188
I121
tp95
a(I178
I59
I45
I170
I121
I318
I217
I130
tp96
a(I194
I62
I42
I165
I122
I294
I215
I136
tp97
a(I201
I61
I40
I167
I125
I267
I198
I125
tp98
a(I186
I61
I49
I170
I124
I261
I261
I127
tp99
a(I179
I68
I51
I168
I138
I359
I270
I116
tp100
a(I164
I65
I50
I168
I131
I327
I269
I128
tp101
a(I140
I62
I44
I210
I132
I323
I262
I120
tp102
a(I155
I60
I46
I211
I147
I348
I290
I127
tp103
a(I155
I59
I38
I209
I157
I387
I265
I143
tp104
a(I155
I50
I34
I226
I151
I326
I246
I149
tp105
a(I157
I49
I37
I237
I153
I328
I227
I126
tp106
a(I195
I50
I39
I217
I164
I362
I243
I134
tp107
a(I186
I50
I41
I230
I154
I329
I209
I130
tp108
a(I180
I48
I40
I228
I141
I273
I186
I111
tp109
a(I189
I54
I40
I207
I132
I251
I188
I94
tp110
a(I193
I54
I40
I208
I132
I311
I191
I92
tp111
a(I201
I66
I42
I213
I119
I268
I191
I90
tp112
a(I202
I67
I41
I209
I122
I279
I185
I81
tp113
a(I239
I67
I41
I211
I120
I280
I201
I102
tp114
a(I243
I64
I44
I231
I123
I269
I204
I105
tp115
a(I236
I63
I44
I241
I144
I301
I203
I109
tp116
a(I236
I50
I39
I226
I137
I310
I221
I131
tp117
a(I238
I48
I36
I219
I131
I300
I241
I139
tp118
a(I227
I56
I36
I218
I141
I347
I229
I130
tp119
a(I217
I54
I35
I196
I139
I391
I262
I129
tp120
a(I222
I56
I34
I174
I123
I317
I266
I126
tp121
a(I195
I53
I36
I189
I141
I326
I250
I107
tp122
a(I197
I52
I36
I179
I136
I333
I236
I95
tp123
a(I162
I43
I37
I175
I125
I281
I235
I86
tp124
a(I164
I41
I36
I182
I125
I288
I200
I81
tp125
a(I173
I41
I40
I170
I116
I290
I188
I82
tp126
a(I169
I45
I41
I164
I104
I294
I175
I77
tp127
a(I151
I44
I42
I162
I103
I295
I235
I83
tp128
a(I162
I43
I43
I171
I126
I372
I251
I89
tp129
a(I157
I44
I42
I163
I124
I331
I237
I93
tp130
a(I146
I44
I39
I145
I116
I339
I260
I102
tp131
a(I155
I44
I36
I125
I109
I332
I273
I95
tp132
a(I179
I49
I38
I127
I105
I333
I221
I94
tp133
a(I205
I50
I35
I131
I100
I296
I205
I98
tp134
a(I218
I49
I32
I145
I107
I296
I228
I99
tp135
a(I222
I49
I30
I167
I120
I315
I244
I96
tp136
a(I236
I49
I32
I189
I138
I325
I255
I113
tp137
a(I227
I49
I33
I195
I145
I347
I257
I115
tp138
a(I212
I51
I38
I263
I159
I348
I264
I110
tp139
a(I255
I53
I39
I275
I169
I366
I263
I126
tp140
a(I276
I55
I39
I273
I165
I350
I262
I139
tp141
a(I254
I51
I42
I265
I159
I352
I272
I132
tp142
a(I256
I47
I39
I282
I200
I368
I281
I131
tp143
a(I258
I56
I48
I209
I180
I332
I287
I137
tp144
a(I208
I58
I48
I210
I174
I322
I280
I134
tp145
a(I201
I59
I52
I234
I181
I317
I249
I126
tp146
a(I209
I63
I53
I249
I207
I329
I206
I120
tp147
a(I191
I63
I54
I230
I176
I299
I253
I124
tp148
a(I195
I60
I46
I249
I192
I347
I250
I125
tp149
a(I220
I60
I50
I248
I191
I354
I270
I122
tp150
a(I195
I58
I47
I222
I187
I379
I269
I115
tp151
a(I209
I61
I47
I199
I156
I355
I280
I122
tp152
a(I253
I66
I45
I185
I143
I346
I227
I122
tp153
a(I243
I65
I52
I166
I130
I300
I209
I117
tp154
a(I227
I63
I48
I159
I150
I355
I214
I112
tp155
a(I221
I61
I50
I154
I145
I337
I220
I108
tp156
a(I207
I57
I47
I171
I155
I348
I214
I105
tp157
a(I165
I53
I46
I174
I168
I344
I253
I106
tp158
a(I168
I50
I41
I172
I159
I361
I286
I109
tp159
a(I187
I50
I43
I164
I140
I272
I253
I127
tp160
a(I216
I50
I42
I171
I136
I254
I260
I133
tp161
a(I226
I48
I43
I170
I131
I265
I312
I136
tp162
a(I234
I53
I49
I185
I128
I317
I282
I127
tp163
a(I240
I50
I49
I200
I127
I288
I272
I123
tp164
a(I231
I47
I48
I193
I120
I287
I284
I101
tp165
a(I202
I51
I50
I192
I119
I295
I275
I90
tp166
a(I189
I53
I51
I201
I115
I273
I226
I78
tp167
a(I191
I49
I45
I181
I113
I224
I235
I113
tp168
asS'spread'
p169
(lp170
(I113
I98
I70
I196
I273
I312
I93
I31
tp171
a(I116
I104
I71
I229
I277
I294
I95
I35
tp172
a(I115
I107
I73
I225
I272
I277
I99
I42
tp173
a(I114
I86
I80
I257
I381
I309
I105
I50
tp174
a(I108
I95
I84
I255
I412
I331
I91
I54
tp175
a(I129
I100
I88
I250
I410
I338
I96
I56
tp176
a(I130
I97
I87
I223
I403
I352
I112
I52
tp177
a(I129
I92
I87
I231
I420
I347
I108
I51
tp178
a(I129
I91
I70
I186
I380
I354
I116
I44
tp179
a(I139
I89
I71
I183
I364
I342
I129
I41
tp180
a(I134
I87
I68
I176
I371
I351
I127
I40
tp181
a(I130
I85
I67
I178
I361
I335
I113
I41
tp182
a(I128
I88
I67
I224
I365
I309
I113
I39
tp183
a(I127
I93
I67
I247
I342
I320
I102
I40
tp184
a(I88
I97
I68
I239
I321
I343
I94
I42
tp185
a(I118
I93
I67
I239
I311
I319
I96
I41
tp186
a(I121
I91
I71
I240
I312
I326
I103
I41
tp187
a(I123
I97
I93
I264
I311
I324
I104
I40
tp188
a(I124
I92
I100
I250
I273
I287
I111
I39
tp189
a(I151
I80
I99
I256
I268
I234
I109
I36
tp190
a(I135
I74
I99
I255
I284
I256
I116
I40
tp191
a(I131
I102
I108
I265
I290
I268
I116
I39
tp192
a(I130
I97
I93
I219
I277
I315
I132
I37
tp193
a(I176
I102
I85
I186
I234
I295
I145
I38
tp194
a(I156
I109
I83
I176
I233
I294
I143
I37
tp195
a(I135
I113
I83
I184
I229
I278
I146
I33
tp196
a(I137
I88
I74
I160
I234
I276
I140
I35
tp197
a(I138
I93
I70
I129
I201
I194
I138
I33
tp198
a(I108
I116
I79
I140
I217
I248
I134
I35
tp199
a(I110
I113
I81
I158
I215
I261
I131
I35
tp200
a(I112
I118
I83
I151
I215
I270
I122
I35
tp201
a(I119
I118
I83
I190
I284
I275
I124
I36
tp202
a(I163
I123
I83
I196
I271
I289
I119
I37
tp203
a(I148
I95
I72
I197
I264
I234
I104
I34
tp204
a(I142
I94
I68
I192
I274
I292
I108
I37
tp205
a(I161
I85
I71
I217
I300
I276
I106
I37
tp206
a(I162
I94
I66
I221
I257
I262
I117
I35
tp207
a(I121
I81
I66
I244
I300
I301
I102
I37
tp208
a(I119
I85
I67
I238
I319
I322
I103
I36
tp209
a(I147
I87
I72
I233
I316
I312
I99
I37
tp210
a(I128
I89
I67
I214
I306
I312
I112
I37
tp211
a(I118
I81
I61
I193
I290
I321
I123
I37
tp212
a(I144
I81
I59
I166
I266
I296
I121
I34
tp213
a(I165
I82
I60
I170
I253
I288
I119
I35
tp214
a(I140
I82
I60
I207
I255
I241
I122
I32
tp215
a(I136
I76
I64
I211
I242
I266
I145
I34
tp216
a(I140
I82
I79
I241
I308
I276
I128
I38
tp217
a(I109
I82
I76
I253
I326
I255
I136
I39
tp218
a(I58
I84
I77
I244
I316
I242
I136
I38
tp219
a(I64
I78
I76
I245
I333
I234
I130
I36
tp220
a(I61
I79
I79
I254
I339
I297
I115
I39
tp221
a(I102
I96
I75
I217
I300
I321
I116
I37
tp222
a(I107
I105
I83
I201
I278
I335
I111
I40
tp223
a(I111
I103
I85
I206
I290
I354
I107
I41
tp224
a(I109
I104
I83
I171
I272
I354
I110
I41
tp225
a(I111
I103
I77
I152
I265
I337
I100
I37
tp226
a(I66
I85
I70
I157
I242
I299
I98
I37
tp227
a(I123
I86
I105
I196
I291
I298
I100
I40
tp228
a(I124
I89
I127
I221
I301
I280
I106
I39
tp229
a(I128
I94
I128
I221
I297
I319
I126
I38
tp230
a(I132
I106
I130
I218
I282
I319
I124
I41
tp231
a(I164
I100
I129
I224
I294
I320
I133
I41
tp232
a(I138
I88
I109
I212
I254
I326
I137
I36
tp233
a(I141
I91
I85
I195
I223
I323
I131
I39
tp234
a(I179
I86
I87
I191
I228
I352
I146
I41
tp235
a(I174
I73
I85
I193
I247
I303
I149
I39
tp236
a(I146
I86
I87
I211
I248
I341
I143
I42
tp237
a(I136
I95
I82
I184
I273
I347
I137
I43
tp238
a(I134
I83
I77
I174
I281
I348
I149
I45
tp239
a(I71
I101
I72
I193
I289
I279
I123
I48
tp240
a(I69
I103
I74
I189
I273
I305
I110
I46
tp241
a(I64
I99
I79
I177
I274
I253
I103
I42
tp242
a(I58
I99
I69
I180
I230
I212
I99
I38
tp243
a(I49
I102
I68
I182
I215
I225
I98
I37
tp244
a(I45
I83
I68
I203
I237
I257
I92
I31
tp245
a(I70
I81
I67
I206
I235
I236
I97
I32
tp246
a(I105
I72
I59
I184
I211
I251
I110
I35
tp247
a(I111
I67
I61
I197
I215
I247
I117
I38
tp248
a(I109
I64
I65
I223
I219
I243
I109
I35
tp249
a(I114
I63
I70
I187
I176
I222
I116
I35
tp250
a(I102
I65
I68
I190
I213
I215
I108
I33
tp251
a(I68
I84
I69
I206
I232
I213
I150
I35
tp252
a(I59
I81
I65
I201
I238
I231
I151
I33
tp253
a(I61
I79
I61
I202
I245
I223
I148
I36
tp254
a(I60
I95
I67
I236
I255
I222
I143
I34
tp255
a(I59
I101
I68
I240
I226
I235
I157
I35
tp256
a(I60
I92
I74
I235
I234
I245
I116
I34
tp257
a(I106
I99
I74
I223
I232
I248
I108
I31
tp258
a(I112
I105
I72
I197
I252
I318
I104
I34
tp259
a(I110
I95
I62
I168
I245
I359
I114
I38
tp260
a(I111
I90
I64
I160
I249
I352
I99
I38
tp261
a(I110
I85
I54
I152
I236
I338
I98
I35
tp262
a(I69
I84
I56
I163
I257
I347
I120
I35
tp263
a(I58
I82
I55
I182
I251
I359
I138
I33
tp264
a(I56
I86
I54
I188
I265
I317
I129
I33
tp265
a(I55
I91
I53
I187
I269
I319
I124
I32
tp266
a(I103
I100
I63
I184
I263
I319
I118
I35
tp267
a(I116
I90
I60
I192
I249
I304
I107
I40
tp268
a(I116
I88
I61
I175
I228
I240
I107
I39
tp269
a(I118
I104
I69
I192
I259
I262
I112
I39
tp270
a(I119
I97
I71
I192
I255
I268
I123
I42
tp271
a(I85
I97
I68
I197
I253
I268
I121
I40
tp272
a(I65
I102
I66
I194
I264
I279
I123
I36
tp273
a(I62
I107
I77
I281
I375
I314
I119
I38
tp274
a(I56
I84
I75
I267
I345
I302
I125
I41
tp275
a(I60
I83
I72
I276
I350
I322
I116
I43
tp276
a(I51
I77
I68
I273
I346
I315
I116
I42
tp277
a(I51
I71
I67
I261
I330
I299
I124
I43
tp278
a(I49
I67
I52
I163
I231
I263
I135
I43
tp279
a(I57
I73
I59
I165
I248
I249
I123
I36
tp280
a(I48
I78
I59
I142
I234
I197
I128
I31
tp281
a(I50
I73
I73
I202
I306
I221
I139
I34
tp282
a(I50
I76
I79
I227
I347
I274
I129
I35
tp283
a(I51
I78
I83
I240
I364
I240
I110
I32
tp284
a(I43
I87
I74
I238
I368
I241
I110
I32
tp285
a(I41
I82
I74
I246
I370
I251
I111
I32
tp286
a(I42
I83
I62
I221
I316
I349
I116
I31
tp287
a(I40
I84
I56
I212
I278
I346
I115
I29
tp288
a(I42
I87
I49
I198
I234
I359
I115
I29
tp289
a(I52
I77
I46
I183
I220
I373
I129
I28
tp290
a(I51
I83
I50
I199
I241
I384
I127
I29
tp291
a(I49
I83
I56
I240
I266
I293
I116
I28
tp292
a(I53
I84
I58
I299
I295
I262
I129
I28
tp293
a(I51
I72
I61
I313
I294
I255
I132
I27
tp294
a(I39
I67
I61
I316
I277
I231
I114
I29
tp295
a(I39
I61
I57
I307
I265
I206
I108
I28
tp296
a(I36
I61
I46
I263
I258
I241
I104
I30
tp297
a(I32
I53
I58
I187
I236
I316
I90
I32
tp298
a(I33
I61
I55
I177
I241
I307
I92
I34
tp299
a(I33
I84
I63
I197
I255
I314
I132
I35
tp300
a(I35
I85
I65
I198
I251
I332
I139
I37
tp301
a(I36
I82
I67
I198
I241
I326
I142
I35
tp302
a(I37
I85
I65
I190
I218
I256
I152
I32
tp303
a(I37
I96
I68
I186
I206
I274
I148
I29
tp304
a(I39
I82
I78
I218
I294
I339
I121
I31
tp305
a(I42
I84
I82
I216
I299
I361
I120
I37
tp306
a(I41
I84
I82
I218
I296
I343
I145
I38
tp307
a(I40
I86
I79
I213
I287
I333
I133
I40
tp308
a(I40
I69
I77
I209
I286
I323
I128
I41
tp309
a(I41
I67
I65
I157
I178
I270
I125
I40
tp310
a(I38
I65
I61
I159
I164
I218
I140
I34
tp311
a(I42
I77
I63
I161
I155
I223
I109
I33
tp312
a(I39
I71
I60
I182
I226
I233
I102
I31
tp313
a(I39
I75
I62
I181
I243
I225
I100
I31
tp314
a(I40
I85
I63
I198
I273
I284
I125
I32
tp315
a(I41
I88
I68
I211
I295
I293
I112
I32
tp316
a(I37
I87
I66
I194
I287
I289
I117
I34
tp317
a(I38
I93
I65
I178
I236
I282
I118
I34
tp318
a(I36
I96
I61
I193
I237
I280
I145
I34
tp319
a(I38
I89
I56
I168
I211
I284
I133
I34
tp320
a(I36
I85
I47
I151
I190
I278
I127
I35
tp321
a(I36
I78
I45
I152
I207
I282
I121
I34
tp322
a(I37
I78
I48
I156
I206
I279
I119
I33
tp323
a(I35
I68
I52
I153
I226
I302
I101
I35
tp324
a(I28
I64
I65
I242
I346
I261
I100
I33
tp325
a(I29
I68
I66
I244
I358
I305
I100
I31
tp326
a(I31
I71
I73
I248
I349
I303
I103
I34
tp327
a(I32
I66
I71
I247
I354
I307
I106
I35
tp328
a(I37
I69
I71
I230
I341
I317
I102
I36
tp329
a(I41
I83
I58
I129
I201
I292
I94
I36
tp330
a(I42
I84
I62
I131
I206
I258
I94
I41
tp331
asS'fist'
p332
(lp333
(I347
I138
I97
I286
I168
I515
I388
I255
tp334
a(I351
I132
I103
I295
I204
I642
I395
I262
tp335
a(I372
I91
I98
I328
I202
I642
I393
I294
tp336
a(I375
I93
I105
I332
I203
I645
I398
I311
tp337
a(I271
I89
I111
I360
I208
I633
I351
I261
tp338
a(I220
I88
I108
I348
I213
I624
I370
I227
tp339
a(I219
I88
I100
I326
I209
I526
I333
I221
tp340
a(I214
I84
I98
I248
I219
I519
I306
I206
tp341
a(I193
I75
I106
I265
I207
I449
I317
I184
tp342
a(I181
I73
I92
I214
I198
I470
I326
I186
tp343
a(I266
I84
I97
I263
I220
I483
I360
I225
tp344
a(I275
I89
I97
I271
I199
I470
I392
I248
tp345
a(I253
I91
I97
I292
I201
I533
I404
I221
tp346
a(I264
I86
I82
I273
I210
I533
I374
I219
tp347
a(I267
I93
I85
I315
I223
I501
I404
I227
tp348
a(I198
I81
I84
I269
I189
I491
I379
I202
tp349
a(I178
I78
I96
I266
I183
I508
I356
I180
tp350
a(I170
I82
I102
I274
I169
I407
I353
I171
tp351
a(I175
I86
I102
I275
I190
I506
I357
I187
tp352
a(I172
I82
I103
I230
I200
I525
I314
I159
tp353
a(I159
I83
I99
I273
I233
I533
I333
I142
tp354
a(I192
I81
I86
I267
I241
I547
I336
I223
tp355
a(I194
I74
I76
I245
I236
I577
I394
I226
tp356
a(I181
I73
I73
I257
I210
I538
I381
I214
tp357
a(I187
I66
I67
I284
I194
I578
I405
I236
tp358
a(I179
I64
I62
I253
I156
I563
I404
I246
tp359
a(I143
I67
I68
I295
I160
I538
I405
I193
tp360
a(I163
I66
I69
I289
I170
I559
I362
I217
tp361
a(I168
I71
I80
I297
I198
I507
I388
I234
tp362
a(I163
I73
I84
I284
I191
I425
I349
I209
tp363
a(I169
I79
I96
I278
I243
I544
I320
I198
tp364
a(I179
I81
I94
I233
I235
I555
I430
I202
tp365
a(I176
I82
I94
I246
I225
I513
I445
I181
tp366
a(I168
I77
I93
I221
I201
I512
I417
I157
tp367
a(I165
I77
I94
I236
I210
I537
I418
I166
tp368
a(I183
I89
I95
I235
I157
I435
I415
I181
tp369
a(I180
I91
I104
I294
I177
I452
I306
I151
tp370
a(I176
I95
I108
I325
I218
I554
I282
I142
tp371
a(I183
I98
I107
I324
I238
I589
I312
I157
tp372
a(I185
I106
I113
I308
I240
I632
I310
I177
tp373
a(I198
I98
I109
I309
I237
I622
I368
I189
tp374
a(I198
I90
I100
I247
I218
I627
I390
I207
tp375
a(I213
I89
I110
I254
I224
I606
I426
I258
tp376
a(I231
I92
I109
I261
I205
I604
I451
I261
tp377
a(I237
I86
I99
I292
I211
I540
I480
I249
tp378
a(I204
I79
I98
I298
I214
I548
I463
I227
tp379
a(I197
I80
I100
I300
I218
I523
I445
I214
tp380
a(I181
I79
I83
I253
I189
I466
I448
I211
tp381
a(I181
I81
I83
I308
I211
I478
I448
I221
tp382
a(I173
I88
I81
I286
I203
I499
I425
I220
tp383
a(I175
I85
I75
I272
I189
I501
I455
I219
tp384
a(I174
I86
I78
I272
I192
I461
I460
I215
tp385
a(I167
I92
I87
I279
I197
I597
I444
I162
tp386
a(I135
I80
I85
I226
I191
I575
I411
I140
tp387
a(I170
I72
I88
I213
I181
I607
I396
I140
tp388
a(I175
I77
I108
I244
I214
I698
I369
I140
tp389
a(I185
I80
I106
I262
I228
I742
I348
I155
tp390
a(I179
I68
I100
I267
I217
I686
I366
I158
tp391
a(I172
I71
I97
I268
I198
I667
I353
I150
tp392
a(I153
I71
I100
I298
I202
I642
I352
I164
tp393
a(I168
I68
I80
I274
I180
I553
I334
I169
tp394
a(I154
I75
I83
I288
I163
I541
I355
I164
tp395
a(I151
I75
I79
I384
I200
I526
I367
I151
tp396
a(I175
I73
I80
I386
I217
I549
I374
I162
tp397
a(I183
I81
I78
I392
I215
I627
I386
I155
tp398
a(I187
I89
I90
I420
I243
I643
I402
I183
tp399
a(I194
I88
I86
I412
I239
I605
I376
I179
tp400
a(I193
I89
I86
I323
I205
I546
I317
I175
tp401
a(I175
I89
I92
I338
I199
I590
I326
I174
tp402
a(I146
I89
I93
I330
I203
I511
I323
I161
tp403
a(I116
I85
I80
I338
I226
I471
I288
I116
tp404
a(I107
I78
I73
I322
I243
I524
I294
I116
tp405
a(I121
I90
I79
I312
I248
I538
I277
I145
tp406
a(I117
I87
I72
I309
I240
I495
I309
I134
tp407
a(I119
I78
I76
I335
I266
I475
I295
I130
tp408
a(I120
I78
I80
I300
I232
I503
I341
I149
tp409
a(I153
I80
I89
I318
I222
I548
I350
I150
tp410
a(I144
I69
I89
I316
I222
I523
I355
I143
tp411
a(I144
I74
I93
I288
I221
I500
I351
I142
tp412
a(I151
I79
I90
I220
I192
I496
I372
I140
tp413
a(I155
I79
I93
I221
I174
I529
I380
I126
tp414
a(I127
I91
I91
I229
I215
I507
I384
I140
tp415
a(I143
I102
I90
I228
I213
I539
I391
I124
tp416
a(I142
I99
I89
I253
I226
I577
I362
I125
tp417
a(I131
I97
I93
I282
I218
I564
I343
I127
tp418
a(I123
I97
I85
I316
I229
I488
I314
I124
tp419
a(I134
I82
I82
I325
I202
I536
I339
I113
tp420
a(I178
I74
I82
I348
I237
I547
I362
I138
tp421
a(I206
I77
I79
I355
I259
I580
I388
I165
tp422
a(I213
I81
I70
I336
I278
I574
I419
I171
tp423
a(I227
I84
I70
I330
I283
I596
I385
I181
tp424
a(I234
I92
I79
I306
I268
I497
I357
I176
tp425
a(I206
I93
I90
I308
I245
I530
I323
I175
tp426
a(I194
I98
I91
I330
I238
I498
I336
I158
tp427
a(I195
I91
I89
I334
I224
I496
I327
I150
tp428
a(I191
I81
I91
I301
I202
I498
I342
I149
tp429
a(I170
I70
I92
I311
I216
I522
I348
I146
tp430
a(I158
I69
I90
I289
I199
I484
I351
I121
tp431
a(I167
I69
I101
I339
I173
I504
I321
I114
tp432
a(I163
I85
I107
I334
I180
I548
I333
I127
tp433
a(I171
I99
I111
I385
I221
I615
I311
I124
tp434
a(I194
I100
I111
I394
I211
I632
I319
I131
tp435
a(I199
I95
I106
I387
I206
I611
I343
I138
tp436
a(I181
I100
I101
I375
I233
I658
I326
I133
tp437
a(I194
I90
I101
I374
I218
I624
I293
I132
tp438
a(I178
I79
I97
I324
I196
I550
I329
I130
tp439
a(I158
I87
I89
I303
I215
I587
I303
I119
tp440
a(I153
I97
I84
I340
I240
I587
I285
I109
tp441
a(I187
I94
I74
I264
I211
I467
I314
I138
tp442
a(I174
I94
I75
I289
I219
I472
I327
I130
tp443
a(I184
I99
I85
I325
I210
I506
I308
I129
tp444
a(I182
I96
I82
I334
I212
I450
I312
I137
tp445
a(I193
I101
I82
I303
I201
I516
I303
I150
tp446
a(I176
I102
I85
I309
I205
I526
I319
I129
tp447
a(I174
I110
I88
I334
I233
I570
I320
I129
tp448
a(I160
I110
I83
I302
I226
I529
I320
I122
tp449
a(I194
I114
I89
I302
I204
I540
I326
I125
tp450
a(I175
I129
I115
I312
I201
I499
I312
I110
tp451
a(I166
I127
I120
I309
I201
I509
I304
I106
tp452
a(I178
I123
I118
I285
I159
I477
I312
I116
tp453
a(I179
I120
I123
I281
I169
I506
I301
I115
tp454
a(I139
I116
I123
I271
I169
I434
I289
I103
tp455
a(I150
I93
I108
I267
I171
I464
I297
I112
tp456
a(I138
I100
I115
I278
I174
I417
I276
I104
tp457
a(I125
I94
I109
I266
I165
I409
I235
I92
tp458
a(I137
I91
I107
I288
I168
I410
I250
I107
tp459
a(I156
I103
I109
I297
I175
I419
I250
I135
tp460
a(I152
I109
I113
I298
I187
I432
I319
I132
tp461
a(I173
I99
I106
I267
I182
I484
I301
I150
tp462
a(I185
I104
I104
I245
I187
I481
I304
I163
tp463
a(I180
I115
I107
I235
I181
I441
I296
I164
tp464
a(I180
I102
I98
I298
I205
I535
I294
I163
tp465
a(I178
I90
I85
I276
I180
I468
I254
I171
tp466
a(I154
I103
I75
I277
I167
I429
I256
I155
tp467
a(I156
I105
I75
I284
I181
I406
I268
I145
tp468
a(I151
I90
I68
I291
I205
I502
I307
I141
tp469
a(I128
I97
I76
I224
I192
I439
I323
I115
tp470
a(I171
I102
I75
I323
I212
I441
I338
I106
tp471
a(I182
I92
I78
I352
I211
I463
I363
I111
tp472
a(I163
I91
I84
I364
I218
I537
I360
I109
tp473
a(I162
I92
I77
I358
I190
I451
I313
I96
tp474
a(I171
I115
I81
I375
I215
I452
I302
I96
tp475
a(I189
I116
I81
I338
I218
I484
I245
I132
tp476
a(I192
I111
I76
I324
I252
I487
I259
I139
tp477
a(I202
I111
I76
I322
I238
I440
I339
I147
tp478
a(I215
I118
I78
I308
I239
I436
I344
I160
tp479
a(I219
I92
I98
I397
I227
I446
I368
I166
tp480
a(I172
I85
I95
I399
I252
I444
I387
I140
tp481
a(I158
I86
I102
I416
I242
I482
I354
I128
tp482
a(I146
I83
I100
I413
I244
I536
I279
I116
tp483
a(I135
I75
I105
I417
I275
I583
I303
I121
tp484
a(I138
I92
I86
I298
I260
I591
I266
I132
tp485
a(I139
I98
I93
I269
I223
I595
I257
I138
tp486
a(I142
I97
I94
I250
I238
I562
I312
I149
tp487
a(I170
I106
I99
I245
I299
I584
I298
I159
tp488
a(I176
I107
I94
I251
I286
I539
I274
I154
tp489
a(I162
I95
I97
I287
I325
I579
I287
I138
tp490
as.